In archive libusb.a:

usb_device.o:     file format elf32-littlearm


Disassembly of section .text.MX_USB_DEVICE_Init:

00000000 <MX_USB_DEVICE_Init>:
/* USB Device Core handle declaration */
USBD_HandleTypeDef hUsbDeviceHS;

/* init function */				        
void MX_USB_DEVICE_Init(void)
{
   0:	b510      	push	{r4, lr}
  /* Init Device Library,Add Supported Class and Start the library*/
  USBD_Init(&hUsbDeviceHS, &HS_Desc, DEVICE_HS);
   2:	4c07      	ldr	r4, [pc, #28]	; (20 <MX_USB_DEVICE_Init+0x20>)
   4:	4907      	ldr	r1, [pc, #28]	; (24 <MX_USB_DEVICE_Init+0x24>)
   6:	2201      	movs	r2, #1
   8:	4620      	mov	r0, r4
   a:	f7ff fffe 	bl	0 <USBD_Init>

  USBD_RegisterClass(&hUsbDeviceHS, &USBD_AUDIO);
   e:	4620      	mov	r0, r4
  10:	4905      	ldr	r1, [pc, #20]	; (28 <MX_USB_DEVICE_Init+0x28>)
  12:	f7ff fffe 	bl	0 <USBD_RegisterClass>

  USBD_Start(&hUsbDeviceHS);
  16:	4620      	mov	r0, r4

}
  18:	e8bd 4010 	ldmia.w	sp!, {r4, lr}
  /* Init Device Library,Add Supported Class and Start the library*/
  USBD_Init(&hUsbDeviceHS, &HS_Desc, DEVICE_HS);

  USBD_RegisterClass(&hUsbDeviceHS, &USBD_AUDIO);

  USBD_Start(&hUsbDeviceHS);
  1c:	f7ff bffe 	b.w	0 <USBD_Start>
	...

usbd_conf.o:     file format elf32-littlearm


Disassembly of section .text.HAL_PCD_MspInit:

00000000 <HAL_PCD_MspInit>:
                       LL Driver Callbacks (PCD -> USB Device Library)
*******************************************************************************/
/* MSP Init */

void HAL_PCD_MspInit(PCD_HandleTypeDef* pcdHandle)
{
   0:	b5f0      	push	{r4, r5, r6, r7, lr}
  GPIO_InitTypeDef GPIO_InitStruct;
  if(pcdHandle->Instance==USB_OTG_HS)
   2:	4b2e      	ldr	r3, [pc, #184]	; (bc <HAL_PCD_MspInit+0xbc>)
   4:	6802      	ldr	r2, [r0, #0]
   6:	429a      	cmp	r2, r3
                       LL Driver Callbacks (PCD -> USB Device Library)
*******************************************************************************/
/* MSP Init */

void HAL_PCD_MspInit(PCD_HandleTypeDef* pcdHandle)
{
   8:	b089      	sub	sp, #36	; 0x24
  GPIO_InitTypeDef GPIO_InitStruct;
  if(pcdHandle->Instance==USB_OTG_HS)
   a:	d155      	bne.n	b8 <HAL_PCD_MspInit+0xb8>
    {
      /* USER CODE BEGIN USB_OTG_HS_MspInit 0 */

      /* USER CODE END USB_OTG_HS_MspInit 0 */
      
      if(externalPhy)
   c:	4b2c      	ldr	r3, [pc, #176]	; (c0 <HAL_PCD_MspInit+0xc0>)
   e:	681c      	ldr	r4, [r3, #0]
  10:	2502      	movs	r5, #2
  12:	2c00      	cmp	r4, #0
  14:	d037      	beq.n	86 <HAL_PCD_MspInit+0x86>
	     PB13     ------> USB_OTG_HS_ULPI_D6
	     PB5     ------> USB_OTG_HS_ULPI_D7 
	  */
	  GPIO_InitStruct.Pin = GPIO_PIN_0|GPIO_PIN_2|GPIO_PIN_3;
	  GPIO_InitStruct.Mode = GPIO_MODE_AF_PP;
	  GPIO_InitStruct.Pull = GPIO_NOPULL;
  16:	2400      	movs	r4, #0
	     PB11     ------> USB_OTG_HS_ULPI_D4
	     PB12     ------> USB_OTG_HS_ULPI_D5
	     PB13     ------> USB_OTG_HS_ULPI_D6
	     PB5     ------> USB_OTG_HS_ULPI_D7 
	  */
	  GPIO_InitStruct.Pin = GPIO_PIN_0|GPIO_PIN_2|GPIO_PIN_3;
  18:	230d      	movs	r3, #13
	  GPIO_InitStruct.Mode = GPIO_MODE_AF_PP;
	  GPIO_InitStruct.Pull = GPIO_NOPULL;
	  GPIO_InitStruct.Speed = GPIO_SPEED_FREQ_VERY_HIGH;
  1a:	2703      	movs	r7, #3
	  GPIO_InitStruct.Alternate = GPIO_AF10_OTG_HS;
  1c:	260a      	movs	r6, #10
	  HAL_GPIO_Init(GPIOC, &GPIO_InitStruct);
  1e:	a903      	add	r1, sp, #12
  20:	4828      	ldr	r0, [pc, #160]	; (c4 <HAL_PCD_MspInit+0xc4>)
	     PB11     ------> USB_OTG_HS_ULPI_D4
	     PB12     ------> USB_OTG_HS_ULPI_D5
	     PB13     ------> USB_OTG_HS_ULPI_D6
	     PB5     ------> USB_OTG_HS_ULPI_D7 
	  */
	  GPIO_InitStruct.Pin = GPIO_PIN_0|GPIO_PIN_2|GPIO_PIN_3;
  22:	9303      	str	r3, [sp, #12]
	  GPIO_InitStruct.Mode = GPIO_MODE_AF_PP;
  24:	9504      	str	r5, [sp, #16]
	  GPIO_InitStruct.Pull = GPIO_NOPULL;
  26:	9405      	str	r4, [sp, #20]
	  GPIO_InitStruct.Speed = GPIO_SPEED_FREQ_VERY_HIGH;
  28:	9706      	str	r7, [sp, #24]
	  GPIO_InitStruct.Alternate = GPIO_AF10_OTG_HS;
  2a:	9607      	str	r6, [sp, #28]
	  HAL_GPIO_Init(GPIOC, &GPIO_InitStruct);
  2c:	f7ff fffe 	bl	0 <HAL_GPIO_Init>
	  
	  GPIO_InitStruct.Pin = GPIO_PIN_3|GPIO_PIN_5;
  30:	2328      	movs	r3, #40	; 0x28
	  GPIO_InitStruct.Mode = GPIO_MODE_AF_PP;
	  GPIO_InitStruct.Pull = GPIO_NOPULL;
	  GPIO_InitStruct.Speed = GPIO_SPEED_FREQ_VERY_HIGH;
	  GPIO_InitStruct.Alternate = GPIO_AF10_OTG_HS;
	  HAL_GPIO_Init(GPIOA, &GPIO_InitStruct);
  32:	a903      	add	r1, sp, #12
  34:	4824      	ldr	r0, [pc, #144]	; (c8 <HAL_PCD_MspInit+0xc8>)
	  GPIO_InitStruct.Pull = GPIO_NOPULL;
	  GPIO_InitStruct.Speed = GPIO_SPEED_FREQ_VERY_HIGH;
	  GPIO_InitStruct.Alternate = GPIO_AF10_OTG_HS;
	  HAL_GPIO_Init(GPIOC, &GPIO_InitStruct);
	  
	  GPIO_InitStruct.Pin = GPIO_PIN_3|GPIO_PIN_5;
  36:	9303      	str	r3, [sp, #12]
	  GPIO_InitStruct.Mode = GPIO_MODE_AF_PP;
  38:	9504      	str	r5, [sp, #16]
	  GPIO_InitStruct.Pull = GPIO_NOPULL;
  3a:	9405      	str	r4, [sp, #20]
	  GPIO_InitStruct.Speed = GPIO_SPEED_FREQ_VERY_HIGH;
  3c:	9706      	str	r7, [sp, #24]
	  GPIO_InitStruct.Alternate = GPIO_AF10_OTG_HS;
  3e:	9607      	str	r6, [sp, #28]
	  HAL_GPIO_Init(GPIOA, &GPIO_InitStruct);
  40:	f7ff fffe 	bl	0 <HAL_GPIO_Init>
	    GPIO_InitStruct.Pull = GPIO_NOPULL;
	    GPIO_InitStruct.Speed = GPIO_SPEED_FREQ_VERY_HIGH;
	    GPIO_InitStruct.Alternate = GPIO_AF12_OTG_HS_FS;
	    HAL_GPIO_Init(GPIOA, &GPIO_InitStruct);
	  */
	  GPIO_InitStruct.Pin = GPIO_PIN_0|GPIO_PIN_1|GPIO_PIN_10|GPIO_PIN_11 
  44:	f643 4323 	movw	r3, #15395	; 0x3c23
      |GPIO_PIN_12|GPIO_PIN_13|GPIO_PIN_5;
    GPIO_InitStruct.Mode = GPIO_MODE_AF_PP;
    GPIO_InitStruct.Pull = GPIO_NOPULL;
    GPIO_InitStruct.Speed = GPIO_SPEED_FREQ_VERY_HIGH;
    GPIO_InitStruct.Alternate = GPIO_AF10_OTG_HS;
      HAL_GPIO_Init(GPIOB, &GPIO_InitStruct);
  48:	a903      	add	r1, sp, #12
  4a:	4820      	ldr	r0, [pc, #128]	; (cc <HAL_PCD_MspInit+0xcc>)
	    GPIO_InitStruct.Pull = GPIO_NOPULL;
	    GPIO_InitStruct.Speed = GPIO_SPEED_FREQ_VERY_HIGH;
	    GPIO_InitStruct.Alternate = GPIO_AF12_OTG_HS_FS;
	    HAL_GPIO_Init(GPIOA, &GPIO_InitStruct);
	  */
	  GPIO_InitStruct.Pin = GPIO_PIN_0|GPIO_PIN_1|GPIO_PIN_10|GPIO_PIN_11 
  4c:	9303      	str	r3, [sp, #12]
      |GPIO_PIN_12|GPIO_PIN_13|GPIO_PIN_5;
    GPIO_InitStruct.Mode = GPIO_MODE_AF_PP;
  4e:	9504      	str	r5, [sp, #16]
    GPIO_InitStruct.Pull = GPIO_NOPULL;
  50:	9405      	str	r4, [sp, #20]
    GPIO_InitStruct.Speed = GPIO_SPEED_FREQ_VERY_HIGH;
  52:	9706      	str	r7, [sp, #24]
    GPIO_InitStruct.Alternate = GPIO_AF10_OTG_HS;
  54:	9607      	str	r6, [sp, #28]
      HAL_GPIO_Init(GPIOB, &GPIO_InitStruct);
  56:	f7ff fffe 	bl	0 <HAL_GPIO_Init>

      /* Peripheral clock enable */
      __HAL_RCC_USB_OTG_HS_CLK_ENABLE();
  5a:	4b1d      	ldr	r3, [pc, #116]	; (d0 <HAL_PCD_MspInit+0xd0>)
  5c:	9400      	str	r4, [sp, #0]
  5e:	6b1a      	ldr	r2, [r3, #48]	; 0x30
  60:	f042 5200 	orr.w	r2, r2, #536870912	; 0x20000000
  64:	631a      	str	r2, [r3, #48]	; 0x30
  66:	6b1a      	ldr	r2, [r3, #48]	; 0x30
  68:	f002 5200 	and.w	r2, r2, #536870912	; 0x20000000
  6c:	9200      	str	r2, [sp, #0]
  6e:	9a00      	ldr	r2, [sp, #0]
    __HAL_RCC_USB_OTG_HS_ULPI_CLK_ENABLE();
  70:	9401      	str	r4, [sp, #4]
  72:	6b1a      	ldr	r2, [r3, #48]	; 0x30
  74:	f042 4280 	orr.w	r2, r2, #1073741824	; 0x40000000
  78:	631a      	str	r2, [r3, #48]	; 0x30
  7a:	6b1b      	ldr	r3, [r3, #48]	; 0x30
  7c:	f003 4380 	and.w	r3, r3, #1073741824	; 0x40000000
  80:	9301      	str	r3, [sp, #4]
  82:	9b01      	ldr	r3, [sp, #4]
  84:	e018      	b.n	b8 <HAL_PCD_MspInit+0xb8>

      /**USB_OTG_HS GPIO Configuration
      PB14     ------> USB_OTG_HS_DM
      PB15     ------> USB_OTG_HS_DP
      */
      GPIO_InitStruct.Pin = GPIO_PIN_14|GPIO_PIN_15;
  86:	f44f 4340 	mov.w	r3, #49152	; 0xc000
  8a:	9303      	str	r3, [sp, #12]
      GPIO_InitStruct.Mode = GPIO_MODE_AF_PP;
      GPIO_InitStruct.Pull = GPIO_NOPULL;
      GPIO_InitStruct.Speed = GPIO_SPEED_FREQ_VERY_HIGH;
  8c:	2303      	movs	r3, #3
  8e:	9306      	str	r3, [sp, #24]
      GPIO_InitStruct.Alternate = GPIO_AF12_OTG_HS_FS;
  90:	230c      	movs	r3, #12
      HAL_GPIO_Init(GPIOB, &GPIO_InitStruct);
  92:	eb0d 0103 	add.w	r1, sp, r3
  96:	480d      	ldr	r0, [pc, #52]	; (cc <HAL_PCD_MspInit+0xcc>)
      */
      GPIO_InitStruct.Pin = GPIO_PIN_14|GPIO_PIN_15;
      GPIO_InitStruct.Mode = GPIO_MODE_AF_PP;
      GPIO_InitStruct.Pull = GPIO_NOPULL;
      GPIO_InitStruct.Speed = GPIO_SPEED_FREQ_VERY_HIGH;
      GPIO_InitStruct.Alternate = GPIO_AF12_OTG_HS_FS;
  98:	9307      	str	r3, [sp, #28]
      /**USB_OTG_HS GPIO Configuration
      PB14     ------> USB_OTG_HS_DM
      PB15     ------> USB_OTG_HS_DP
      */
      GPIO_InitStruct.Pin = GPIO_PIN_14|GPIO_PIN_15;
      GPIO_InitStruct.Mode = GPIO_MODE_AF_PP;
  9a:	9504      	str	r5, [sp, #16]
      GPIO_InitStruct.Pull = GPIO_NOPULL;
  9c:	9405      	str	r4, [sp, #20]
      GPIO_InitStruct.Speed = GPIO_SPEED_FREQ_VERY_HIGH;
      GPIO_InitStruct.Alternate = GPIO_AF12_OTG_HS_FS;
      HAL_GPIO_Init(GPIOB, &GPIO_InitStruct);
  9e:	f7ff fffe 	bl	0 <HAL_GPIO_Init>

      /* Peripheral clock enable */
      __HAL_RCC_USB_OTG_HS_CLK_ENABLE();
  a2:	4b0b      	ldr	r3, [pc, #44]	; (d0 <HAL_PCD_MspInit+0xd0>)
  a4:	9402      	str	r4, [sp, #8]
  a6:	6b1a      	ldr	r2, [r3, #48]	; 0x30
  a8:	f042 5200 	orr.w	r2, r2, #536870912	; 0x20000000
  ac:	631a      	str	r2, [r3, #48]	; 0x30
  ae:	6b1b      	ldr	r3, [r3, #48]	; 0x30
  b0:	f003 5300 	and.w	r3, r3, #536870912	; 0x20000000
  b4:	9302      	str	r3, [sp, #8]
  b6:	9b02      	ldr	r3, [sp, #8]
      //HAL_NVIC_EnableIRQ(OTG_HS_IRQn);
      /* USER CODE BEGIN USB_OTG_HS_MspInit 1 */

      /* USER CODE END USB_OTG_HS_MspInit 1 */
    }
}
  b8:	b009      	add	sp, #36	; 0x24
  ba:	bdf0      	pop	{r4, r5, r6, r7, pc}
  bc:	40040000 	.word	0x40040000
  c0:	00000000 	.word	0x00000000
  c4:	40020800 	.word	0x40020800
  c8:	40020000 	.word	0x40020000
  cc:	40020400 	.word	0x40020400
  d0:	40023800 	.word	0x40023800

Disassembly of section .text.HAL_PCD_MspDeInit:

00000000 <HAL_PCD_MspDeInit>:
                       LL Driver Callbacks (PCD -> USB Device Library)
*******************************************************************************/
/* MSP Init */

void HAL_PCD_MspInit(PCD_HandleTypeDef* pcdHandle)
{
   0:	b508      	push	{r3, lr}
  GPIO_InitTypeDef GPIO_InitStruct;
  if(pcdHandle->Instance==USB_OTG_HS)
   2:	4b15      	ldr	r3, [pc, #84]	; (58 <HAL_PCD_MspDeInit+0x58>)
   4:	6802      	ldr	r2, [r0, #0]
   6:	429a      	cmp	r2, r3
                       LL Driver Callbacks (PCD -> USB Device Library)
*******************************************************************************/
/* MSP Init */

void HAL_PCD_MspInit(PCD_HandleTypeDef* pcdHandle)
{
   8:	d124      	bne.n	54 <HAL_PCD_MspDeInit+0x54>
  GPIO_InitTypeDef GPIO_InitStruct;
  if(pcdHandle->Instance==USB_OTG_HS)
   a:	4b14      	ldr	r3, [pc, #80]	; (5c <HAL_PCD_MspDeInit+0x5c>)
    {
      /* USER CODE BEGIN USB_OTG_HS_MspInit 0 */

      /* USER CODE END USB_OTG_HS_MspInit 0 */
      
      if(externalPhy)
   c:	681a      	ldr	r2, [r3, #0]
   e:	4b14      	ldr	r3, [pc, #80]	; (60 <HAL_PCD_MspDeInit+0x60>)
  10:	b192      	cbz	r2, 38 <HAL_PCD_MspDeInit+0x38>
  12:	6b1a      	ldr	r2, [r3, #48]	; 0x30
  14:	4813      	ldr	r0, [pc, #76]	; (64 <HAL_PCD_MspDeInit+0x64>)
	     PB13     ------> USB_OTG_HS_ULPI_D6
	     PB5     ------> USB_OTG_HS_ULPI_D7 
	  */
	  GPIO_InitStruct.Pin = GPIO_PIN_0|GPIO_PIN_2|GPIO_PIN_3;
	  GPIO_InitStruct.Mode = GPIO_MODE_AF_PP;
	  GPIO_InitStruct.Pull = GPIO_NOPULL;
  16:	f022 5200 	bic.w	r2, r2, #536870912	; 0x20000000
	  GPIO_InitStruct.Speed = GPIO_SPEED_FREQ_VERY_HIGH;
  1a:	631a      	str	r2, [r3, #48]	; 0x30
	  GPIO_InitStruct.Alternate = GPIO_AF10_OTG_HS;
  1c:	6b1a      	ldr	r2, [r3, #48]	; 0x30
	  HAL_GPIO_Init(GPIOC, &GPIO_InitStruct);
  1e:	f022 4280 	bic.w	r2, r2, #1073741824	; 0x40000000
	     PB11     ------> USB_OTG_HS_ULPI_D4
	     PB12     ------> USB_OTG_HS_ULPI_D5
	     PB13     ------> USB_OTG_HS_ULPI_D6
	     PB5     ------> USB_OTG_HS_ULPI_D7 
	  */
	  GPIO_InitStruct.Pin = GPIO_PIN_0|GPIO_PIN_2|GPIO_PIN_3;
  22:	631a      	str	r2, [r3, #48]	; 0x30
	  GPIO_InitStruct.Mode = GPIO_MODE_AF_PP;
  24:	210d      	movs	r1, #13
	  GPIO_InitStruct.Pull = GPIO_NOPULL;
  26:	f7ff fffe 	bl	0 <HAL_GPIO_DeInit>
	  GPIO_InitStruct.Speed = GPIO_SPEED_FREQ_VERY_HIGH;
	  GPIO_InitStruct.Alternate = GPIO_AF10_OTG_HS;
  2a:	2138      	movs	r1, #56	; 0x38
	  HAL_GPIO_Init(GPIOC, &GPIO_InitStruct);
  2c:	480e      	ldr	r0, [pc, #56]	; (68 <HAL_PCD_MspDeInit+0x68>)
  2e:	f7ff fffe 	bl	0 <HAL_GPIO_DeInit>
	  GPIO_InitStruct.Pin = GPIO_PIN_3|GPIO_PIN_5;
	  GPIO_InitStruct.Mode = GPIO_MODE_AF_PP;
	  GPIO_InitStruct.Pull = GPIO_NOPULL;
	  GPIO_InitStruct.Speed = GPIO_SPEED_FREQ_VERY_HIGH;
	  GPIO_InitStruct.Alternate = GPIO_AF10_OTG_HS;
	  HAL_GPIO_Init(GPIOA, &GPIO_InitStruct);
  32:	f643 4123 	movw	r1, #15395	; 0x3c23
	  GPIO_InitStruct.Pull = GPIO_NOPULL;
	  GPIO_InitStruct.Speed = GPIO_SPEED_FREQ_VERY_HIGH;
	  GPIO_InitStruct.Alternate = GPIO_AF10_OTG_HS;
	  HAL_GPIO_Init(GPIOC, &GPIO_InitStruct);
	  
	  GPIO_InitStruct.Pin = GPIO_PIN_3|GPIO_PIN_5;
  36:	e005      	b.n	44 <HAL_PCD_MspDeInit+0x44>
	  GPIO_InitStruct.Mode = GPIO_MODE_AF_PP;
  38:	6b1a      	ldr	r2, [r3, #48]	; 0x30
	  GPIO_InitStruct.Pull = GPIO_NOPULL;
  3a:	f022 5200 	bic.w	r2, r2, #536870912	; 0x20000000
	  GPIO_InitStruct.Speed = GPIO_SPEED_FREQ_VERY_HIGH;
	  GPIO_InitStruct.Alternate = GPIO_AF10_OTG_HS;
  3e:	631a      	str	r2, [r3, #48]	; 0x30
	  HAL_GPIO_Init(GPIOA, &GPIO_InitStruct);
  40:	f44f 4140 	mov.w	r1, #49152	; 0xc000
	    GPIO_InitStruct.Pull = GPIO_NOPULL;
	    GPIO_InitStruct.Speed = GPIO_SPEED_FREQ_VERY_HIGH;
	    GPIO_InitStruct.Alternate = GPIO_AF12_OTG_HS_FS;
	    HAL_GPIO_Init(GPIOA, &GPIO_InitStruct);
	  */
	  GPIO_InitStruct.Pin = GPIO_PIN_0|GPIO_PIN_1|GPIO_PIN_10|GPIO_PIN_11 
  44:	4809      	ldr	r0, [pc, #36]	; (28 <HAL_GPIO_DeInit+0x28>)
  46:	f7ff fffe 	bl	0 <HAL_GPIO_DeInit>
      |GPIO_PIN_12|GPIO_PIN_13|GPIO_PIN_5;
    GPIO_InitStruct.Mode = GPIO_MODE_AF_PP;
    GPIO_InitStruct.Pull = GPIO_NOPULL;
    GPIO_InitStruct.Speed = GPIO_SPEED_FREQ_VERY_HIGH;
    GPIO_InitStruct.Alternate = GPIO_AF10_OTG_HS;
      HAL_GPIO_Init(GPIOB, &GPIO_InitStruct);
  4a:	204d      	movs	r0, #77	; 0x4d
	    GPIO_InitStruct.Pull = GPIO_NOPULL;
	    GPIO_InitStruct.Speed = GPIO_SPEED_FREQ_VERY_HIGH;
	    GPIO_InitStruct.Alternate = GPIO_AF12_OTG_HS_FS;
	    HAL_GPIO_Init(GPIOA, &GPIO_InitStruct);
	  */
	  GPIO_InitStruct.Pin = GPIO_PIN_0|GPIO_PIN_1|GPIO_PIN_10|GPIO_PIN_11 
  4c:	e8bd 4008 	ldmia.w	sp!, {r3, lr}
      |GPIO_PIN_12|GPIO_PIN_13|GPIO_PIN_5;
    GPIO_InitStruct.Mode = GPIO_MODE_AF_PP;
    GPIO_InitStruct.Pull = GPIO_NOPULL;
  50:	f7ff bffe 	b.w	0 <HAL_NVIC_DisableIRQ>
    GPIO_InitStruct.Speed = GPIO_SPEED_FREQ_VERY_HIGH;
    GPIO_InitStruct.Alternate = GPIO_AF10_OTG_HS;
  54:	bd08      	pop	{r3, pc}
      HAL_GPIO_Init(GPIOB, &GPIO_InitStruct);
  56:	bf00      	nop
  58:	40040000 	.word	0x40040000

      /* Peripheral clock enable */
      __HAL_RCC_USB_OTG_HS_CLK_ENABLE();
  5c:	00000000 	.word	0x00000000
  60:	40023800 	.word	0x40023800
  64:	40020800 	.word	0x40020800
  68:	40020000 	.word	0x40020000
  6c:	40020400 	.word	0x40020400

Disassembly of section .text.HAL_PCD_SetupStageCallback:

00000000 <HAL_PCD_SetupStageCallback>:
                       LL Driver Callbacks (PCD -> USB Device Library)
*******************************************************************************/
/* MSP Init */

void HAL_PCD_MspInit(PCD_HandleTypeDef* pcdHandle)
{
   0:	f500 7161 	add.w	r1, r0, #900	; 0x384
  GPIO_InitTypeDef GPIO_InitStruct;
  if(pcdHandle->Instance==USB_OTG_HS)
   4:	f8d0 03b4 	ldr.w	r0, [r0, #948]	; 0x3b4
                       LL Driver Callbacks (PCD -> USB Device Library)
*******************************************************************************/
/* MSP Init */

void HAL_PCD_MspInit(PCD_HandleTypeDef* pcdHandle)
{
   8:	f7ff bffe 	b.w	0 <USBD_LL_SetupStage>

Disassembly of section .text.HAL_PCD_DataOutStageCallback:

00000000 <HAL_PCD_DataOutStageCallback>:
   0:	231c      	movs	r3, #28
  GPIO_InitTypeDef GPIO_InitStruct;
  if(pcdHandle->Instance==USB_OTG_HS)
   2:	fb03 0301 	mla	r3, r3, r1, r0
   6:	f8d0 03b4 	ldr.w	r0, [r0, #948]	; 0x3b4
   a:	f8d3 21e8 	ldr.w	r2, [r3, #488]	; 0x1e8
    {
      /* USER CODE BEGIN USB_OTG_HS_MspInit 0 */

      /* USER CODE END USB_OTG_HS_MspInit 0 */
      
      if(externalPhy)
   e:	f7ff bffe 	b.w	0 <USBD_LL_DataOutStage>

Disassembly of section .text.HAL_PCD_DataInStageCallback:

00000000 <HAL_PCD_DataInStageCallback>:
                       LL Driver Callbacks (PCD -> USB Device Library)
*******************************************************************************/
/* MSP Init */

void HAL_PCD_MspInit(PCD_HandleTypeDef* pcdHandle)
{
   0:	231c      	movs	r3, #28
  GPIO_InitTypeDef GPIO_InitStruct;
  if(pcdHandle->Instance==USB_OTG_HS)
   2:	fb03 0301 	mla	r3, r3, r1, r0
   6:	f8d0 03b4 	ldr.w	r0, [r0, #948]	; 0x3b4
   a:	6c5a      	ldr	r2, [r3, #68]	; 0x44
    {
      /* USER CODE BEGIN USB_OTG_HS_MspInit 0 */

      /* USER CODE END USB_OTG_HS_MspInit 0 */
      
      if(externalPhy)
   c:	f7ff bffe 	b.w	0 <USBD_LL_DataInStage>

Disassembly of section .text.HAL_PCD_SOFCallback:

00000000 <HAL_PCD_SOFCallback>:
                       LL Driver Callbacks (PCD -> USB Device Library)
*******************************************************************************/
/* MSP Init */

void HAL_PCD_MspInit(PCD_HandleTypeDef* pcdHandle)
{
   0:	f8d0 03b4 	ldr.w	r0, [r0, #948]	; 0x3b4
  GPIO_InitTypeDef GPIO_InitStruct;
  if(pcdHandle->Instance==USB_OTG_HS)
   4:	f7ff bffe 	b.w	0 <USBD_LL_SOF>

Disassembly of section .text.HAL_PCD_ResetCallback:

00000000 <HAL_PCD_ResetCallback>:
                       LL Driver Callbacks (PCD -> USB Device Library)
*******************************************************************************/
/* MSP Init */

void HAL_PCD_MspInit(PCD_HandleTypeDef* pcdHandle)
{
   0:	b510      	push	{r4, lr}
  GPIO_InitTypeDef GPIO_InitStruct;
  if(pcdHandle->Instance==USB_OTG_HS)
   2:	68c1      	ldr	r1, [r0, #12]
   4:	4604      	mov	r4, r0
   6:	3100      	adds	r1, #0
                       LL Driver Callbacks (PCD -> USB Device Library)
*******************************************************************************/
/* MSP Init */

void HAL_PCD_MspInit(PCD_HandleTypeDef* pcdHandle)
{
   8:	bf18      	it	ne
  GPIO_InitTypeDef GPIO_InitStruct;
  if(pcdHandle->Instance==USB_OTG_HS)
   a:	2101      	movne	r1, #1
    {
      /* USER CODE BEGIN USB_OTG_HS_MspInit 0 */

      /* USER CODE END USB_OTG_HS_MspInit 0 */
      
      if(externalPhy)
   c:	f8d0 03b4 	ldr.w	r0, [r0, #948]	; 0x3b4
  10:	f7ff fffe 	bl	0 <USBD_LL_SetSpeed>
  14:	f8d4 03b4 	ldr.w	r0, [r4, #948]	; 0x3b4
	     PB11     ------> USB_OTG_HS_ULPI_D4
	     PB12     ------> USB_OTG_HS_ULPI_D5
	     PB13     ------> USB_OTG_HS_ULPI_D6
	     PB5     ------> USB_OTG_HS_ULPI_D7 
	  */
	  GPIO_InitStruct.Pin = GPIO_PIN_0|GPIO_PIN_2|GPIO_PIN_3;
  18:	e8bd 4010 	ldmia.w	sp!, {r4, lr}
	  GPIO_InitStruct.Mode = GPIO_MODE_AF_PP;
	  GPIO_InitStruct.Pull = GPIO_NOPULL;
	  GPIO_InitStruct.Speed = GPIO_SPEED_FREQ_VERY_HIGH;
	  GPIO_InitStruct.Alternate = GPIO_AF10_OTG_HS;
  1c:	f7ff bffe 	b.w	0 <USBD_LL_Reset>

Disassembly of section .text.HAL_PCD_SuspendCallback:

00000000 <HAL_PCD_SuspendCallback>:
                       LL Driver Callbacks (PCD -> USB Device Library)
*******************************************************************************/
/* MSP Init */

void HAL_PCD_MspInit(PCD_HandleTypeDef* pcdHandle)
{
   0:	b510      	push	{r4, lr}
  GPIO_InitTypeDef GPIO_InitStruct;
  if(pcdHandle->Instance==USB_OTG_HS)
   2:	4604      	mov	r4, r0
   4:	f8d0 03b4 	ldr.w	r0, [r0, #948]	; 0x3b4
                       LL Driver Callbacks (PCD -> USB Device Library)
*******************************************************************************/
/* MSP Init */

void HAL_PCD_MspInit(PCD_HandleTypeDef* pcdHandle)
{
   8:	f7ff fffe 	bl	0 <USBD_LL_Suspend>
    {
      /* USER CODE BEGIN USB_OTG_HS_MspInit 0 */

      /* USER CODE END USB_OTG_HS_MspInit 0 */
      
      if(externalPhy)
   c:	6822      	ldr	r2, [r4, #0]
   e:	f8d2 3e00 	ldr.w	r3, [r2, #3584]	; 0xe00
  12:	f043 0301 	orr.w	r3, r3, #1
	     PB13     ------> USB_OTG_HS_ULPI_D6
	     PB5     ------> USB_OTG_HS_ULPI_D7 
	  */
	  GPIO_InitStruct.Pin = GPIO_PIN_0|GPIO_PIN_2|GPIO_PIN_3;
	  GPIO_InitStruct.Mode = GPIO_MODE_AF_PP;
	  GPIO_InitStruct.Pull = GPIO_NOPULL;
  16:	f8c2 3e00 	str.w	r3, [r2, #3584]	; 0xe00
	  GPIO_InitStruct.Speed = GPIO_SPEED_FREQ_VERY_HIGH;
  1a:	6a23      	ldr	r3, [r4, #32]
	  GPIO_InitStruct.Alternate = GPIO_AF10_OTG_HS;
  1c:	b123      	cbz	r3, 28 <HAL_PCD_SuspendCallback+0x28>
	  HAL_GPIO_Init(GPIOC, &GPIO_InitStruct);
  1e:	4a03      	ldr	r2, [pc, #12]	; (2c <HAL_PCD_SuspendCallback+0x2c>)
  20:	6913      	ldr	r3, [r2, #16]
	     PB11     ------> USB_OTG_HS_ULPI_D4
	     PB12     ------> USB_OTG_HS_ULPI_D5
	     PB13     ------> USB_OTG_HS_ULPI_D6
	     PB5     ------> USB_OTG_HS_ULPI_D7 
	  */
	  GPIO_InitStruct.Pin = GPIO_PIN_0|GPIO_PIN_2|GPIO_PIN_3;
  22:	f043 0306 	orr.w	r3, r3, #6
	  GPIO_InitStruct.Mode = GPIO_MODE_AF_PP;
	  GPIO_InitStruct.Pull = GPIO_NOPULL;
  26:	6113      	str	r3, [r2, #16]
	  GPIO_InitStruct.Speed = GPIO_SPEED_FREQ_VERY_HIGH;
  28:	bd10      	pop	{r4, pc}
	  GPIO_InitStruct.Alternate = GPIO_AF10_OTG_HS;
  2a:	bf00      	nop
	  HAL_GPIO_Init(GPIOC, &GPIO_InitStruct);
  2c:	e000ed00 	.word	0xe000ed00

Disassembly of section .text.HAL_PCD_ResumeCallback:

00000000 <HAL_PCD_ResumeCallback>:
                       LL Driver Callbacks (PCD -> USB Device Library)
*******************************************************************************/
/* MSP Init */

void HAL_PCD_MspInit(PCD_HandleTypeDef* pcdHandle)
{
   0:	f8d0 03b4 	ldr.w	r0, [r0, #948]	; 0x3b4
  GPIO_InitTypeDef GPIO_InitStruct;
  if(pcdHandle->Instance==USB_OTG_HS)
   4:	f7ff bffe 	b.w	0 <USBD_LL_Resume>

Disassembly of section .text.HAL_PCD_ISOOUTIncompleteCallback:

00000000 <HAL_PCD_ISOOUTIncompleteCallback>:
                       LL Driver Callbacks (PCD -> USB Device Library)
*******************************************************************************/
/* MSP Init */

void HAL_PCD_MspInit(PCD_HandleTypeDef* pcdHandle)
{
   0:	f8d0 03b4 	ldr.w	r0, [r0, #948]	; 0x3b4
  GPIO_InitTypeDef GPIO_InitStruct;
  if(pcdHandle->Instance==USB_OTG_HS)
   4:	f7ff bffe 	b.w	0 <USBD_LL_IsoOUTIncomplete>

Disassembly of section .text.HAL_PCD_ISOINIncompleteCallback:

00000000 <HAL_PCD_ISOINIncompleteCallback>:
                       LL Driver Callbacks (PCD -> USB Device Library)
*******************************************************************************/
/* MSP Init */

void HAL_PCD_MspInit(PCD_HandleTypeDef* pcdHandle)
{
   0:	f8d0 03b4 	ldr.w	r0, [r0, #948]	; 0x3b4
  GPIO_InitTypeDef GPIO_InitStruct;
  if(pcdHandle->Instance==USB_OTG_HS)
   4:	f7ff bffe 	b.w	0 <USBD_LL_IsoINIncomplete>

Disassembly of section .text.HAL_PCD_ConnectCallback:

00000000 <HAL_PCD_ConnectCallback>:
                       LL Driver Callbacks (PCD -> USB Device Library)
*******************************************************************************/
/* MSP Init */

void HAL_PCD_MspInit(PCD_HandleTypeDef* pcdHandle)
{
   0:	f8d0 03b4 	ldr.w	r0, [r0, #948]	; 0x3b4
  GPIO_InitTypeDef GPIO_InitStruct;
  if(pcdHandle->Instance==USB_OTG_HS)
   4:	f7ff bffe 	b.w	0 <USBD_LL_DevConnected>

Disassembly of section .text.HAL_PCD_DisconnectCallback:

00000000 <HAL_PCD_DisconnectCallback>:
                       LL Driver Callbacks (PCD -> USB Device Library)
*******************************************************************************/
/* MSP Init */

void HAL_PCD_MspInit(PCD_HandleTypeDef* pcdHandle)
{
   0:	f8d0 03b4 	ldr.w	r0, [r0, #948]	; 0x3b4
  GPIO_InitTypeDef GPIO_InitStruct;
  if(pcdHandle->Instance==USB_OTG_HS)
   4:	f7ff bffe 	b.w	0 <USBD_LL_DevDisconnected>

Disassembly of section .text.USBD_LL_Init:

00000000 <USBD_LL_Init>:
                       LL Driver Callbacks (PCD -> USB Device Library)
*******************************************************************************/
/* MSP Init */

void HAL_PCD_MspInit(PCD_HandleTypeDef* pcdHandle)
{
   0:	b570      	push	{r4, r5, r6, lr}
  GPIO_InitTypeDef GPIO_InitStruct;
  if(pcdHandle->Instance==USB_OTG_HS)
   2:	7806      	ldrb	r6, [r0, #0]
   4:	2e01      	cmp	r6, #1
   6:	d12f      	bne.n	68 <USBD_LL_Init+0x68>
                       LL Driver Callbacks (PCD -> USB Device Library)
*******************************************************************************/
/* MSP Init */

void HAL_PCD_MspInit(PCD_HandleTypeDef* pcdHandle)
{
   8:	4c18      	ldr	r4, [pc, #96]	; (6c <USBD_LL_Init+0x6c>)
  GPIO_InitTypeDef GPIO_InitStruct;
  if(pcdHandle->Instance==USB_OTG_HS)
   a:	4a19      	ldr	r2, [pc, #100]	; (70 <USBD_LL_Init+0x70>)
    {
      /* USER CODE BEGIN USB_OTG_HS_MspInit 0 */

      /* USER CODE END USB_OTG_HS_MspInit 0 */
      
      if(externalPhy)
   c:	f8c4 03b4 	str.w	r0, [r4, #948]	; 0x3b4
  10:	230b      	movs	r3, #11
  12:	e884 000c 	stmia.w	r4, {r2, r3}
	     PB13     ------> USB_OTG_HS_ULPI_D6
	     PB5     ------> USB_OTG_HS_ULPI_D7 
	  */
	  GPIO_InitStruct.Pin = GPIO_PIN_0|GPIO_PIN_2|GPIO_PIN_3;
	  GPIO_InitStruct.Mode = GPIO_MODE_AF_PP;
	  GPIO_InitStruct.Pull = GPIO_NOPULL;
  16:	4b17      	ldr	r3, [pc, #92]	; (74 <USBD_LL_Init+0x74>)
	     PB11     ------> USB_OTG_HS_ULPI_D4
	     PB12     ------> USB_OTG_HS_ULPI_D5
	     PB13     ------> USB_OTG_HS_ULPI_D6
	     PB5     ------> USB_OTG_HS_ULPI_D7 
	  */
	  GPIO_InitStruct.Pin = GPIO_PIN_0|GPIO_PIN_2|GPIO_PIN_3;
  18:	f8c0 4220 	str.w	r4, [r0, #544]	; 0x220
	  GPIO_InitStruct.Mode = GPIO_MODE_AF_PP;
	  GPIO_InitStruct.Pull = GPIO_NOPULL;
	  GPIO_InitStruct.Speed = GPIO_SPEED_FREQ_VERY_HIGH;
	  GPIO_InitStruct.Alternate = GPIO_AF10_OTG_HS;
  1c:	681b      	ldr	r3, [r3, #0]
	  HAL_GPIO_Init(GPIOC, &GPIO_InitStruct);
  1e:	61e6      	str	r6, [r4, #28]
  20:	2500      	movs	r5, #0
	     PB11     ------> USB_OTG_HS_ULPI_D4
	     PB12     ------> USB_OTG_HS_ULPI_D5
	     PB13     ------> USB_OTG_HS_ULPI_D6
	     PB5     ------> USB_OTG_HS_ULPI_D7 
	  */
	  GPIO_InitStruct.Pin = GPIO_PIN_0|GPIO_PIN_2|GPIO_PIN_3;
  22:	42ab      	cmp	r3, r5
	  GPIO_InitStruct.Mode = GPIO_MODE_AF_PP;
  24:	bf14      	ite	ne
	  GPIO_InitStruct.Pull = GPIO_NOPULL;
  26:	462b      	movne	r3, r5
	  GPIO_InitStruct.Speed = GPIO_SPEED_FREQ_VERY_HIGH;
  28:	2302      	moveq	r3, #2
	  GPIO_InitStruct.Alternate = GPIO_AF10_OTG_HS;
  2a:	60e3      	str	r3, [r4, #12]
	  HAL_GPIO_Init(GPIOC, &GPIO_InitStruct);
  2c:	4620      	mov	r0, r4
  2e:	bf14      	ite	ne
	  
	  GPIO_InitStruct.Pin = GPIO_PIN_3|GPIO_PIN_5;
  30:	2301      	movne	r3, #1
	  GPIO_InitStruct.Mode = GPIO_MODE_AF_PP;
	  GPIO_InitStruct.Pull = GPIO_NOPULL;
	  GPIO_InitStruct.Speed = GPIO_SPEED_FREQ_VERY_HIGH;
	  GPIO_InitStruct.Alternate = GPIO_AF10_OTG_HS;
	  HAL_GPIO_Init(GPIOA, &GPIO_InitStruct);
  32:	2302      	moveq	r3, #2
  34:	61a3      	str	r3, [r4, #24]
	  GPIO_InitStruct.Pull = GPIO_NOPULL;
	  GPIO_InitStruct.Speed = GPIO_SPEED_FREQ_VERY_HIGH;
	  GPIO_InitStruct.Alternate = GPIO_AF10_OTG_HS;
	  HAL_GPIO_Init(GPIOC, &GPIO_InitStruct);
	  
	  GPIO_InitStruct.Pin = GPIO_PIN_3|GPIO_PIN_5;
  36:	6125      	str	r5, [r4, #16]
	  GPIO_InitStruct.Mode = GPIO_MODE_AF_PP;
  38:	6165      	str	r5, [r4, #20]
	  GPIO_InitStruct.Pull = GPIO_NOPULL;
  3a:	6225      	str	r5, [r4, #32]
	  GPIO_InitStruct.Speed = GPIO_SPEED_FREQ_VERY_HIGH;
  3c:	6265      	str	r5, [r4, #36]	; 0x24
	  GPIO_InitStruct.Alternate = GPIO_AF10_OTG_HS;
  3e:	62e5      	str	r5, [r4, #44]	; 0x2c
	  HAL_GPIO_Init(GPIOA, &GPIO_InitStruct);
  40:	6325      	str	r5, [r4, #48]	; 0x30
  42:	6365      	str	r5, [r4, #52]	; 0x34
	    GPIO_InitStruct.Pull = GPIO_NOPULL;
	    GPIO_InitStruct.Speed = GPIO_SPEED_FREQ_VERY_HIGH;
	    GPIO_InitStruct.Alternate = GPIO_AF12_OTG_HS_FS;
	    HAL_GPIO_Init(GPIOA, &GPIO_InitStruct);
	  */
	  GPIO_InitStruct.Pin = GPIO_PIN_0|GPIO_PIN_1|GPIO_PIN_10|GPIO_PIN_11 
  44:	f7ff fffe 	bl	0 <HAL_PCD_Init>
      |GPIO_PIN_12|GPIO_PIN_13|GPIO_PIN_5;
    GPIO_InitStruct.Mode = GPIO_MODE_AF_PP;
    GPIO_InitStruct.Pull = GPIO_NOPULL;
    GPIO_InitStruct.Speed = GPIO_SPEED_FREQ_VERY_HIGH;
    GPIO_InitStruct.Alternate = GPIO_AF10_OTG_HS;
      HAL_GPIO_Init(GPIOB, &GPIO_InitStruct);
  48:	f44f 7100 	mov.w	r1, #512	; 0x200
	    GPIO_InitStruct.Pull = GPIO_NOPULL;
	    GPIO_InitStruct.Speed = GPIO_SPEED_FREQ_VERY_HIGH;
	    GPIO_InitStruct.Alternate = GPIO_AF12_OTG_HS_FS;
	    HAL_GPIO_Init(GPIOA, &GPIO_InitStruct);
	  */
	  GPIO_InitStruct.Pin = GPIO_PIN_0|GPIO_PIN_1|GPIO_PIN_10|GPIO_PIN_11 
  4c:	4620      	mov	r0, r4
      |GPIO_PIN_12|GPIO_PIN_13|GPIO_PIN_5;
    GPIO_InitStruct.Mode = GPIO_MODE_AF_PP;
  4e:	f7ff fffe 	bl	0 <HAL_PCDEx_SetRxFiFo>
    GPIO_InitStruct.Pull = GPIO_NOPULL;
    GPIO_InitStruct.Speed = GPIO_SPEED_FREQ_VERY_HIGH;
  52:	2280      	movs	r2, #128	; 0x80
    GPIO_InitStruct.Alternate = GPIO_AF10_OTG_HS;
  54:	4629      	mov	r1, r5
      HAL_GPIO_Init(GPIOB, &GPIO_InitStruct);
  56:	4620      	mov	r0, r4
  58:	f7ff fffe 	bl	0 <HAL_PCDEx_SetTxFiFo>

      /* Peripheral clock enable */
      __HAL_RCC_USB_OTG_HS_CLK_ENABLE();
  5c:	f44f 72ba 	mov.w	r2, #372	; 0x174
  60:	4631      	mov	r1, r6
  62:	4620      	mov	r0, r4
  64:	f7ff fffe 	bl	0 <HAL_PCDEx_SetTxFiFo>
  68:	2000      	movs	r0, #0
  6a:	bd70      	pop	{r4, r5, r6, pc}
  6c:	00000000 	.word	0x00000000
    __HAL_RCC_USB_OTG_HS_ULPI_CLK_ENABLE();
  70:	40040000 	.word	0x40040000
  74:	00000000 	.word	0x00000000

Disassembly of section .text.USBD_LL_DeInit:

00000000 <USBD_LL_DeInit>:
                       LL Driver Callbacks (PCD -> USB Device Library)
*******************************************************************************/
/* MSP Init */

void HAL_PCD_MspInit(PCD_HandleTypeDef* pcdHandle)
{
   0:	b508      	push	{r3, lr}
  GPIO_InitTypeDef GPIO_InitStruct;
  if(pcdHandle->Instance==USB_OTG_HS)
   2:	f8d0 0220 	ldr.w	r0, [r0, #544]	; 0x220
   6:	f7ff fffe 	bl	0 <HAL_PCD_DeInit>
   a:	2000      	movs	r0, #0
    {
      /* USER CODE BEGIN USB_OTG_HS_MspInit 0 */

      /* USER CODE END USB_OTG_HS_MspInit 0 */
      
      if(externalPhy)
   c:	bd08      	pop	{r3, pc}

Disassembly of section .text.USBD_LL_Start:

00000000 <USBD_LL_Start>:
                       LL Driver Callbacks (PCD -> USB Device Library)
*******************************************************************************/
/* MSP Init */

void HAL_PCD_MspInit(PCD_HandleTypeDef* pcdHandle)
{
   0:	b508      	push	{r3, lr}
  GPIO_InitTypeDef GPIO_InitStruct;
  if(pcdHandle->Instance==USB_OTG_HS)
   2:	f8d0 0220 	ldr.w	r0, [r0, #544]	; 0x220
   6:	f7ff fffe 	bl	0 <HAL_PCD_Start>
   a:	2000      	movs	r0, #0
    {
      /* USER CODE BEGIN USB_OTG_HS_MspInit 0 */

      /* USER CODE END USB_OTG_HS_MspInit 0 */
      
      if(externalPhy)
   c:	bd08      	pop	{r3, pc}

Disassembly of section .text.USBD_LL_Stop:

00000000 <USBD_LL_Stop>:
                       LL Driver Callbacks (PCD -> USB Device Library)
*******************************************************************************/
/* MSP Init */

void HAL_PCD_MspInit(PCD_HandleTypeDef* pcdHandle)
{
   0:	b508      	push	{r3, lr}
  GPIO_InitTypeDef GPIO_InitStruct;
  if(pcdHandle->Instance==USB_OTG_HS)
   2:	f8d0 0220 	ldr.w	r0, [r0, #544]	; 0x220
   6:	f7ff fffe 	bl	0 <HAL_PCD_Stop>
   a:	2000      	movs	r0, #0
    {
      /* USER CODE BEGIN USB_OTG_HS_MspInit 0 */

      /* USER CODE END USB_OTG_HS_MspInit 0 */
      
      if(externalPhy)
   c:	bd08      	pop	{r3, pc}

Disassembly of section .text.USBD_LL_OpenEP:

00000000 <USBD_LL_OpenEP>:
                       LL Driver Callbacks (PCD -> USB Device Library)
*******************************************************************************/
/* MSP Init */

void HAL_PCD_MspInit(PCD_HandleTypeDef* pcdHandle)
{
   0:	b510      	push	{r4, lr}
  GPIO_InitTypeDef GPIO_InitStruct;
  if(pcdHandle->Instance==USB_OTG_HS)
   2:	461c      	mov	r4, r3
   4:	f8d0 0220 	ldr.w	r0, [r0, #544]	; 0x220
                       LL Driver Callbacks (PCD -> USB Device Library)
*******************************************************************************/
/* MSP Init */

void HAL_PCD_MspInit(PCD_HandleTypeDef* pcdHandle)
{
   8:	4613      	mov	r3, r2
  GPIO_InitTypeDef GPIO_InitStruct;
  if(pcdHandle->Instance==USB_OTG_HS)
   a:	4622      	mov	r2, r4
    {
      /* USER CODE BEGIN USB_OTG_HS_MspInit 0 */

      /* USER CODE END USB_OTG_HS_MspInit 0 */
      
      if(externalPhy)
   c:	f7ff fffe 	bl	0 <HAL_PCD_EP_Open>
  10:	2000      	movs	r0, #0
  12:	bd10      	pop	{r4, pc}

Disassembly of section .text.USBD_LL_CloseEP:

00000000 <USBD_LL_CloseEP>:
                       LL Driver Callbacks (PCD -> USB Device Library)
*******************************************************************************/
/* MSP Init */

void HAL_PCD_MspInit(PCD_HandleTypeDef* pcdHandle)
{
   0:	b508      	push	{r3, lr}
  GPIO_InitTypeDef GPIO_InitStruct;
  if(pcdHandle->Instance==USB_OTG_HS)
   2:	f8d0 0220 	ldr.w	r0, [r0, #544]	; 0x220
   6:	f7ff fffe 	bl	0 <HAL_PCD_EP_Close>
   a:	2000      	movs	r0, #0
    {
      /* USER CODE BEGIN USB_OTG_HS_MspInit 0 */

      /* USER CODE END USB_OTG_HS_MspInit 0 */
      
      if(externalPhy)
   c:	bd08      	pop	{r3, pc}

Disassembly of section .text.USBD_LL_FlushEP:

00000000 <USBD_LL_FlushEP>:
                       LL Driver Callbacks (PCD -> USB Device Library)
*******************************************************************************/
/* MSP Init */

void HAL_PCD_MspInit(PCD_HandleTypeDef* pcdHandle)
{
   0:	b508      	push	{r3, lr}
  GPIO_InitTypeDef GPIO_InitStruct;
  if(pcdHandle->Instance==USB_OTG_HS)
   2:	f8d0 0220 	ldr.w	r0, [r0, #544]	; 0x220
   6:	f7ff fffe 	bl	0 <HAL_PCD_EP_Flush>
   a:	2000      	movs	r0, #0
    {
      /* USER CODE BEGIN USB_OTG_HS_MspInit 0 */

      /* USER CODE END USB_OTG_HS_MspInit 0 */
      
      if(externalPhy)
   c:	bd08      	pop	{r3, pc}

Disassembly of section .text.USBD_LL_StallEP:

00000000 <USBD_LL_StallEP>:
                       LL Driver Callbacks (PCD -> USB Device Library)
*******************************************************************************/
/* MSP Init */

void HAL_PCD_MspInit(PCD_HandleTypeDef* pcdHandle)
{
   0:	b508      	push	{r3, lr}
  GPIO_InitTypeDef GPIO_InitStruct;
  if(pcdHandle->Instance==USB_OTG_HS)
   2:	f8d0 0220 	ldr.w	r0, [r0, #544]	; 0x220
   6:	f7ff fffe 	bl	0 <HAL_PCD_EP_SetStall>
   a:	2000      	movs	r0, #0
    {
      /* USER CODE BEGIN USB_OTG_HS_MspInit 0 */

      /* USER CODE END USB_OTG_HS_MspInit 0 */
      
      if(externalPhy)
   c:	bd08      	pop	{r3, pc}

Disassembly of section .text.USBD_LL_ClearStallEP:

00000000 <USBD_LL_ClearStallEP>:
                       LL Driver Callbacks (PCD -> USB Device Library)
*******************************************************************************/
/* MSP Init */

void HAL_PCD_MspInit(PCD_HandleTypeDef* pcdHandle)
{
   0:	b508      	push	{r3, lr}
  GPIO_InitTypeDef GPIO_InitStruct;
  if(pcdHandle->Instance==USB_OTG_HS)
   2:	f8d0 0220 	ldr.w	r0, [r0, #544]	; 0x220
   6:	f7ff fffe 	bl	0 <HAL_PCD_EP_ClrStall>
   a:	2000      	movs	r0, #0
    {
      /* USER CODE BEGIN USB_OTG_HS_MspInit 0 */

      /* USER CODE END USB_OTG_HS_MspInit 0 */
      
      if(externalPhy)
   c:	bd08      	pop	{r3, pc}

Disassembly of section .text.USBD_LL_IsStallEP:

00000000 <USBD_LL_IsStallEP>:
                       LL Driver Callbacks (PCD -> USB Device Library)
*******************************************************************************/
/* MSP Init */

void HAL_PCD_MspInit(PCD_HandleTypeDef* pcdHandle)
{
   0:	f011 0f80 	tst.w	r1, #128	; 0x80
  GPIO_InitTypeDef GPIO_InitStruct;
  if(pcdHandle->Instance==USB_OTG_HS)
   4:	f8d0 2220 	ldr.w	r2, [r0, #544]	; 0x220
                       LL Driver Callbacks (PCD -> USB Device Library)
*******************************************************************************/
/* MSP Init */

void HAL_PCD_MspInit(PCD_HandleTypeDef* pcdHandle)
{
   8:	bf18      	it	ne
  GPIO_InitTypeDef GPIO_InitStruct;
  if(pcdHandle->Instance==USB_OTG_HS)
   a:	f001 037f 	andne.w	r3, r1, #127	; 0x7f
    {
      /* USER CODE BEGIN USB_OTG_HS_MspInit 0 */

      /* USER CODE END USB_OTG_HS_MspInit 0 */
      
      if(externalPhy)
   e:	f04f 001c 	mov.w	r0, #28
  12:	bf15      	itete	ne
  14:	fb00 2103 	mlane	r1, r0, r3, r2
	     PB11     ------> USB_OTG_HS_ULPI_D4
	     PB12     ------> USB_OTG_HS_ULPI_D5
	     PB13     ------> USB_OTG_HS_ULPI_D6
	     PB5     ------> USB_OTG_HS_ULPI_D7 
	  */
	  GPIO_InitStruct.Pin = GPIO_PIN_0|GPIO_PIN_2|GPIO_PIN_3;
  18:	fb00 2101 	mlaeq	r1, r0, r1, r2
	  GPIO_InitStruct.Mode = GPIO_MODE_AF_PP;
	  GPIO_InitStruct.Pull = GPIO_NOPULL;
	  GPIO_InitStruct.Speed = GPIO_SPEED_FREQ_VERY_HIGH;
	  GPIO_InitStruct.Alternate = GPIO_AF10_OTG_HS;
  1c:	f891 003a 	ldrbne.w	r0, [r1, #58]	; 0x3a
	  HAL_GPIO_Init(GPIOC, &GPIO_InitStruct);
  20:	f891 01de 	ldrbeq.w	r0, [r1, #478]	; 0x1de
	     PB12     ------> USB_OTG_HS_ULPI_D5
	     PB13     ------> USB_OTG_HS_ULPI_D6
	     PB5     ------> USB_OTG_HS_ULPI_D7 
	  */
	  GPIO_InitStruct.Pin = GPIO_PIN_0|GPIO_PIN_2|GPIO_PIN_3;
	  GPIO_InitStruct.Mode = GPIO_MODE_AF_PP;
  24:	4770      	bx	lr

Disassembly of section .text.USBD_LL_SetUSBAddress:

00000000 <USBD_LL_SetUSBAddress>:
                       LL Driver Callbacks (PCD -> USB Device Library)
*******************************************************************************/
/* MSP Init */

void HAL_PCD_MspInit(PCD_HandleTypeDef* pcdHandle)
{
   0:	b508      	push	{r3, lr}
  GPIO_InitTypeDef GPIO_InitStruct;
  if(pcdHandle->Instance==USB_OTG_HS)
   2:	f8d0 0220 	ldr.w	r0, [r0, #544]	; 0x220
   6:	f7ff fffe 	bl	0 <HAL_PCD_SetAddress>
   a:	2000      	movs	r0, #0
    {
      /* USER CODE BEGIN USB_OTG_HS_MspInit 0 */

      /* USER CODE END USB_OTG_HS_MspInit 0 */
      
      if(externalPhy)
   c:	bd08      	pop	{r3, pc}

Disassembly of section .text.USBD_LL_Transmit:

00000000 <USBD_LL_Transmit>:
                       LL Driver Callbacks (PCD -> USB Device Library)
*******************************************************************************/
/* MSP Init */

void HAL_PCD_MspInit(PCD_HandleTypeDef* pcdHandle)
{
   0:	b508      	push	{r3, lr}
  GPIO_InitTypeDef GPIO_InitStruct;
  if(pcdHandle->Instance==USB_OTG_HS)
   2:	f8d0 0220 	ldr.w	r0, [r0, #544]	; 0x220
   6:	f7ff fffe 	bl	0 <HAL_PCD_EP_Transmit>
   a:	2000      	movs	r0, #0
    {
      /* USER CODE BEGIN USB_OTG_HS_MspInit 0 */

      /* USER CODE END USB_OTG_HS_MspInit 0 */
      
      if(externalPhy)
   c:	bd08      	pop	{r3, pc}

Disassembly of section .text.USBD_LL_PrepareReceive:

00000000 <USBD_LL_PrepareReceive>:
                       LL Driver Callbacks (PCD -> USB Device Library)
*******************************************************************************/
/* MSP Init */

void HAL_PCD_MspInit(PCD_HandleTypeDef* pcdHandle)
{
   0:	b508      	push	{r3, lr}
  GPIO_InitTypeDef GPIO_InitStruct;
  if(pcdHandle->Instance==USB_OTG_HS)
   2:	f8d0 0220 	ldr.w	r0, [r0, #544]	; 0x220
   6:	f7ff fffe 	bl	0 <HAL_PCD_EP_Receive>
   a:	2000      	movs	r0, #0
    {
      /* USER CODE BEGIN USB_OTG_HS_MspInit 0 */

      /* USER CODE END USB_OTG_HS_MspInit 0 */
      
      if(externalPhy)
   c:	bd08      	pop	{r3, pc}

Disassembly of section .text.USBD_LL_GetRxDataSize:

00000000 <USBD_LL_GetRxDataSize>:
                       LL Driver Callbacks (PCD -> USB Device Library)
*******************************************************************************/
/* MSP Init */

void HAL_PCD_MspInit(PCD_HandleTypeDef* pcdHandle)
{
   0:	b508      	push	{r3, lr}
  GPIO_InitTypeDef GPIO_InitStruct;
  if(pcdHandle->Instance==USB_OTG_HS)
   2:	f8d0 0220 	ldr.w	r0, [r0, #544]	; 0x220
   6:	f7ff fffe 	bl	0 <HAL_PCD_EP_GetRxCount>
   a:	bd08      	pop	{r3, pc}

Disassembly of section .text.USBD_LL_Delay:

00000000 <USBD_LL_Delay>:
                       LL Driver Callbacks (PCD -> USB Device Library)
*******************************************************************************/
/* MSP Init */

void HAL_PCD_MspInit(PCD_HandleTypeDef* pcdHandle)
{
   0:	f7ff bffe 	b.w	0 <HAL_Delay>

usbd_desc.o:     file format elf32-littlearm


Disassembly of section .text.USBD_HS_DeviceDescriptor:

00000000 <USBD_HS_DeviceDescriptor>:
* @param  length : pointer to data length variable
* @retval pointer to descriptor buffer
*/
uint8_t *  USBD_HS_DeviceDescriptor( USBD_SpeedTypeDef speed , uint16_t *length)
{
  *length = sizeof(USBD_HS_DeviceDesc);
   0:	2312      	movs	r3, #18
   2:	800b      	strh	r3, [r1, #0]
   4:	4800      	ldr	r0, [pc, #0]	; (8 <USBD_HS_DeviceDescriptor+0x8>)
   6:	4770      	bx	lr
   8:	00000000 	.word	0x00000000

Disassembly of section .text.USBD_HS_LangIDStrDescriptor:

00000000 <USBD_HS_LangIDStrDescriptor>:
   0:	2304      	movs	r3, #4
   2:	800b      	strh	r3, [r1, #0]
   4:	4800      	ldr	r0, [pc, #0]	; (8 <USBD_HS_LangIDStrDescriptor+0x8>)
   6:	4770      	bx	lr
   8:	00000014 	.word	0x00000014

Disassembly of section .text.USBD_HS_ManufacturerStrDescriptor:

00000000 <USBD_HS_ManufacturerStrDescriptor>:
   0:	b510      	push	{r4, lr}
   2:	4c04      	ldr	r4, [pc, #16]	; (14 <USBD_HS_ManufacturerStrDescriptor+0x14>)
   4:	4804      	ldr	r0, [pc, #16]	; (18 <USBD_HS_ManufacturerStrDescriptor+0x18>)
   6:	460a      	mov	r2, r1
   8:	4621      	mov	r1, r4
   a:	f7ff fffe 	bl	0 <USBD_GetString>
   e:	4620      	mov	r0, r4
  10:	bd10      	pop	{r4, pc}
  12:	bf00      	nop
	...

Disassembly of section .text.USBD_HS_SerialStrDescriptor:

00000000 <USBD_HS_SerialStrDescriptor>:
   0:	e92d 47f0 	stmdb	sp!, {r4, r5, r6, r7, r8, r9, sl, lr}
   4:	4b24      	ldr	r3, [pc, #144]	; (98 <USBD_HS_SerialStrDescriptor+0x98>)
   6:	b08e      	sub	sp, #56	; 0x38
   8:	e9d3 4500 	ldrd	r4, r5, [r3]
   c:	4b23      	ldr	r3, [pc, #140]	; (9c <USBD_HS_SerialStrDescriptor+0x9c>)
   e:	aa01      	add	r2, sp, #4
  10:	460e      	mov	r6, r1
  12:	f103 0c10 	add.w	ip, r3, #16
  16:	4617      	mov	r7, r2
  18:	6818      	ldr	r0, [r3, #0]
  1a:	6859      	ldr	r1, [r3, #4]
  1c:	4696      	mov	lr, r2
  1e:	e8ae 0003 	stmia.w	lr!, {r0, r1}
  22:	3308      	adds	r3, #8
  24:	4563      	cmp	r3, ip
  26:	4672      	mov	r2, lr
  28:	d1f6      	bne.n	18 <USBD_HS_SerialStrDescriptor+0x18>
  2a:	781b      	ldrb	r3, [r3, #0]
  2c:	f88e 3000 	strb.w	r3, [lr]
  30:	4b1b      	ldr	r3, [pc, #108]	; (a0 <USBD_HS_SerialStrDescriptor+0xa0>)
  32:	aa06      	add	r2, sp, #24
  34:	f103 0c10 	add.w	ip, r3, #16
  return USBD_HS_DeviceDesc;
}
  38:	4691      	mov	r9, r2
  3a:	6818      	ldr	r0, [r3, #0]
  3c:	6859      	ldr	r1, [r3, #4]
  3e:	4696      	mov	lr, r2
* @param  length : pointer to data length variable
* @retval pointer to descriptor buffer
*/
uint8_t *  USBD_HS_LangIDStrDescriptor( USBD_SpeedTypeDef speed , uint16_t *length)
{
  *length =  sizeof(USBD_LangIDDesc);  
  40:	e8ae 0003 	stmia.w	lr!, {r0, r1}
  return USBD_LangIDDesc;
}
  44:	3308      	adds	r3, #8
  46:	4563      	cmp	r3, ip
  48:	4672      	mov	r2, lr
  4a:	d1f6      	bne.n	3a <USBD_HS_SerialStrDescriptor+0x3a>
* @param  speed : current device speed
* @param  length : pointer to data length variable
* @retval pointer to descriptor buffer
*/
uint8_t *  USBD_HS_ManufacturerStrDescriptor( USBD_SpeedTypeDef speed , uint16_t *length)
{
  4c:	881b      	ldrh	r3, [r3, #0]
  USBD_GetString ((uint8_t *)USBD_MANUFACTURER_STRING, USBD_StrDesc, length);
  4e:	f8ae 3000 	strh.w	r3, [lr]
  52:	220e      	movs	r2, #14
  54:	2100      	movs	r1, #0
  56:	f10d 002a 	add.w	r0, sp, #42	; 0x2a
  return USBD_StrDesc;
}
  5a:	f7ff fffe 	bl	0 <memset>
  5e:	f10d 0a17 	add.w	sl, sp, #23
  62:	f04f 083c 	mov.w	r8, #60	; 0x3c
  66:	4642      	mov	r2, r8
* @param  speed : current device speed
* @param  length : pointer to data length variable
* @retval pointer to descriptor buffer
*/
uint8_t *  USBD_HS_SerialStrDescriptor( USBD_SpeedTypeDef speed , uint16_t *length)
{
  68:	4620      	mov	r0, r4
  6a:	4629      	mov	r1, r5
  volatile uint64_t *puid = (void*)0x1FFF7A10;
  uint64_t uid = *puid;
  6c:	f7ff fffe 	bl	0 <__aeabi_llsr>
  70:	f000 000f 	and.w	r0, r0, #15
  const char dtostr[]="0123456789ABCDEF";
  74:	4438      	add	r0, r7
  76:	f1a8 0804 	sub.w	r8, r8, #4
  7a:	7803      	ldrb	r3, [r0, #0]
  7c:	f80a 3f01 	strb.w	r3, [sl, #1]!
  80:	f118 0f04 	cmn.w	r8, #4
  84:	d1ef      	bne.n	66 <USBD_HS_SerialStrDescriptor+0x66>
  86:	4648      	mov	r0, r9
  88:	4632      	mov	r2, r6
  8a:	4906      	ldr	r1, [pc, #24]	; (a4 <USBD_HS_SerialStrDescriptor+0xa4>)
  8c:	f7ff fffe 	bl	0 <USBD_GetString>
  90:	4804      	ldr	r0, [pc, #16]	; (a4 <USBD_HS_SerialStrDescriptor+0xa4>)
  92:	b00e      	add	sp, #56	; 0x38
  94:	e8bd 87f0 	ldmia.w	sp!, {r4, r5, r6, r7, r8, r9, sl, pc}
  char str[32] = "                 ";
  98:	1fff7a10 	.word	0x1fff7a10
  9c:	00000001 	.word	0x00000001
	...

Disassembly of section .text.USBD_HS_ProductStrDescriptor:

00000000 <USBD_HS_ProductStrDescriptor>:
   0:	b510      	push	{r4, lr}
   2:	4c04      	ldr	r4, [pc, #16]	; (14 <USBD_HS_ProductStrDescriptor+0x14>)
   4:	4804      	ldr	r0, [pc, #16]	; (18 <USBD_HS_ProductStrDescriptor+0x18>)
   6:	460a      	mov	r2, r1
   8:	4621      	mov	r1, r4
   a:	f7ff fffe 	bl	0 <USBD_GetString>
   e:	4620      	mov	r0, r4
  10:	bd10      	pop	{r4, pc}
  12:	bf00      	nop
  14:	00000000 	.word	0x00000000
  18:	00000012 	.word	0x00000012

Disassembly of section .text.USBD_HS_ConfigStrDescriptor:

00000000 <USBD_HS_ConfigStrDescriptor>:
   0:	b510      	push	{r4, lr}
   2:	4c04      	ldr	r4, [pc, #16]	; (14 <USBD_HS_ConfigStrDescriptor+0x14>)
   4:	4804      	ldr	r0, [pc, #16]	; (18 <USBD_HS_ConfigStrDescriptor+0x18>)
   6:	460a      	mov	r2, r1
   8:	4621      	mov	r1, r4
   a:	f7ff fffe 	bl	0 <USBD_GetString>
   e:	4620      	mov	r0, r4
  10:	bd10      	pop	{r4, pc}
  12:	bf00      	nop
  14:	00000000 	.word	0x00000000
  18:	00000024 	.word	0x00000024

Disassembly of section .text.USBD_HS_InterfaceStrDescriptor:

00000000 <USBD_HS_InterfaceStrDescriptor>:
   0:	b510      	push	{r4, lr}
   2:	4c04      	ldr	r4, [pc, #16]	; (14 <USBD_HS_InterfaceStrDescriptor+0x14>)
   4:	4804      	ldr	r0, [pc, #16]	; (18 <USBD_HS_InterfaceStrDescriptor+0x18>)
   6:	460a      	mov	r2, r1
   8:	4621      	mov	r1, r4
   a:	f7ff fffe 	bl	0 <USBD_GetString>
   e:	4620      	mov	r0, r4
  10:	bd10      	pop	{r4, pc}
  12:	bf00      	nop
  14:	00000000 	.word	0x00000000
  18:	00000031 	.word	0x00000031

stm32f4xx_it.o:     file format elf32-littlearm


Disassembly of section .text.OTG_HS_IRQHandler:

00000000 <OTG_HS_IRQHandler>:
void OTG_HS_IRQHandler(void)
{
  /* USER CODE BEGIN OTG_HS_IRQn 0 */

  /* USER CODE END OTG_HS_IRQn 0 */
  HAL_PCD_IRQHandler(&hpcd_USB_OTG_HS);
   0:	4801      	ldr	r0, [pc, #4]	; (8 <OTG_HS_IRQHandler+0x8>)
   2:	f7ff bffe 	b.w	0 <HAL_PCD_IRQHandler>
   6:	bf00      	nop
   8:	00000000 	.word	0x00000000

stm32f4xx_hal_msp.o:     file format elf32-littlearm


Disassembly of section .text.HAL_MspInit:

00000000 <HAL_MspInit>:

/**
  * Initializes the Global MSP.
  */
void HAL_MspInit(void)
{
   0:	4770      	bx	lr

main.o:     file format elf32-littlearm


Disassembly of section .text.libUSBStartup:

00000000 <libUSBStartup>:

/* USER CODE END 0 */
int externalPhy = 0;
int libUSBStartup(int ulpi);
int libUSBStartup(int ulpi)
{
   0:	b51f      	push	{r0, r1, r2, r3, r4, lr}
   2:	4b19      	ldr	r3, [pc, #100]	; (68 <libUSBStartup+0x68>)
   4:	2200      	movs	r2, #0
  externalPhy = ulpi;
   6:	6018      	str	r0, [r3, #0]
*/
static void MX_GPIO_Init(void)
{

  /* GPIO Ports Clock Enable */
  __HAL_RCC_GPIOH_CLK_ENABLE();
   8:	4b18      	ldr	r3, [pc, #96]	; (6c <libUSBStartup+0x6c>)
/* USER CODE END 0 */
int externalPhy = 0;
int libUSBStartup(int ulpi);
int libUSBStartup(int ulpi)
{
  externalPhy = ulpi;
   a:	9200      	str	r2, [sp, #0]
*/
static void MX_GPIO_Init(void)
{

  /* GPIO Ports Clock Enable */
  __HAL_RCC_GPIOH_CLK_ENABLE();
   c:	6b19      	ldr	r1, [r3, #48]	; 0x30
   e:	f041 0180 	orr.w	r1, r1, #128	; 0x80
  12:	6319      	str	r1, [r3, #48]	; 0x30
  14:	6b19      	ldr	r1, [r3, #48]	; 0x30
  16:	f001 0180 	and.w	r1, r1, #128	; 0x80
  1a:	9100      	str	r1, [sp, #0]
  1c:	9900      	ldr	r1, [sp, #0]
  1e:	9201      	str	r2, [sp, #4]
  20:	6b19      	ldr	r1, [r3, #48]	; 0x30
  __HAL_RCC_GPIOC_CLK_ENABLE();
  22:	f041 0104 	orr.w	r1, r1, #4
  26:	6319      	str	r1, [r3, #48]	; 0x30
  28:	6b19      	ldr	r1, [r3, #48]	; 0x30
  2a:	f001 0104 	and.w	r1, r1, #4
  2e:	9101      	str	r1, [sp, #4]
  30:	9901      	ldr	r1, [sp, #4]
  32:	9202      	str	r2, [sp, #8]
  34:	6b19      	ldr	r1, [r3, #48]	; 0x30
  __HAL_RCC_GPIOA_CLK_ENABLE();
  36:	f041 0101 	orr.w	r1, r1, #1
  3a:	6319      	str	r1, [r3, #48]	; 0x30
  3c:	6b19      	ldr	r1, [r3, #48]	; 0x30
  3e:	f001 0101 	and.w	r1, r1, #1
  42:	9102      	str	r1, [sp, #8]
  44:	9902      	ldr	r1, [sp, #8]
  46:	9203      	str	r2, [sp, #12]
  48:	6b1a      	ldr	r2, [r3, #48]	; 0x30
  __HAL_RCC_GPIOB_CLK_ENABLE();
  4a:	f042 0202 	orr.w	r2, r2, #2
  4e:	631a      	str	r2, [r3, #48]	; 0x30
  50:	6b1b      	ldr	r3, [r3, #48]	; 0x30
  52:	f003 0302 	and.w	r3, r3, #2
  56:	9303      	str	r3, [sp, #12]
  58:	9b03      	ldr	r3, [sp, #12]
  5a:	f7ff fffe 	bl	0 <MX_USB_DEVICE_Init>
  /* Configure the system clock */
  //  SystemClock_Config();

  /* Initialize all configured peripherals */
  MX_GPIO_Init();
  MX_USB_DEVICE_Init();
  5e:	2001      	movs	r0, #1
  60:	b005      	add	sp, #20

  /* Infinite loop */
  /* USER CODE BEGIN WHILE */
  /* USER CODE END 3 */
  return 1;
}
  62:	f85d fb04 	ldr.w	pc, [sp], #4
  66:	bf00      	nop
  68:	00000000 	.word	0x00000000
  6c:	40023800 	.word	0x40023800

Disassembly of section .text.SystemClock_Config:

00000000 <SystemClock_Config>:
   0:	b530      	push	{r4, r5, lr}
   2:	b095      	sub	sp, #84	; 0x54

/* USER CODE END 0 */
int externalPhy = 0;
int libUSBStartup(int ulpi);
int libUSBStartup(int ulpi)
{
   4:	2400      	movs	r4, #0
  externalPhy = ulpi;
   6:	4b21      	ldr	r3, [pc, #132]	; (8c <SystemClock_Config+0x8c>)
*/
static void MX_GPIO_Init(void)
{

  /* GPIO Ports Clock Enable */
  __HAL_RCC_GPIOH_CLK_ENABLE();
   8:	9401      	str	r4, [sp, #4]
/* USER CODE END 0 */
int externalPhy = 0;
int libUSBStartup(int ulpi);
int libUSBStartup(int ulpi)
{
  externalPhy = ulpi;
   a:	6c1a      	ldr	r2, [r3, #64]	; 0x40
*/
static void MX_GPIO_Init(void)
{

  /* GPIO Ports Clock Enable */
  __HAL_RCC_GPIOH_CLK_ENABLE();
   c:	f042 5280 	orr.w	r2, r2, #268435456	; 0x10000000
  10:	641a      	str	r2, [r3, #64]	; 0x40
  12:	6c1b      	ldr	r3, [r3, #64]	; 0x40
  14:	4a1e      	ldr	r2, [pc, #120]	; (90 <SystemClock_Config+0x90>)
  16:	f003 5380 	and.w	r3, r3, #268435456	; 0x10000000
  1a:	9301      	str	r3, [sp, #4]
  1c:	9b01      	ldr	r3, [sp, #4]
  1e:	9402      	str	r4, [sp, #8]
  20:	6813      	ldr	r3, [r2, #0]
  __HAL_RCC_GPIOC_CLK_ENABLE();
  22:	f423 4340 	bic.w	r3, r3, #49152	; 0xc000
  26:	f443 4380 	orr.w	r3, r3, #16384	; 0x4000
  2a:	6013      	str	r3, [r2, #0]
  2c:	6813      	ldr	r3, [r2, #0]
  2e:	f403 4340 	and.w	r3, r3, #49152	; 0xc000
  32:	9302      	str	r3, [sp, #8]
  34:	9b02      	ldr	r3, [sp, #8]
  __HAL_RCC_GPIOA_CLK_ENABLE();
  36:	2301      	movs	r3, #1
  38:	9308      	str	r3, [sp, #32]
  3a:	9309      	str	r3, [sp, #36]	; 0x24
  3c:	f44f 0380 	mov.w	r3, #4194304	; 0x400000
  40:	930f      	str	r3, [sp, #60]	; 0x3c
  42:	230c      	movs	r3, #12
  44:	9310      	str	r3, [sp, #64]	; 0x40
  46:	23f0      	movs	r3, #240	; 0xf0
  48:	2502      	movs	r5, #2
  __HAL_RCC_GPIOB_CLK_ENABLE();
  4a:	9311      	str	r3, [sp, #68]	; 0x44
  4c:	a808      	add	r0, sp, #32
  4e:	2305      	movs	r3, #5
  50:	9313      	str	r3, [sp, #76]	; 0x4c
  52:	950e      	str	r5, [sp, #56]	; 0x38
  54:	9512      	str	r5, [sp, #72]	; 0x48
  56:	f7ff fffe 	bl	0 <HAL_RCC_OscConfig>
  5a:	230f      	movs	r3, #15
  5c:	4621      	mov	r1, r4
  /* Configure the system clock */
  //  SystemClock_Config();

  /* Initialize all configured peripherals */
  MX_GPIO_Init();
  MX_USB_DEVICE_Init();
  5e:	9303      	str	r3, [sp, #12]
  60:	a803      	add	r0, sp, #12

  /* Infinite loop */
  /* USER CODE BEGIN WHILE */
  /* USER CODE END 3 */
  return 1;
}
  62:	2390      	movs	r3, #144	; 0x90
  64:	9305      	str	r3, [sp, #20]
  66:	9504      	str	r5, [sp, #16]
  68:	9406      	str	r4, [sp, #24]
  6a:	9407      	str	r4, [sp, #28]
  6c:	f7ff fffe 	bl	0 <HAL_RCC_ClockConfig>
  70:	f7ff fffe 	bl	0 <HAL_RCC_GetHCLKFreq>

/** System Clock Configuration
*/
void SystemClock_Config(void)
{
  74:	f44f 737a 	mov.w	r3, #1000	; 0x3e8

  RCC_OscInitTypeDef RCC_OscInitStruct;
  RCC_ClkInitTypeDef RCC_ClkInitStruct;

  __HAL_RCC_PWR_CLK_ENABLE();
  78:	fbb0 f0f3 	udiv	r0, r0, r3
  7c:	f7ff fffe 	bl	0 <HAL_SYSTICK_Config>
  80:	2004      	movs	r0, #4
  82:	f7ff fffe 	bl	0 <HAL_SYSTICK_CLKSourceConfig>
  86:	b015      	add	sp, #84	; 0x54

  __HAL_PWR_VOLTAGESCALING_CONFIG(PWR_REGULATOR_VOLTAGE_SCALE3);
  88:	bd30      	pop	{r4, r5, pc}
{

  RCC_OscInitTypeDef RCC_OscInitStruct;
  RCC_ClkInitTypeDef RCC_ClkInitStruct;

  __HAL_RCC_PWR_CLK_ENABLE();
  8a:	bf00      	nop
  8c:	40023800 	.word	0x40023800
  90:	40007000 	.word	0x40007000

Disassembly of section .text.Error_Handler:

00000000 <Error_Handler>:
   0:	e7fe      	b.n	0 <Error_Handler>

stm32f4xx_hal.o:     file format elf32-littlearm


Disassembly of section .text.HAL_MspInit:

00000000 <HAL_MspInit>:
   0:	4770      	bx	lr

Disassembly of section .text.HAL_MspDeInit:

00000000 <HAL_MspDeInit>:
   0:	4770      	bx	lr

Disassembly of section .text.HAL_DeInit:

00000000 <HAL_DeInit>:
   0:	b510      	push	{r4, lr}
  */
HAL_StatusTypeDef HAL_Init(void)
{
  /* Configure Flash prefetch, Instruction cache, Data cache */ 
#if (INSTRUCTION_CACHE_ENABLE != 0U)
   __HAL_FLASH_INSTRUCTION_CACHE_ENABLE();
   2:	4b09      	ldr	r3, [pc, #36]	; (28 <HAL_DeInit+0x28>)
   4:	f04f 32ff 	mov.w	r2, #4294967295
   8:	2400      	movs	r4, #0
   a:	621a      	str	r2, [r3, #32]
#endif /* INSTRUCTION_CACHE_ENABLE */

#if (DATA_CACHE_ENABLE != 0U)
   __HAL_FLASH_DATA_CACHE_ENABLE();
   c:	621c      	str	r4, [r3, #32]
   e:	625a      	str	r2, [r3, #36]	; 0x24
  10:	625c      	str	r4, [r3, #36]	; 0x24
  12:	611a      	str	r2, [r3, #16]
#endif /* DATA_CACHE_ENABLE */

#if (PREFETCH_ENABLE != 0U)
  __HAL_FLASH_PREFETCH_BUFFER_ENABLE();
  14:	611c      	str	r4, [r3, #16]
  16:	615a      	str	r2, [r3, #20]
  18:	615c      	str	r4, [r3, #20]
  1a:	619a      	str	r2, [r3, #24]
#endif /* PREFETCH_ENABLE */

  /* Set Interrupt Group Priority */
  HAL_NVIC_SetPriorityGrouping(NVIC_PRIORITYGROUP_4);
  1c:	619c      	str	r4, [r3, #24]
  1e:	f7ff fffe 	bl	0 <HAL_DeInit>

  /* Use systick as time base source and configure 1ms tick (default clock after Reset is HSI) */
  HAL_InitTick(TICK_INT_PRIORITY);
  22:	4620      	mov	r0, r4
  24:	bd10      	pop	{r4, pc}
  26:	bf00      	nop
  
  /* Init the low level hardware */
  HAL_MspInit();
  28:	40023800 	.word	0x40023800

Disassembly of section .text.HAL_InitTick:

00000000 <HAL_InitTick>:
  *         need to ensure that the SysTick time base is always set to 1 millisecond
  *         to have correct HAL operation.
  * @retval HAL status
  */
HAL_StatusTypeDef HAL_Init(void)
{
   0:	b510      	push	{r4, lr}
  /* Configure Flash prefetch, Instruction cache, Data cache */ 
#if (INSTRUCTION_CACHE_ENABLE != 0U)
   __HAL_FLASH_INSTRUCTION_CACHE_ENABLE();
   2:	4b08      	ldr	r3, [pc, #32]	; (24 <HAL_InitTick+0x24>)
   4:	4604      	mov	r4, r0
   6:	6818      	ldr	r0, [r3, #0]
   8:	f44f 737a 	mov.w	r3, #1000	; 0x3e8
#endif /* INSTRUCTION_CACHE_ENABLE */

#if (DATA_CACHE_ENABLE != 0U)
   __HAL_FLASH_DATA_CACHE_ENABLE();
   c:	fbb0 f0f3 	udiv	r0, r0, r3
  10:	f7ff fffe 	bl	0 <HAL_SYSTICK_Config>
#endif /* DATA_CACHE_ENABLE */

#if (PREFETCH_ENABLE != 0U)
  __HAL_FLASH_PREFETCH_BUFFER_ENABLE();
  14:	2200      	movs	r2, #0
  16:	4621      	mov	r1, r4
  18:	f04f 30ff 	mov.w	r0, #4294967295
#endif /* PREFETCH_ENABLE */

  /* Set Interrupt Group Priority */
  HAL_NVIC_SetPriorityGrouping(NVIC_PRIORITYGROUP_4);
  1c:	f7ff fffe 	bl	0 <HAL_NVIC_SetPriority>
  20:	2000      	movs	r0, #0

  /* Use systick as time base source and configure 1ms tick (default clock after Reset is HSI) */
  HAL_InitTick(TICK_INT_PRIORITY);
  22:	bd10      	pop	{r4, pc}
  24:	00000000 	.word	0x00000000

Disassembly of section .text.HAL_Init:

00000000 <HAL_Init>:
  *         need to ensure that the SysTick time base is always set to 1 millisecond
  *         to have correct HAL operation.
  * @retval HAL status
  */
HAL_StatusTypeDef HAL_Init(void)
{
   0:	b508      	push	{r3, lr}
  /* Configure Flash prefetch, Instruction cache, Data cache */ 
#if (INSTRUCTION_CACHE_ENABLE != 0U)
   __HAL_FLASH_INSTRUCTION_CACHE_ENABLE();
   2:	4b0b      	ldr	r3, [pc, #44]	; (30 <HAL_Init+0x30>)
   4:	681a      	ldr	r2, [r3, #0]
   6:	f442 7200 	orr.w	r2, r2, #512	; 0x200
   a:	601a      	str	r2, [r3, #0]
#endif /* INSTRUCTION_CACHE_ENABLE */

#if (DATA_CACHE_ENABLE != 0U)
   __HAL_FLASH_DATA_CACHE_ENABLE();
   c:	681a      	ldr	r2, [r3, #0]
   e:	f442 6280 	orr.w	r2, r2, #1024	; 0x400
  12:	601a      	str	r2, [r3, #0]
#endif /* DATA_CACHE_ENABLE */

#if (PREFETCH_ENABLE != 0U)
  __HAL_FLASH_PREFETCH_BUFFER_ENABLE();
  14:	681a      	ldr	r2, [r3, #0]
  16:	f442 7280 	orr.w	r2, r2, #256	; 0x100
  1a:	601a      	str	r2, [r3, #0]
#endif /* PREFETCH_ENABLE */

  /* Set Interrupt Group Priority */
  HAL_NVIC_SetPriorityGrouping(NVIC_PRIORITYGROUP_4);
  1c:	2003      	movs	r0, #3
  1e:	f7ff fffe 	bl	0 <HAL_NVIC_SetPriorityGrouping>

  /* Use systick as time base source and configure 1ms tick (default clock after Reset is HSI) */
  HAL_InitTick(TICK_INT_PRIORITY);
  22:	2000      	movs	r0, #0
  24:	f7ff fffe 	bl	0 <HAL_Init>
  
  /* Init the low level hardware */
  HAL_MspInit();
  28:	f7ff fffe 	bl	0 <HAL_Init>
  
  /* Return function status */
  return HAL_OK;
}
  2c:	2000      	movs	r0, #0
  2e:	bd08      	pop	{r3, pc}
  30:	40023c00 	.word	0x40023c00

Disassembly of section .text.HAL_IncTick:

00000000 <HAL_IncTick>:
  *         need to ensure that the SysTick time base is always set to 1 millisecond
  *         to have correct HAL operation.
  * @retval HAL status
  */
HAL_StatusTypeDef HAL_Init(void)
{
   0:	4a02      	ldr	r2, [pc, #8]	; (c <HAL_IncTick+0xc>)
  /* Configure Flash prefetch, Instruction cache, Data cache */ 
#if (INSTRUCTION_CACHE_ENABLE != 0U)
   __HAL_FLASH_INSTRUCTION_CACHE_ENABLE();
   2:	6813      	ldr	r3, [r2, #0]
   4:	3301      	adds	r3, #1
   6:	6013      	str	r3, [r2, #0]
   8:	4770      	bx	lr
   a:	bf00      	nop
#endif /* INSTRUCTION_CACHE_ENABLE */

#if (DATA_CACHE_ENABLE != 0U)
   __HAL_FLASH_DATA_CACHE_ENABLE();
   c:	00000000 	.word	0x00000000

Disassembly of section .text.HAL_GetTick:

00000000 <HAL_GetTick>:
  *         need to ensure that the SysTick time base is always set to 1 millisecond
  *         to have correct HAL operation.
  * @retval HAL status
  */
HAL_StatusTypeDef HAL_Init(void)
{
   0:	4b01      	ldr	r3, [pc, #4]	; (8 <HAL_GetTick+0x8>)
  /* Configure Flash prefetch, Instruction cache, Data cache */ 
#if (INSTRUCTION_CACHE_ENABLE != 0U)
   __HAL_FLASH_INSTRUCTION_CACHE_ENABLE();
   2:	6818      	ldr	r0, [r3, #0]
   4:	4770      	bx	lr
   6:	bf00      	nop
   8:	00000000 	.word	0x00000000

Disassembly of section .text.HAL_Delay:

00000000 <HAL_Delay>:
  *         need to ensure that the SysTick time base is always set to 1 millisecond
  *         to have correct HAL operation.
  * @retval HAL status
  */
HAL_StatusTypeDef HAL_Init(void)
{
   0:	b513      	push	{r0, r1, r4, lr}
  /* Configure Flash prefetch, Instruction cache, Data cache */ 
#if (INSTRUCTION_CACHE_ENABLE != 0U)
   __HAL_FLASH_INSTRUCTION_CACHE_ENABLE();
   2:	9001      	str	r0, [sp, #4]
   4:	f7ff fffe 	bl	0 <HAL_Delay>
   8:	4604      	mov	r4, r0
   a:	f7ff fffe 	bl	0 <HAL_Delay>
#endif /* INSTRUCTION_CACHE_ENABLE */

#if (DATA_CACHE_ENABLE != 0U)
   __HAL_FLASH_DATA_CACHE_ENABLE();
   e:	9b01      	ldr	r3, [sp, #4]
  10:	1b00      	subs	r0, r0, r4
  12:	4298      	cmp	r0, r3
#endif /* DATA_CACHE_ENABLE */

#if (PREFETCH_ENABLE != 0U)
  __HAL_FLASH_PREFETCH_BUFFER_ENABLE();
  14:	d3f9      	bcc.n	a <HAL_Delay+0xa>
  16:	b002      	add	sp, #8
  18:	bd10      	pop	{r4, pc}

Disassembly of section .text.HAL_SuspendTick:

00000000 <HAL_SuspendTick>:
  *         need to ensure that the SysTick time base is always set to 1 millisecond
  *         to have correct HAL operation.
  * @retval HAL status
  */
HAL_StatusTypeDef HAL_Init(void)
{
   0:	4a02      	ldr	r2, [pc, #8]	; (c <HAL_SuspendTick+0xc>)
  /* Configure Flash prefetch, Instruction cache, Data cache */ 
#if (INSTRUCTION_CACHE_ENABLE != 0U)
   __HAL_FLASH_INSTRUCTION_CACHE_ENABLE();
   2:	6813      	ldr	r3, [r2, #0]
   4:	f023 0302 	bic.w	r3, r3, #2
   8:	6013      	str	r3, [r2, #0]
   a:	4770      	bx	lr
#endif /* INSTRUCTION_CACHE_ENABLE */

#if (DATA_CACHE_ENABLE != 0U)
   __HAL_FLASH_DATA_CACHE_ENABLE();
   c:	e000e010 	.word	0xe000e010

Disassembly of section .text.HAL_ResumeTick:

00000000 <HAL_ResumeTick>:
  *         need to ensure that the SysTick time base is always set to 1 millisecond
  *         to have correct HAL operation.
  * @retval HAL status
  */
HAL_StatusTypeDef HAL_Init(void)
{
   0:	4a02      	ldr	r2, [pc, #8]	; (c <HAL_ResumeTick+0xc>)
  /* Configure Flash prefetch, Instruction cache, Data cache */ 
#if (INSTRUCTION_CACHE_ENABLE != 0U)
   __HAL_FLASH_INSTRUCTION_CACHE_ENABLE();
   2:	6813      	ldr	r3, [r2, #0]
   4:	f043 0302 	orr.w	r3, r3, #2
   8:	6013      	str	r3, [r2, #0]
   a:	4770      	bx	lr
#endif /* INSTRUCTION_CACHE_ENABLE */

#if (DATA_CACHE_ENABLE != 0U)
   __HAL_FLASH_DATA_CACHE_ENABLE();
   c:	e000e010 	.word	0xe000e010

Disassembly of section .text.HAL_GetHalVersion:

00000000 <HAL_GetHalVersion>:
  *         need to ensure that the SysTick time base is always set to 1 millisecond
  *         to have correct HAL operation.
  * @retval HAL status
  */
HAL_StatusTypeDef HAL_Init(void)
{
   0:	4800      	ldr	r0, [pc, #0]	; (4 <HAL_GetHalVersion+0x4>)
  /* Configure Flash prefetch, Instruction cache, Data cache */ 
#if (INSTRUCTION_CACHE_ENABLE != 0U)
   __HAL_FLASH_INSTRUCTION_CACHE_ENABLE();
   2:	4770      	bx	lr
   4:	01050100 	.word	0x01050100

Disassembly of section .text.HAL_GetREVID:

00000000 <HAL_GetREVID>:
  *         need to ensure that the SysTick time base is always set to 1 millisecond
  *         to have correct HAL operation.
  * @retval HAL status
  */
HAL_StatusTypeDef HAL_Init(void)
{
   0:	4b01      	ldr	r3, [pc, #4]	; (8 <HAL_GetREVID+0x8>)
  /* Configure Flash prefetch, Instruction cache, Data cache */ 
#if (INSTRUCTION_CACHE_ENABLE != 0U)
   __HAL_FLASH_INSTRUCTION_CACHE_ENABLE();
   2:	6818      	ldr	r0, [r3, #0]
   4:	0c00      	lsrs	r0, r0, #16
   6:	4770      	bx	lr
   8:	e0042000 	.word	0xe0042000

Disassembly of section .text.HAL_GetDEVID:

00000000 <HAL_GetDEVID>:
  *         need to ensure that the SysTick time base is always set to 1 millisecond
  *         to have correct HAL operation.
  * @retval HAL status
  */
HAL_StatusTypeDef HAL_Init(void)
{
   0:	4b02      	ldr	r3, [pc, #8]	; (c <HAL_GetDEVID+0xc>)
  /* Configure Flash prefetch, Instruction cache, Data cache */ 
#if (INSTRUCTION_CACHE_ENABLE != 0U)
   __HAL_FLASH_INSTRUCTION_CACHE_ENABLE();
   2:	6818      	ldr	r0, [r3, #0]
   4:	f3c0 000b 	ubfx	r0, r0, #0, #12
   8:	4770      	bx	lr
   a:	bf00      	nop
#endif /* INSTRUCTION_CACHE_ENABLE */

#if (DATA_CACHE_ENABLE != 0U)
   __HAL_FLASH_DATA_CACHE_ENABLE();
   c:	e0042000 	.word	0xe0042000

Disassembly of section .text.HAL_DBGMCU_EnableDBGSleepMode:

00000000 <HAL_DBGMCU_EnableDBGSleepMode>:
  *         need to ensure that the SysTick time base is always set to 1 millisecond
  *         to have correct HAL operation.
  * @retval HAL status
  */
HAL_StatusTypeDef HAL_Init(void)
{
   0:	4a02      	ldr	r2, [pc, #8]	; (c <HAL_DBGMCU_EnableDBGSleepMode+0xc>)
  /* Configure Flash prefetch, Instruction cache, Data cache */ 
#if (INSTRUCTION_CACHE_ENABLE != 0U)
   __HAL_FLASH_INSTRUCTION_CACHE_ENABLE();
   2:	6853      	ldr	r3, [r2, #4]
   4:	f043 0301 	orr.w	r3, r3, #1
   8:	6053      	str	r3, [r2, #4]
   a:	4770      	bx	lr
#endif /* INSTRUCTION_CACHE_ENABLE */

#if (DATA_CACHE_ENABLE != 0U)
   __HAL_FLASH_DATA_CACHE_ENABLE();
   c:	e0042000 	.word	0xe0042000

Disassembly of section .text.HAL_DBGMCU_DisableDBGSleepMode:

00000000 <HAL_DBGMCU_DisableDBGSleepMode>:
  *         need to ensure that the SysTick time base is always set to 1 millisecond
  *         to have correct HAL operation.
  * @retval HAL status
  */
HAL_StatusTypeDef HAL_Init(void)
{
   0:	4a02      	ldr	r2, [pc, #8]	; (c <HAL_DBGMCU_DisableDBGSleepMode+0xc>)
  /* Configure Flash prefetch, Instruction cache, Data cache */ 
#if (INSTRUCTION_CACHE_ENABLE != 0U)
   __HAL_FLASH_INSTRUCTION_CACHE_ENABLE();
   2:	6853      	ldr	r3, [r2, #4]
   4:	f023 0301 	bic.w	r3, r3, #1
   8:	6053      	str	r3, [r2, #4]
   a:	4770      	bx	lr
#endif /* INSTRUCTION_CACHE_ENABLE */

#if (DATA_CACHE_ENABLE != 0U)
   __HAL_FLASH_DATA_CACHE_ENABLE();
   c:	e0042000 	.word	0xe0042000

Disassembly of section .text.HAL_DBGMCU_EnableDBGStopMode:

00000000 <HAL_DBGMCU_EnableDBGStopMode>:
  *         need to ensure that the SysTick time base is always set to 1 millisecond
  *         to have correct HAL operation.
  * @retval HAL status
  */
HAL_StatusTypeDef HAL_Init(void)
{
   0:	4a02      	ldr	r2, [pc, #8]	; (c <HAL_DBGMCU_EnableDBGStopMode+0xc>)
  /* Configure Flash prefetch, Instruction cache, Data cache */ 
#if (INSTRUCTION_CACHE_ENABLE != 0U)
   __HAL_FLASH_INSTRUCTION_CACHE_ENABLE();
   2:	6853      	ldr	r3, [r2, #4]
   4:	f043 0302 	orr.w	r3, r3, #2
   8:	6053      	str	r3, [r2, #4]
   a:	4770      	bx	lr
#endif /* INSTRUCTION_CACHE_ENABLE */

#if (DATA_CACHE_ENABLE != 0U)
   __HAL_FLASH_DATA_CACHE_ENABLE();
   c:	e0042000 	.word	0xe0042000

Disassembly of section .text.HAL_DBGMCU_DisableDBGStopMode:

00000000 <HAL_DBGMCU_DisableDBGStopMode>:
  *         need to ensure that the SysTick time base is always set to 1 millisecond
  *         to have correct HAL operation.
  * @retval HAL status
  */
HAL_StatusTypeDef HAL_Init(void)
{
   0:	4a02      	ldr	r2, [pc, #8]	; (c <HAL_DBGMCU_DisableDBGStopMode+0xc>)
  /* Configure Flash prefetch, Instruction cache, Data cache */ 
#if (INSTRUCTION_CACHE_ENABLE != 0U)
   __HAL_FLASH_INSTRUCTION_CACHE_ENABLE();
   2:	6853      	ldr	r3, [r2, #4]
   4:	f023 0302 	bic.w	r3, r3, #2
   8:	6053      	str	r3, [r2, #4]
   a:	4770      	bx	lr
#endif /* INSTRUCTION_CACHE_ENABLE */

#if (DATA_CACHE_ENABLE != 0U)
   __HAL_FLASH_DATA_CACHE_ENABLE();
   c:	e0042000 	.word	0xe0042000

Disassembly of section .text.HAL_DBGMCU_EnableDBGStandbyMode:

00000000 <HAL_DBGMCU_EnableDBGStandbyMode>:
  *         need to ensure that the SysTick time base is always set to 1 millisecond
  *         to have correct HAL operation.
  * @retval HAL status
  */
HAL_StatusTypeDef HAL_Init(void)
{
   0:	4a02      	ldr	r2, [pc, #8]	; (c <HAL_DBGMCU_EnableDBGStandbyMode+0xc>)
  /* Configure Flash prefetch, Instruction cache, Data cache */ 
#if (INSTRUCTION_CACHE_ENABLE != 0U)
   __HAL_FLASH_INSTRUCTION_CACHE_ENABLE();
   2:	6853      	ldr	r3, [r2, #4]
   4:	f043 0304 	orr.w	r3, r3, #4
   8:	6053      	str	r3, [r2, #4]
   a:	4770      	bx	lr
#endif /* INSTRUCTION_CACHE_ENABLE */

#if (DATA_CACHE_ENABLE != 0U)
   __HAL_FLASH_DATA_CACHE_ENABLE();
   c:	e0042000 	.word	0xe0042000

Disassembly of section .text.HAL_DBGMCU_DisableDBGStandbyMode:

00000000 <HAL_DBGMCU_DisableDBGStandbyMode>:
  *         need to ensure that the SysTick time base is always set to 1 millisecond
  *         to have correct HAL operation.
  * @retval HAL status
  */
HAL_StatusTypeDef HAL_Init(void)
{
   0:	4a02      	ldr	r2, [pc, #8]	; (c <HAL_DBGMCU_DisableDBGStandbyMode+0xc>)
  /* Configure Flash prefetch, Instruction cache, Data cache */ 
#if (INSTRUCTION_CACHE_ENABLE != 0U)
   __HAL_FLASH_INSTRUCTION_CACHE_ENABLE();
   2:	6853      	ldr	r3, [r2, #4]
   4:	f023 0304 	bic.w	r3, r3, #4
   8:	6053      	str	r3, [r2, #4]
   a:	4770      	bx	lr
#endif /* INSTRUCTION_CACHE_ENABLE */

#if (DATA_CACHE_ENABLE != 0U)
   __HAL_FLASH_DATA_CACHE_ENABLE();
   c:	e0042000 	.word	0xe0042000

Disassembly of section .text.HAL_EnableCompensationCell:

00000000 <HAL_EnableCompensationCell>:
  *         need to ensure that the SysTick time base is always set to 1 millisecond
  *         to have correct HAL operation.
  * @retval HAL status
  */
HAL_StatusTypeDef HAL_Init(void)
{
   0:	2101      	movs	r1, #1
  /* Configure Flash prefetch, Instruction cache, Data cache */ 
#if (INSTRUCTION_CACHE_ENABLE != 0U)
   __HAL_FLASH_INSTRUCTION_CACHE_ENABLE();
   2:	fa91 f2a1 	rbit	r2, r1
   6:	4b03      	ldr	r3, [pc, #12]	; (14 <HAL_EnableCompensationCell+0x14>)
   8:	fab2 f282 	clz	r2, r2
#endif /* INSTRUCTION_CACHE_ENABLE */

#if (DATA_CACHE_ENABLE != 0U)
   __HAL_FLASH_DATA_CACHE_ENABLE();
   c:	4413      	add	r3, r2
   e:	009b      	lsls	r3, r3, #2
  10:	6019      	str	r1, [r3, #0]
  12:	4770      	bx	lr
#endif /* DATA_CACHE_ENABLE */

#if (PREFETCH_ENABLE != 0U)
  __HAL_FLASH_PREFETCH_BUFFER_ENABLE();
  14:	1089c100 	.word	0x1089c100

Disassembly of section .text.HAL_DisableCompensationCell:

00000000 <HAL_DisableCompensationCell>:
  *         need to ensure that the SysTick time base is always set to 1 millisecond
  *         to have correct HAL operation.
  * @retval HAL status
  */
HAL_StatusTypeDef HAL_Init(void)
{
   0:	2201      	movs	r2, #1
  /* Configure Flash prefetch, Instruction cache, Data cache */ 
#if (INSTRUCTION_CACHE_ENABLE != 0U)
   __HAL_FLASH_INSTRUCTION_CACHE_ENABLE();
   2:	fa92 f2a2 	rbit	r2, r2
   6:	4b04      	ldr	r3, [pc, #16]	; (18 <HAL_DisableCompensationCell+0x18>)
   8:	fab2 f282 	clz	r2, r2
#endif /* INSTRUCTION_CACHE_ENABLE */

#if (DATA_CACHE_ENABLE != 0U)
   __HAL_FLASH_DATA_CACHE_ENABLE();
   c:	4413      	add	r3, r2
   e:	009b      	lsls	r3, r3, #2
  10:	2200      	movs	r2, #0
  12:	601a      	str	r2, [r3, #0]
#endif /* DATA_CACHE_ENABLE */

#if (PREFETCH_ENABLE != 0U)
  __HAL_FLASH_PREFETCH_BUFFER_ENABLE();
  14:	4770      	bx	lr
  16:	bf00      	nop
  18:	1089c100 	.word	0x1089c100

Disassembly of section .text.HAL_EnableMemorySwappingBank:

00000000 <HAL_EnableMemorySwappingBank>:
  *         need to ensure that the SysTick time base is always set to 1 millisecond
  *         to have correct HAL operation.
  * @retval HAL status
  */
HAL_StatusTypeDef HAL_Init(void)
{
   0:	f44f 7380 	mov.w	r3, #256	; 0x100
  /* Configure Flash prefetch, Instruction cache, Data cache */ 
#if (INSTRUCTION_CACHE_ENABLE != 0U)
   __HAL_FLASH_INSTRUCTION_CACHE_ENABLE();
   4:	fa93 f3a3 	rbit	r3, r3
   8:	fab3 f383 	clz	r3, r3
#endif /* INSTRUCTION_CACHE_ENABLE */

#if (DATA_CACHE_ENABLE != 0U)
   __HAL_FLASH_DATA_CACHE_ENABLE();
   c:	f103 5384 	add.w	r3, r3, #276824064	; 0x10800000
  10:	f503 231c 	add.w	r3, r3, #638976	; 0x9c000
#endif /* DATA_CACHE_ENABLE */

#if (PREFETCH_ENABLE != 0U)
  __HAL_FLASH_PREFETCH_BUFFER_ENABLE();
  14:	009b      	lsls	r3, r3, #2
  16:	2201      	movs	r2, #1
  18:	601a      	str	r2, [r3, #0]
  1a:	4770      	bx	lr

Disassembly of section .text.HAL_DisableMemorySwappingBank:

00000000 <HAL_DisableMemorySwappingBank>:
  *         need to ensure that the SysTick time base is always set to 1 millisecond
  *         to have correct HAL operation.
  * @retval HAL status
  */
HAL_StatusTypeDef HAL_Init(void)
{
   0:	f44f 7380 	mov.w	r3, #256	; 0x100
  /* Configure Flash prefetch, Instruction cache, Data cache */ 
#if (INSTRUCTION_CACHE_ENABLE != 0U)
   __HAL_FLASH_INSTRUCTION_CACHE_ENABLE();
   4:	fa93 f3a3 	rbit	r3, r3
   8:	fab3 f383 	clz	r3, r3
#endif /* INSTRUCTION_CACHE_ENABLE */

#if (DATA_CACHE_ENABLE != 0U)
   __HAL_FLASH_DATA_CACHE_ENABLE();
   c:	f103 5384 	add.w	r3, r3, #276824064	; 0x10800000
  10:	f503 231c 	add.w	r3, r3, #638976	; 0x9c000
#endif /* DATA_CACHE_ENABLE */

#if (PREFETCH_ENABLE != 0U)
  __HAL_FLASH_PREFETCH_BUFFER_ENABLE();
  14:	009b      	lsls	r3, r3, #2
  16:	2200      	movs	r2, #0
  18:	601a      	str	r2, [r3, #0]
  1a:	4770      	bx	lr

stm32f4xx_hal_pcd.o:     file format elf32-littlearm


Disassembly of section .text.HAL_PCD_MspInit:

00000000 <HAL_PCD_MspInit>:
   0:	4770      	bx	lr

Disassembly of section .text.HAL_PCD_Init:

00000000 <HAL_PCD_Init>:
   0:	b5f0      	push	{r4, r5, r6, r7, lr}
  * @brief  Handles PCD interrupt request.
  * @param  hpcd: PCD handle
  * @retval HAL status
  */
void HAL_PCD_IRQHandler(PCD_HandleTypeDef *hpcd)
{
   2:	4606      	mov	r6, r0
  USB_OTG_GlobalTypeDef *USBx = hpcd->Instance;
   4:	b08b      	sub	sp, #44	; 0x2c
   6:	2800      	cmp	r0, #0
  * @brief  Handles PCD interrupt request.
  * @param  hpcd: PCD handle
  * @retval HAL status
  */
void HAL_PCD_IRQHandler(PCD_HandleTypeDef *hpcd)
{
   8:	d062      	beq.n	d0 <HAL_PCD_Init+0xd0>
   a:	2303      	movs	r3, #3
  uint32_t fifoemptymsk = 0U, temp = 0U;
  USB_OTG_EPTypeDef *ep;
  uint32_t hclk = 180000000;
  
  /* ensure that we are in device mode */
  if (USB_GetMode(hpcd->Instance) == USB_OTG_MODE_DEVICE)
   c:	4634      	mov	r4, r6
   e:	f880 3381 	strb.w	r3, [r0, #897]	; 0x381
  12:	f7ff fffe 	bl	0 <HAL_PCD_Init>
  16:	f854 0b10 	ldr.w	r0, [r4], #16
  {    
    /* avoid spurious interrupt */
    if(__HAL_PCD_IS_INVALID_INTERRUPT(hpcd)) 
  1a:	f7ff fffe 	bl	0 <USB_DisableGlobalInt>
  1e:	cc0f      	ldmia	r4!, {r0, r1, r2, r3}
  20:	466d      	mov	r5, sp
  22:	c50f      	stmia	r5!, {r0, r1, r2, r3}
    {
      return;
    }
    
    if(__HAL_PCD_GET_FLAG(hpcd, USB_OTG_GINTSTS_MMIS))
  24:	cc0f      	ldmia	r4!, {r0, r1, r2, r3}
  26:	c50f      	stmia	r5!, {r0, r1, r2, r3}
  28:	e894 0003 	ldmia.w	r4, {r0, r1}
    {
     /* incorrect mode, acknowledge the interrupt */
      __HAL_PCD_CLEAR_FLAG(hpcd, USB_OTG_GINTSTS_MMIS);
  2c:	e885 0003 	stmia.w	r5, {r0, r1}
  30:	1d37      	adds	r7, r6, #4
  32:	e897 000e 	ldmia.w	r7, {r1, r2, r3}
  36:	6830      	ldr	r0, [r6, #0]
    }
    
    if(__HAL_PCD_GET_FLAG(hpcd, USB_OTG_GINTSTS_OEPINT))
  38:	f7ff fffe 	bl	0 <USB_CoreInit>
  3c:	2100      	movs	r1, #0
  3e:	6830      	ldr	r0, [r6, #0]
  40:	f7ff fffe 	bl	0 <USB_SetCurrentMode>
    {
      epnum = 0U;
      
      /* Read in the device interrupt bits */
      ep_intr = USB_ReadDevAllOutEpInterrupt(hpcd->Instance);
  44:	2100      	movs	r1, #0
  46:	4633      	mov	r3, r6
  48:	4632      	mov	r2, r6
  4a:	f106 0410 	add.w	r4, r6, #16
  4e:	2501      	movs	r5, #1
  50:	4608      	mov	r0, r1
      __HAL_PCD_CLEAR_FLAG(hpcd, USB_OTG_GINTSTS_MMIS);
    }
    
    if(__HAL_PCD_GET_FLAG(hpcd, USB_OTG_GINTSTS_OEPINT))
    {
      epnum = 0U;
  52:	f882 1038 	strb.w	r1, [r2, #56]	; 0x38
      
      /* Read in the device interrupt bits */
      ep_intr = USB_ReadDevAllOutEpInterrupt(hpcd->Instance);
      
      while ( ep_intr )
  56:	87d1      	strh	r1, [r2, #62]	; 0x3e
      {
        if (ep_intr & 0x1U)
  58:	3101      	adds	r1, #1
  5a:	290f      	cmp	r1, #15
        {
          epint = USB_ReadDevOutEPInterrupt(hpcd->Instance, epnum);
  5c:	f882 5039 	strb.w	r5, [r2, #57]	; 0x39
  60:	f882 003b 	strb.w	r0, [r2, #59]	; 0x3b
  64:	6410      	str	r0, [r2, #64]	; 0x40
  66:	6450      	str	r0, [r2, #68]	; 0x44
          
          if(( epint & USB_OTG_DOEPINT_XFRC) == USB_OTG_DOEPINT_XFRC)
  68:	64d0      	str	r0, [r2, #76]	; 0x4c
  6a:	f102 021c 	add.w	r2, r2, #28
  6e:	d1f0      	bne.n	52 <HAL_PCD_Init+0x52>
          {
            CLEAR_OUT_EP_INTR(epnum, USB_OTG_DOEPINT_XFRC);
  70:	2200      	movs	r2, #0
  72:	4611      	mov	r1, r2
            
            if(hpcd->Init.dma_enable == 1U)
  74:	f883 21dc 	strb.w	r2, [r3, #476]	; 0x1dc
  78:	87da      	strh	r2, [r3, #62]	; 0x3e
            {
              hpcd->OUT_ep[epnum].xfer_count = hpcd->OUT_ep[epnum].maxpacket- (USBx_OUTEP(epnum)->DOEPTSIZ & USB_OTG_DOEPTSIZ_XFRSIZ); 
  7a:	f883 11dd 	strb.w	r1, [r3, #477]	; 0x1dd
  7e:	f883 11df 	strb.w	r1, [r3, #479]	; 0x1df
  82:	f8c3 11e4 	str.w	r1, [r3, #484]	; 0x1e4
  86:	f8c3 11e8 	str.w	r1, [r3, #488]	; 0x1e8
              hpcd->OUT_ep[epnum].xfer_buff += hpcd->OUT_ep[epnum].maxpacket;            
  8a:	f8c3 11f0 	str.w	r1, [r3, #496]	; 0x1f0
  8e:	6830      	ldr	r0, [r6, #0]
  90:	f102 0540 	add.w	r5, r2, #64	; 0x40
            }
            
            HAL_PCD_DataOutStageCallback(hpcd, epnum);
  94:	eb00 0085 	add.w	r0, r0, r5, lsl #2
  98:	3201      	adds	r2, #1
  9a:	2a0f      	cmp	r2, #15
            if(hpcd->Init.dma_enable == 1U)
  9c:	6041      	str	r1, [r0, #4]
  9e:	f103 031c 	add.w	r3, r3, #28
            {
              if((epnum == 0U) && (hpcd->OUT_ep[epnum].xfer_len == 0U))
  a2:	d1e7      	bne.n	74 <HAL_PCD_Init+0x74>
  a4:	cc0f      	ldmia	r4!, {r0, r1, r2, r3}
  a6:	466d      	mov	r5, sp
  a8:	c50f      	stmia	r5!, {r0, r1, r2, r3}
              {
                 /* this is ZLP, so prepare EP0 for next setup */
                USB_EP0_OutStart(hpcd->Instance, 1U, (uint8_t *)hpcd->Setup);
  aa:	cc0f      	ldmia	r4!, {r0, r1, r2, r3}
  ac:	c50f      	stmia	r5!, {r0, r1, r2, r3}
  ae:	e894 0003 	ldmia.w	r4, {r0, r1}
  b2:	e885 0003 	stmia.w	r5, {r0, r1}
              }              
            }
          }
          
          if(( epint & USB_OTG_DOEPINT_STUP) == USB_OTG_DOEPINT_STUP)
  b6:	e897 000e 	ldmia.w	r7, {r1, r2, r3}
          {
            /* Inform the upper layer that a setup packet is available */
            HAL_PCD_SetupStageCallback(hpcd);
  ba:	6830      	ldr	r0, [r6, #0]
  bc:	f7ff fffe 	bl	0 <USB_DevInit>
            CLEAR_OUT_EP_INTR(epnum, USB_OTG_DOEPINT_STUP);
  c0:	2301      	movs	r3, #1
  c2:	f886 3381 	strb.w	r3, [r6, #897]	; 0x381
          }
          
          if(( epint & USB_OTG_DOEPINT_OTEPDIS) == USB_OTG_DOEPINT_OTEPDIS)
  c6:	6830      	ldr	r0, [r6, #0]
          {
            CLEAR_OUT_EP_INTR(epnum, USB_OTG_DOEPINT_OTEPDIS);
  c8:	f7ff fffe 	bl	0 <USB_DevDisconnect>
  cc:	2000      	movs	r0, #0
          {
            CLEAR_OUT_EP_INTR(epnum, USB_OTG_DOEPINT_OTEPSPR);
          }
#endif /* USB_OTG_DOEPINT_OTEPSPR */
        }
        epnum++;
  ce:	e000      	b.n	d2 <HAL_PCD_Init+0xd2>
        ep_intr >>= 1U;
  d0:	2001      	movs	r0, #1
  d2:	b00b      	add	sp, #44	; 0x2c
  d4:	bdf0      	pop	{r4, r5, r6, r7, pc}

Disassembly of section .text.HAL_PCD_MspDeInit:

00000000 <HAL_PCD_MspDeInit>:
  * @brief  Handles PCD interrupt request.
  * @param  hpcd: PCD handle
  * @retval HAL status
  */
void HAL_PCD_IRQHandler(PCD_HandleTypeDef *hpcd)
{
   0:	4770      	bx	lr

Disassembly of section .text.HAL_PCD_Start:

00000000 <HAL_PCD_Start>:
   0:	b510      	push	{r4, lr}
   2:	f890 3380 	ldrb.w	r3, [r0, #896]	; 0x380
  USB_OTG_GlobalTypeDef *USBx = hpcd->Instance;
   6:	2b01      	cmp	r3, #1
  * @brief  Handles PCD interrupt request.
  * @param  hpcd: PCD handle
  * @retval HAL status
  */
void HAL_PCD_IRQHandler(PCD_HandleTypeDef *hpcd)
{
   8:	4604      	mov	r4, r0
   a:	d00c      	beq.n	26 <HAL_PCD_Start+0x26>
  uint32_t fifoemptymsk = 0U, temp = 0U;
  USB_OTG_EPTypeDef *ep;
  uint32_t hclk = 180000000;
  
  /* ensure that we are in device mode */
  if (USB_GetMode(hpcd->Instance) == USB_OTG_MODE_DEVICE)
   c:	2301      	movs	r3, #1
   e:	f880 3380 	strb.w	r3, [r0, #896]	; 0x380
  12:	6800      	ldr	r0, [r0, #0]
  14:	f7ff fffe 	bl	0 <USB_DevConnect>
  {    
    /* avoid spurious interrupt */
    if(__HAL_PCD_IS_INVALID_INTERRUPT(hpcd)) 
  18:	6820      	ldr	r0, [r4, #0]
  1a:	f7ff fffe 	bl	0 <USB_EnableGlobalInt>
  1e:	2000      	movs	r0, #0
  20:	f884 0380 	strb.w	r0, [r4, #896]	; 0x380
    {
      return;
    }
    
    if(__HAL_PCD_GET_FLAG(hpcd, USB_OTG_GINTSTS_MMIS))
  24:	bd10      	pop	{r4, pc}
  26:	2002      	movs	r0, #2
  28:	bd10      	pop	{r4, pc}

Disassembly of section .text.HAL_PCD_Stop:

00000000 <HAL_PCD_Stop>:
  * @brief  Handles PCD interrupt request.
  * @param  hpcd: PCD handle
  * @retval HAL status
  */
void HAL_PCD_IRQHandler(PCD_HandleTypeDef *hpcd)
{
   0:	b510      	push	{r4, lr}
   2:	f890 3380 	ldrb.w	r3, [r0, #896]	; 0x380
  USB_OTG_GlobalTypeDef *USBx = hpcd->Instance;
   6:	2b01      	cmp	r3, #1
  * @brief  Handles PCD interrupt request.
  * @param  hpcd: PCD handle
  * @retval HAL status
  */
void HAL_PCD_IRQHandler(PCD_HandleTypeDef *hpcd)
{
   8:	4604      	mov	r4, r0
   a:	d00f      	beq.n	2c <HAL_PCD_Stop+0x2c>
  uint32_t fifoemptymsk = 0U, temp = 0U;
  USB_OTG_EPTypeDef *ep;
  uint32_t hclk = 180000000;
  
  /* ensure that we are in device mode */
  if (USB_GetMode(hpcd->Instance) == USB_OTG_MODE_DEVICE)
   c:	2301      	movs	r3, #1
   e:	f880 3380 	strb.w	r3, [r0, #896]	; 0x380
  12:	6800      	ldr	r0, [r0, #0]
  14:	f7ff fffe 	bl	0 <USB_DisableGlobalInt>
  {    
    /* avoid spurious interrupt */
    if(__HAL_PCD_IS_INVALID_INTERRUPT(hpcd)) 
  18:	6820      	ldr	r0, [r4, #0]
  1a:	f7ff fffe 	bl	0 <USB_StopDevice>
  1e:	6820      	ldr	r0, [r4, #0]
  20:	f7ff fffe 	bl	0 <USB_DevDisconnect>
    {
      return;
    }
    
    if(__HAL_PCD_GET_FLAG(hpcd, USB_OTG_GINTSTS_MMIS))
  24:	2000      	movs	r0, #0
  26:	f884 0380 	strb.w	r0, [r4, #896]	; 0x380
  2a:	bd10      	pop	{r4, pc}
    {
     /* incorrect mode, acknowledge the interrupt */
      __HAL_PCD_CLEAR_FLAG(hpcd, USB_OTG_GINTSTS_MMIS);
  2c:	2002      	movs	r0, #2
  2e:	bd10      	pop	{r4, pc}

Disassembly of section .text.HAL_PCD_DeInit:

00000000 <HAL_PCD_DeInit>:
  * @brief  Handles PCD interrupt request.
  * @param  hpcd: PCD handle
  * @retval HAL status
  */
void HAL_PCD_IRQHandler(PCD_HandleTypeDef *hpcd)
{
   0:	b510      	push	{r4, lr}
   2:	4604      	mov	r4, r0
  USB_OTG_GlobalTypeDef *USBx = hpcd->Instance;
   4:	b158      	cbz	r0, 1e <HAL_PCD_DeInit+0x1e>
   6:	2303      	movs	r3, #3
  * @brief  Handles PCD interrupt request.
  * @param  hpcd: PCD handle
  * @retval HAL status
  */
void HAL_PCD_IRQHandler(PCD_HandleTypeDef *hpcd)
{
   8:	f880 3381 	strb.w	r3, [r0, #897]	; 0x381
  uint32_t fifoemptymsk = 0U, temp = 0U;
  USB_OTG_EPTypeDef *ep;
  uint32_t hclk = 180000000;
  
  /* ensure that we are in device mode */
  if (USB_GetMode(hpcd->Instance) == USB_OTG_MODE_DEVICE)
   c:	f7ff fffe 	bl	0 <HAL_PCD_DeInit>
  10:	4620      	mov	r0, r4
  12:	f7ff fffe 	bl	0 <HAL_PCD_DeInit>
  16:	2000      	movs	r0, #0
  {    
    /* avoid spurious interrupt */
    if(__HAL_PCD_IS_INVALID_INTERRUPT(hpcd)) 
  18:	f884 0381 	strb.w	r0, [r4, #897]	; 0x381
  1c:	bd10      	pop	{r4, pc}
  1e:	2001      	movs	r0, #1
  20:	bd10      	pop	{r4, pc}

Disassembly of section .text.HAL_PCD_DataOutStageCallback:

00000000 <HAL_PCD_DataOutStageCallback>:
  * @brief  Handles PCD interrupt request.
  * @param  hpcd: PCD handle
  * @retval HAL status
  */
void HAL_PCD_IRQHandler(PCD_HandleTypeDef *hpcd)
{
   0:	4770      	bx	lr

Disassembly of section .text.HAL_PCD_DataInStageCallback:

00000000 <HAL_PCD_DataInStageCallback>:
   0:	4770      	bx	lr

Disassembly of section .text.HAL_PCD_SetupStageCallback:

00000000 <HAL_PCD_SetupStageCallback>:
   0:	4770      	bx	lr

Disassembly of section .text.HAL_PCD_SOFCallback:

00000000 <HAL_PCD_SOFCallback>:
   0:	4770      	bx	lr

Disassembly of section .text.HAL_PCD_ResetCallback:

00000000 <HAL_PCD_ResetCallback>:
   0:	4770      	bx	lr

Disassembly of section .text.HAL_PCD_SuspendCallback:

00000000 <HAL_PCD_SuspendCallback>:
   0:	4770      	bx	lr

Disassembly of section .text.HAL_PCD_ResumeCallback:

00000000 <HAL_PCD_ResumeCallback>:
   0:	4770      	bx	lr

Disassembly of section .text.HAL_PCD_ISOOUTIncompleteCallback:

00000000 <HAL_PCD_ISOOUTIncompleteCallback>:
   0:	4770      	bx	lr

Disassembly of section .text.HAL_PCD_ISOINIncompleteCallback:

00000000 <HAL_PCD_ISOINIncompleteCallback>:
   0:	4770      	bx	lr

Disassembly of section .text.HAL_PCD_ConnectCallback:

00000000 <HAL_PCD_ConnectCallback>:
   0:	4770      	bx	lr

Disassembly of section .text.HAL_PCD_DisconnectCallback:

00000000 <HAL_PCD_DisconnectCallback>:
   0:	4770      	bx	lr

Disassembly of section .text.HAL_PCD_IRQHandler:

00000000 <HAL_PCD_IRQHandler>:
   0:	e92d 4ff0 	stmdb	sp!, {r4, r5, r6, r7, r8, r9, sl, fp, lr}
  USB_OTG_GlobalTypeDef *USBx = hpcd->Instance;
   4:	f8d0 a000 	ldr.w	sl, [r0]
  * @brief  Handles PCD interrupt request.
  * @param  hpcd: PCD handle
  * @retval HAL status
  */
void HAL_PCD_IRQHandler(PCD_HandleTypeDef *hpcd)
{
   8:	b087      	sub	sp, #28
   a:	4604      	mov	r4, r0
  uint32_t fifoemptymsk = 0U, temp = 0U;
  USB_OTG_EPTypeDef *ep;
  uint32_t hclk = 180000000;
  
  /* ensure that we are in device mode */
  if (USB_GetMode(hpcd->Instance) == USB_OTG_MODE_DEVICE)
   c:	4650      	mov	r0, sl
   e:	f7ff fffe 	bl	0 <USB_GetMode>
  12:	2800      	cmp	r0, #0
  14:	f040 8277 	bne.w	506 <HAL_PCD_IRQHandler+0x506>
  {    
    /* avoid spurious interrupt */
    if(__HAL_PCD_IS_INVALID_INTERRUPT(hpcd)) 
  18:	6820      	ldr	r0, [r4, #0]
  1a:	f7ff fffe 	bl	0 <USB_ReadInterrupts>
  1e:	2800      	cmp	r0, #0
  20:	f000 8271 	beq.w	506 <HAL_PCD_IRQHandler+0x506>
    {
      return;
    }
    
    if(__HAL_PCD_GET_FLAG(hpcd, USB_OTG_GINTSTS_MMIS))
  24:	6820      	ldr	r0, [r4, #0]
  26:	f7ff fffe 	bl	0 <USB_ReadInterrupts>
  2a:	0785      	lsls	r5, r0, #30
    {
     /* incorrect mode, acknowledge the interrupt */
      __HAL_PCD_CLEAR_FLAG(hpcd, USB_OTG_GINTSTS_MMIS);
  2c:	bf41      	itttt	mi
  2e:	6822      	ldrmi	r2, [r4, #0]
  30:	6953      	ldrmi	r3, [r2, #20]
  32:	f003 0302 	andmi.w	r3, r3, #2
  36:	6153      	strmi	r3, [r2, #20]
    }
    
    if(__HAL_PCD_GET_FLAG(hpcd, USB_OTG_GINTSTS_OEPINT))
  38:	6820      	ldr	r0, [r4, #0]
  3a:	f7ff fffe 	bl	0 <USB_ReadInterrupts>
  3e:	f410 2000 	ands.w	r0, r0, #524288	; 0x80000
  42:	d04a      	beq.n	da <HAL_PCD_IRQHandler+0xda>
    {
      epnum = 0U;
      
      /* Read in the device interrupt bits */
      ep_intr = USB_ReadDevAllOutEpInterrupt(hpcd->Instance);
  44:	6820      	ldr	r0, [r4, #0]
  46:	f7ff fffe 	bl	0 <USB_ReadDevAllOutEpInterrupt>
  4a:	f50a 6630 	add.w	r6, sl, #2816	; 0xb00
  4e:	4607      	mov	r7, r0
  50:	46a1      	mov	r9, r4
      __HAL_PCD_CLEAR_FLAG(hpcd, USB_OTG_GINTSTS_MMIS);
    }
    
    if(__HAL_PCD_GET_FLAG(hpcd, USB_OTG_GINTSTS_OEPINT))
    {
      epnum = 0U;
  52:	2500      	movs	r5, #0
      
      /* Read in the device interrupt bits */
      ep_intr = USB_ReadDevAllOutEpInterrupt(hpcd->Instance);
      
      while ( ep_intr )
  54:	2f00      	cmp	r7, #0
  56:	d041      	beq.n	dc <HAL_PCD_IRQHandler+0xdc>
      {
        if (ep_intr & 0x1U)
  58:	07f8      	lsls	r0, r7, #31
  5a:	d538      	bpl.n	ce <HAL_PCD_IRQHandler+0xce>
        {
          epint = USB_ReadDevOutEPInterrupt(hpcd->Instance, epnum);
  5c:	fa5f fb85 	uxtb.w	fp, r5
  60:	4659      	mov	r1, fp
  62:	6820      	ldr	r0, [r4, #0]
  64:	f7ff fffe 	bl	0 <USB_ReadDevOutEPInterrupt>
          
          if(( epint & USB_OTG_DOEPINT_XFRC) == USB_OTG_DOEPINT_XFRC)
  68:	f010 0f01 	tst.w	r0, #1
      
      while ( ep_intr )
      {
        if (ep_intr & 0x1U)
        {
          epint = USB_ReadDevOutEPInterrupt(hpcd->Instance, epnum);
  6c:	4680      	mov	r8, r0
          
          if(( epint & USB_OTG_DOEPINT_XFRC) == USB_OTG_DOEPINT_XFRC)
  6e:	d021      	beq.n	b4 <HAL_PCD_IRQHandler+0xb4>
          {
            CLEAR_OUT_EP_INTR(epnum, USB_OTG_DOEPINT_XFRC);
  70:	2301      	movs	r3, #1
  72:	60b3      	str	r3, [r6, #8]
            
            if(hpcd->Init.dma_enable == 1U)
  74:	6921      	ldr	r1, [r4, #16]
  76:	4299      	cmp	r1, r3
  78:	d10c      	bne.n	94 <HAL_PCD_IRQHandler+0x94>
            {
              hpcd->OUT_ep[epnum].xfer_count = hpcd->OUT_ep[epnum].maxpacket- (USBx_OUTEP(epnum)->DOEPTSIZ & USB_OTG_DOEPTSIZ_XFRSIZ); 
  7a:	6931      	ldr	r1, [r6, #16]
  7c:	f8d9 01e4 	ldr.w	r0, [r9, #484]	; 0x1e4
  80:	f3c1 0112 	ubfx	r1, r1, #0, #19
  84:	1a41      	subs	r1, r0, r1
  86:	f8c9 11f4 	str.w	r1, [r9, #500]	; 0x1f4
              hpcd->OUT_ep[epnum].xfer_buff += hpcd->OUT_ep[epnum].maxpacket;            
  8a:	f8d9 11e8 	ldr.w	r1, [r9, #488]	; 0x1e8
  8e:	4408      	add	r0, r1
  90:	f8c9 01e8 	str.w	r0, [r9, #488]	; 0x1e8
            }
            
            HAL_PCD_DataOutStageCallback(hpcd, epnum);
  94:	4659      	mov	r1, fp
  96:	4620      	mov	r0, r4
  98:	f7ff fffe 	bl	0 <HAL_PCD_IRQHandler>
            if(hpcd->Init.dma_enable == 1U)
  9c:	6921      	ldr	r1, [r4, #16]
  9e:	2901      	cmp	r1, #1
  a0:	d108      	bne.n	b4 <HAL_PCD_IRQHandler+0xb4>
            {
              if((epnum == 0U) && (hpcd->OUT_ep[epnum].xfer_len == 0U))
  a2:	b93d      	cbnz	r5, b4 <HAL_PCD_IRQHandler+0xb4>
  a4:	f8d4 21f0 	ldr.w	r2, [r4, #496]	; 0x1f0
  a8:	b922      	cbnz	r2, b4 <HAL_PCD_IRQHandler+0xb4>
              {
                 /* this is ZLP, so prepare EP0 for next setup */
                USB_EP0_OutStart(hpcd->Instance, 1U, (uint8_t *)hpcd->Setup);
  aa:	f504 7261 	add.w	r2, r4, #900	; 0x384
  ae:	6820      	ldr	r0, [r4, #0]
  b0:	f7ff fffe 	bl	0 <USB_EP0_OutStart>
              }              
            }
          }
          
          if(( epint & USB_OTG_DOEPINT_STUP) == USB_OTG_DOEPINT_STUP)
  b4:	f018 0f08 	tst.w	r8, #8
  b8:	d004      	beq.n	c4 <HAL_PCD_IRQHandler+0xc4>
          {
            /* Inform the upper layer that a setup packet is available */
            HAL_PCD_SetupStageCallback(hpcd);
  ba:	4620      	mov	r0, r4
  bc:	f7ff fffe 	bl	0 <HAL_PCD_IRQHandler>
            CLEAR_OUT_EP_INTR(epnum, USB_OTG_DOEPINT_STUP);
  c0:	2308      	movs	r3, #8
  c2:	60b3      	str	r3, [r6, #8]
          }
          
          if(( epint & USB_OTG_DOEPINT_OTEPDIS) == USB_OTG_DOEPINT_OTEPDIS)
  c4:	f018 0f10 	tst.w	r8, #16
          {
            CLEAR_OUT_EP_INTR(epnum, USB_OTG_DOEPINT_OTEPDIS);
  c8:	bf1c      	itt	ne
  ca:	2310      	movne	r3, #16
  cc:	60b3      	strne	r3, [r6, #8]
          {
            CLEAR_OUT_EP_INTR(epnum, USB_OTG_DOEPINT_OTEPSPR);
          }
#endif /* USB_OTG_DOEPINT_OTEPSPR */
        }
        epnum++;
  ce:	3501      	adds	r5, #1
        ep_intr >>= 1U;
  d0:	087f      	lsrs	r7, r7, #1
  d2:	3620      	adds	r6, #32
  d4:	f109 091c 	add.w	r9, r9, #28
  d8:	e7bc      	b.n	54 <HAL_PCD_IRQHandler+0x54>
  * @retval HAL status
  */
void HAL_PCD_IRQHandler(PCD_HandleTypeDef *hpcd)
{
  USB_OTG_GlobalTypeDef *USBx = hpcd->Instance;
  uint32_t i = 0U, ep_intr = 0U, epint = 0U, epnum = 0U;
  da:	4605      	mov	r5, r0
        epnum++;
        ep_intr >>= 1U;
      }
    }
    
    if(__HAL_PCD_GET_FLAG(hpcd, USB_OTG_GINTSTS_IEPINT))
  dc:	6820      	ldr	r0, [r4, #0]
  de:	f7ff fffe 	bl	0 <USB_ReadInterrupts>
  e2:	0341      	lsls	r1, r0, #13
  e4:	f140 809b 	bpl.w	21e <HAL_PCD_IRQHandler+0x21e>
    {
      /* Read in the device interrupt bits */
      ep_intr = USB_ReadDevAllInEpInterrupt(hpcd->Instance);
  e8:	6820      	ldr	r0, [r4, #0]
  ea:	f7ff fffe 	bl	0 <USB_ReadDevAllInEpInterrupt>
  ee:	4626      	mov	r6, r4
  f0:	9003      	str	r0, [sp, #12]
  f2:	f50a 6810 	add.w	r8, sl, #2304	; 0x900
      
      epnum = 0U;
  f6:	2500      	movs	r5, #0
      
      while ( ep_intr )
  f8:	9b03      	ldr	r3, [sp, #12]
  fa:	2b00      	cmp	r3, #0
  fc:	f000 808f 	beq.w	21e <HAL_PCD_IRQHandler+0x21e>
      {
        if (ep_intr & 0x1U) /* In ITR */
 100:	9b03      	ldr	r3, [sp, #12]
 102:	07da      	lsls	r2, r3, #31
 104:	f140 8083 	bpl.w	20e <HAL_PCD_IRQHandler+0x20e>
        {
          epint = USB_ReadDevInEPInterrupt(hpcd->Instance, epnum);
 108:	fa5f f985 	uxtb.w	r9, r5
 10c:	4649      	mov	r1, r9
 10e:	6820      	ldr	r0, [r4, #0]
 110:	f7ff fffe 	bl	0 <USB_ReadDevInEPInterrupt>

           if(( epint & USB_OTG_DIEPINT_XFRC) == USB_OTG_DIEPINT_XFRC)
 114:	07c3      	lsls	r3, r0, #31
      
      while ( ep_intr )
      {
        if (ep_intr & 0x1U) /* In ITR */
        {
          epint = USB_ReadDevInEPInterrupt(hpcd->Instance, epnum);
 116:	4607      	mov	r7, r0

           if(( epint & USB_OTG_DIEPINT_XFRC) == USB_OTG_DIEPINT_XFRC)
 118:	d520      	bpl.n	15c <HAL_PCD_IRQHandler+0x15c>
          {
            fifoemptymsk = 0x1U << epnum;
            USBx_DEVICE->DIEPEMPMSK &= ~fifoemptymsk;
 11a:	f8da 3834 	ldr.w	r3, [sl, #2100]	; 0x834
 11e:	2101      	movs	r1, #1
 120:	40a9      	lsls	r1, r5
 122:	ea23 0301 	bic.w	r3, r3, r1
 126:	f8ca 3834 	str.w	r3, [sl, #2100]	; 0x834
            
            CLEAR_IN_EP_INTR(epnum, USB_OTG_DIEPINT_XFRC);
 12a:	2301      	movs	r3, #1
 12c:	f8c8 3008 	str.w	r3, [r8, #8]
            
            if (hpcd->Init.dma_enable == 1U)
 130:	6923      	ldr	r3, [r4, #16]
 132:	2b01      	cmp	r3, #1
            {
              hpcd->IN_ep[epnum].xfer_buff += hpcd->IN_ep[epnum].maxpacket; 
 134:	bf01      	itttt	eq
 136:	6c72      	ldreq	r2, [r6, #68]	; 0x44
 138:	6c33      	ldreq	r3, [r6, #64]	; 0x40
 13a:	189b      	addeq	r3, r3, r2
 13c:	6473      	streq	r3, [r6, #68]	; 0x44
            }
                                      
            HAL_PCD_DataInStageCallback(hpcd, epnum);
 13e:	4649      	mov	r1, r9
 140:	4620      	mov	r0, r4
 142:	f7ff fffe 	bl	0 <HAL_PCD_IRQHandler>

            if (hpcd->Init.dma_enable == 1U)
 146:	6921      	ldr	r1, [r4, #16]
 148:	2901      	cmp	r1, #1
 14a:	d107      	bne.n	15c <HAL_PCD_IRQHandler+0x15c>
            {
              /* this is ZLP, so prepare EP0 for next setup */
              if((epnum == 0U) && (hpcd->IN_ep[epnum].xfer_len == 0U))
 14c:	b935      	cbnz	r5, 15c <HAL_PCD_IRQHandler+0x15c>
 14e:	6ce3      	ldr	r3, [r4, #76]	; 0x4c
 150:	b923      	cbnz	r3, 15c <HAL_PCD_IRQHandler+0x15c>
              {
                /* prepare to rx more setup packets */
                USB_EP0_OutStart(hpcd->Instance, 1U, (uint8_t *)hpcd->Setup);
 152:	f504 7261 	add.w	r2, r4, #900	; 0x384
 156:	6820      	ldr	r0, [r4, #0]
 158:	f7ff fffe 	bl	0 <USB_EP0_OutStart>
              }
            }           
          }
           if(( epint & USB_OTG_DIEPINT_TOC) == USB_OTG_DIEPINT_TOC)
 15c:	0738      	lsls	r0, r7, #28
          {
            CLEAR_IN_EP_INTR(epnum, USB_OTG_DIEPINT_TOC);
 15e:	bf44      	itt	mi
 160:	2308      	movmi	r3, #8
 162:	f8c8 3008 	strmi.w	r3, [r8, #8]
          }
          if(( epint & USB_OTG_DIEPINT_ITTXFE) == USB_OTG_DIEPINT_ITTXFE)
 166:	06f9      	lsls	r1, r7, #27
          {
            CLEAR_IN_EP_INTR(epnum, USB_OTG_DIEPINT_ITTXFE);
 168:	bf44      	itt	mi
 16a:	2310      	movmi	r3, #16
 16c:	f8c8 3008 	strmi.w	r3, [r8, #8]
          }
          if(( epint & USB_OTG_DIEPINT_INEPNE) == USB_OTG_DIEPINT_INEPNE)
 170:	067a      	lsls	r2, r7, #25
          {
            CLEAR_IN_EP_INTR(epnum, USB_OTG_DIEPINT_INEPNE);
 172:	bf44      	itt	mi
 174:	2340      	movmi	r3, #64	; 0x40
 176:	f8c8 3008 	strmi.w	r3, [r8, #8]
          }
          if(( epint & USB_OTG_DIEPINT_EPDISD) == USB_OTG_DIEPINT_EPDISD)
 17a:	07bb      	lsls	r3, r7, #30
          {
            CLEAR_IN_EP_INTR(epnum, USB_OTG_DIEPINT_EPDISD);
 17c:	bf44      	itt	mi
 17e:	2302      	movmi	r3, #2
 180:	f8c8 3008 	strmi.w	r3, [r8, #8]
          }       
          if(( epint & USB_OTG_DIEPINT_TXFE) == USB_OTG_DIEPINT_TXFE)
 184:	063f      	lsls	r7, r7, #24
 186:	d542      	bpl.n	20e <HAL_PCD_IRQHandler+0x20e>
  * @param  epnum : endpoint number   
  * @retval HAL status
  */
static HAL_StatusTypeDef PCD_WriteEmptyTxFifo(PCD_HandleTypeDef *hpcd, uint32_t epnum)
{
  USB_OTG_GlobalTypeDef *USBx = hpcd->Instance;  
 188:	6823      	ldr	r3, [r4, #0]
 18a:	9304      	str	r3, [sp, #16]
  int32_t len = 0U;
  uint32_t len32b;
  uint32_t fifoemptymsk = 0U;

  ep = &hpcd->IN_ep[epnum];
  len = ep->xfer_len - ep->xfer_count;
 18c:	6d37      	ldr	r7, [r6, #80]	; 0x50
 18e:	6cf3      	ldr	r3, [r6, #76]	; 0x4c
 190:	1bdb      	subs	r3, r3, r7
  
  if (len > ep->maxpacket)
 192:	6c37      	ldr	r7, [r6, #64]	; 0x40
  int32_t len = 0U;
  uint32_t len32b;
  uint32_t fifoemptymsk = 0U;

  ep = &hpcd->IN_ep[epnum];
  len = ep->xfer_len - ep->xfer_count;
 194:	429f      	cmp	r7, r3
 196:	bf28      	it	cs
 198:	461f      	movcs	r7, r3
  }
  
  
  len32b = (len + 3U) / 4U;
 
  while  ( (USBx_INEP(epnum)->DTXFSTS & USB_OTG_DTXFSTS_INEPTFSAV) > len32b &&
 19a:	9b04      	ldr	r3, [sp, #16]
 19c:	f503 6310 	add.w	r3, r3, #2304	; 0x900
  {
    len = ep->maxpacket;
  }
  
  
  len32b = (len + 3U) / 4U;
 1a0:	f107 0b03 	add.w	fp, r7, #3
 
  while  ( (USBx_INEP(epnum)->DTXFSTS & USB_OTG_DTXFSTS_INEPTFSAV) > len32b &&
 1a4:	eb03 1345 	add.w	r3, r3, r5, lsl #5
  {
    len = ep->maxpacket;
  }
  
  
  len32b = (len + 3U) / 4U;
 1a8:	ea4f 0b9b 	mov.w	fp, fp, lsr #2
 
  while  ( (USBx_INEP(epnum)->DTXFSTS & USB_OTG_DTXFSTS_INEPTFSAV) > len32b &&
 1ac:	9305      	str	r3, [sp, #20]
 1ae:	9b05      	ldr	r3, [sp, #20]
 1b0:	699b      	ldr	r3, [r3, #24]
 1b2:	b29b      	uxth	r3, r3
 1b4:	455b      	cmp	r3, fp
 1b6:	d80c      	bhi.n	1d2 <HAL_PCD_IRQHandler+0x1d2>
    
    ep->xfer_buff  += len;
    ep->xfer_count += len;
  }
  
  if(len <= 0U)
 1b8:	bb4f      	cbnz	r7, 20e <HAL_PCD_IRQHandler+0x20e>
  {
    fifoemptymsk = 0x1U << epnum;
    USBx_DEVICE->DIEPEMPMSK &= ~fifoemptymsk;
 1ba:	9b04      	ldr	r3, [sp, #16]
 1bc:	2201      	movs	r2, #1
 1be:	f503 6900 	add.w	r9, r3, #2048	; 0x800
 1c2:	f8d3 3834 	ldr.w	r3, [r3, #2100]	; 0x834
 1c6:	40aa      	lsls	r2, r5
 1c8:	ea23 0302 	bic.w	r3, r3, r2
 1cc:	f8c9 3034 	str.w	r3, [r9, #52]	; 0x34
 1d0:	e01d      	b.n	20e <HAL_PCD_IRQHandler+0x20e>
  
  
  len32b = (len + 3U) / 4U;
 
  while  ( (USBx_INEP(epnum)->DTXFSTS & USB_OTG_DTXFSTS_INEPTFSAV) > len32b &&
          ep->xfer_count < ep->xfer_len &&
 1d2:	6d32      	ldr	r2, [r6, #80]	; 0x50
 1d4:	6cf3      	ldr	r3, [r6, #76]	; 0x4c
  }
  
  
  len32b = (len + 3U) / 4U;
 
  while  ( (USBx_INEP(epnum)->DTXFSTS & USB_OTG_DTXFSTS_INEPTFSAV) > len32b &&
 1d6:	4293      	cmp	r3, r2
 1d8:	d9ee      	bls.n	1b8 <HAL_PCD_IRQHandler+0x1b8>
          ep->xfer_count < ep->xfer_len &&
 1da:	2b00      	cmp	r3, #0
 1dc:	d0ec      	beq.n	1b8 <HAL_PCD_IRQHandler+0x1b8>
            ep->xfer_len != 0U)
  {
    /* Write the FIFO */
    len = ep->xfer_len - ep->xfer_count;
    
    if (len > ep->maxpacket)
 1de:	6c37      	ldr	r7, [r6, #64]	; 0x40
    {
      len = ep->maxpacket;
    }
    len32b = (len + 3U) / 4U;
    
    USB_WritePacket(USBx, ep->xfer_buff, epnum, len, hpcd->Init.dma_enable); 
 1e0:	9804      	ldr	r0, [sp, #16]
  while  ( (USBx_INEP(epnum)->DTXFSTS & USB_OTG_DTXFSTS_INEPTFSAV) > len32b &&
          ep->xfer_count < ep->xfer_len &&
            ep->xfer_len != 0U)
  {
    /* Write the FIFO */
    len = ep->xfer_len - ep->xfer_count;
 1e2:	1a9b      	subs	r3, r3, r2
 1e4:	429f      	cmp	r7, r3
 1e6:	bf28      	it	cs
 1e8:	461f      	movcs	r7, r3
    {
      len = ep->maxpacket;
    }
    len32b = (len + 3U) / 4U;
    
    USB_WritePacket(USBx, ep->xfer_buff, epnum, len, hpcd->Init.dma_enable); 
 1ea:	7c23      	ldrb	r3, [r4, #16]
 1ec:	9300      	str	r3, [sp, #0]
 1ee:	464a      	mov	r2, r9
 1f0:	b2bb      	uxth	r3, r7
 1f2:	6c71      	ldr	r1, [r6, #68]	; 0x44
 1f4:	f7ff fffe 	bl	0 <USB_WritePacket>
    
    ep->xfer_buff  += len;
 1f8:	6c73      	ldr	r3, [r6, #68]	; 0x44
 1fa:	443b      	add	r3, r7
 1fc:	6473      	str	r3, [r6, #68]	; 0x44
    ep->xfer_count += len;
 1fe:	6d33      	ldr	r3, [r6, #80]	; 0x50
    
    if (len > ep->maxpacket)
    {
      len = ep->maxpacket;
    }
    len32b = (len + 3U) / 4U;
 200:	f107 0b03 	add.w	fp, r7, #3
    
    USB_WritePacket(USBx, ep->xfer_buff, epnum, len, hpcd->Init.dma_enable); 
    
    ep->xfer_buff  += len;
    ep->xfer_count += len;
 204:	443b      	add	r3, r7
    
    if (len > ep->maxpacket)
    {
      len = ep->maxpacket;
    }
    len32b = (len + 3U) / 4U;
 206:	ea4f 0b9b 	mov.w	fp, fp, lsr #2
    
    USB_WritePacket(USBx, ep->xfer_buff, epnum, len, hpcd->Init.dma_enable); 
    
    ep->xfer_buff  += len;
    ep->xfer_count += len;
 20a:	6533      	str	r3, [r6, #80]	; 0x50
 20c:	e7cf      	b.n	1ae <HAL_PCD_IRQHandler+0x1ae>
          {
            PCD_WriteEmptyTxFifo(hpcd , epnum);
          }
        }
        epnum++;
        ep_intr >>= 1U;
 20e:	9b03      	ldr	r3, [sp, #12]
 210:	085b      	lsrs	r3, r3, #1
          if(( epint & USB_OTG_DIEPINT_TXFE) == USB_OTG_DIEPINT_TXFE)
          {
            PCD_WriteEmptyTxFifo(hpcd , epnum);
          }
        }
        epnum++;
 212:	3501      	adds	r5, #1
        ep_intr >>= 1U;
 214:	9303      	str	r3, [sp, #12]
 216:	361c      	adds	r6, #28
 218:	f108 0820 	add.w	r8, r8, #32
 21c:	e76c      	b.n	f8 <HAL_PCD_IRQHandler+0xf8>
      }
    }
    
    /* Handle Resume Interrupt */
    if(__HAL_PCD_GET_FLAG(hpcd, USB_OTG_GINTSTS_WKUINT))
 21e:	6820      	ldr	r0, [r4, #0]
 220:	f7ff fffe 	bl	0 <USB_ReadInterrupts>
 224:	2800      	cmp	r0, #0
 226:	da0d      	bge.n	244 <HAL_PCD_IRQHandler+0x244>
    {    
      /* Clear the Remote Wake-up Signaling */
      USBx_DEVICE->DCTL &= ~USB_OTG_DCTL_RWUSIG;
 228:	f8da 3804 	ldr.w	r3, [sl, #2052]	; 0x804
 22c:	f023 0301 	bic.w	r3, r3, #1
 230:	f8ca 3804 	str.w	r3, [sl, #2052]	; 0x804
        HAL_PCDEx_LPM_Callback(hpcd, PCD_LPM_L0_ACTIVE);
      }
      else
#endif /* USB_OTG_GLPMCFG_LPMEN */
      {
        HAL_PCD_ResumeCallback(hpcd);
 234:	4620      	mov	r0, r4
 236:	f7ff fffe 	bl	0 <HAL_PCD_IRQHandler>
      }
      
      __HAL_PCD_CLEAR_FLAG(hpcd, USB_OTG_GINTSTS_WKUINT);
 23a:	6822      	ldr	r2, [r4, #0]
 23c:	6953      	ldr	r3, [r2, #20]
 23e:	f003 4300 	and.w	r3, r3, #2147483648	; 0x80000000
 242:	6153      	str	r3, [r2, #20]
    }
    
    /* Handle Suspend Interrupt */
    if(__HAL_PCD_GET_FLAG(hpcd, USB_OTG_GINTSTS_USBSUSP))
 244:	6820      	ldr	r0, [r4, #0]
 246:	f7ff fffe 	bl	0 <USB_ReadInterrupts>
 24a:	0506      	lsls	r6, r0, #20
 24c:	d50b      	bpl.n	266 <HAL_PCD_IRQHandler+0x266>
    {
      if((USBx_DEVICE->DSTS & USB_OTG_DSTS_SUSPSTS) == USB_OTG_DSTS_SUSPSTS)
 24e:	f8da 3808 	ldr.w	r3, [sl, #2056]	; 0x808
 252:	07d8      	lsls	r0, r3, #31
 254:	d502      	bpl.n	25c <HAL_PCD_IRQHandler+0x25c>
      {
        
        HAL_PCD_SuspendCallback(hpcd);
 256:	4620      	mov	r0, r4
 258:	f7ff fffe 	bl	0 <HAL_PCD_IRQHandler>
      }
      __HAL_PCD_CLEAR_FLAG(hpcd, USB_OTG_GINTSTS_USBSUSP);
 25c:	6822      	ldr	r2, [r4, #0]
 25e:	6953      	ldr	r3, [r2, #20]
 260:	f403 6300 	and.w	r3, r3, #2048	; 0x800
 264:	6153      	str	r3, [r2, #20]
      }
    }
#endif /* USB_OTG_GLPMCFG_LPMEN */

    /* Handle Reset Interrupt */
    if(__HAL_PCD_GET_FLAG(hpcd, USB_OTG_GINTSTS_USBRST))
 266:	6820      	ldr	r0, [r4, #0]
 268:	f7ff fffe 	bl	0 <USB_ReadInterrupts>
 26c:	04c1      	lsls	r1, r0, #19
 26e:	d543      	bpl.n	2f8 <HAL_PCD_IRQHandler+0x2f8>
    {
      USBx_DEVICE->DCTL &= ~USB_OTG_DCTL_RWUSIG; 
 270:	f50a 6600 	add.w	r6, sl, #2048	; 0x800
 274:	6873      	ldr	r3, [r6, #4]
 276:	f023 0301 	bic.w	r3, r3, #1
 27a:	6073      	str	r3, [r6, #4]
      USB_FlushTxFifo(hpcd->Instance , 0U);
 27c:	2100      	movs	r1, #0
 27e:	6820      	ldr	r0, [r4, #0]
 280:	f7ff fffe 	bl	0 <USB_FlushTxFifo>
 284:	f50a 6310 	add.w	r3, sl, #2304	; 0x900
      
      for (i = 0U; i < hpcd->Init.dev_endpoints; i++)
 288:	2200      	movs	r2, #0
      {
        USBx_INEP(i)->DIEPINT = 0xFFU;
 28a:	21ff      	movs	r1, #255	; 0xff
    if(__HAL_PCD_GET_FLAG(hpcd, USB_OTG_GINTSTS_USBRST))
    {
      USBx_DEVICE->DCTL &= ~USB_OTG_DCTL_RWUSIG; 
      USB_FlushTxFifo(hpcd->Instance , 0U);
      
      for (i = 0U; i < hpcd->Init.dev_endpoints; i++)
 28c:	6860      	ldr	r0, [r4, #4]
 28e:	4282      	cmp	r2, r0
 290:	d205      	bcs.n	29e <HAL_PCD_IRQHandler+0x29e>
      {
        USBx_INEP(i)->DIEPINT = 0xFFU;
 292:	6099      	str	r1, [r3, #8]
    if(__HAL_PCD_GET_FLAG(hpcd, USB_OTG_GINTSTS_USBRST))
    {
      USBx_DEVICE->DCTL &= ~USB_OTG_DCTL_RWUSIG; 
      USB_FlushTxFifo(hpcd->Instance , 0U);
      
      for (i = 0U; i < hpcd->Init.dev_endpoints; i++)
 294:	3201      	adds	r2, #1
      {
        USBx_INEP(i)->DIEPINT = 0xFFU;
        USBx_OUTEP(i)->DOEPINT = 0xFFU;
 296:	f8c3 1208 	str.w	r1, [r3, #520]	; 0x208
 29a:	3320      	adds	r3, #32
 29c:	e7f6      	b.n	28c <HAL_PCD_IRQHandler+0x28c>
      }
      USBx_DEVICE->DAINT = 0xFFFFFFFFU;
 29e:	f04f 33ff 	mov.w	r3, #4294967295
 2a2:	61b3      	str	r3, [r6, #24]
      USBx_DEVICE->DAINTMSK |= 0x10001U;
 2a4:	69f3      	ldr	r3, [r6, #28]
 2a6:	f043 1301 	orr.w	r3, r3, #65537	; 0x10001
 2aa:	61f3      	str	r3, [r6, #28]
      
      if(hpcd->Init.use_dedicated_ep1)
 2ac:	6b23      	ldr	r3, [r4, #48]	; 0x30
 2ae:	b153      	cbz	r3, 2c6 <HAL_PCD_IRQHandler+0x2c6>
      {
        USBx_DEVICE->DOUTEP1MSK |= (USB_OTG_DOEPMSK_STUPM | USB_OTG_DOEPMSK_XFRCM | USB_OTG_DOEPMSK_EPDM); 
 2b0:	f8d6 3084 	ldr.w	r3, [r6, #132]	; 0x84
 2b4:	f043 030b 	orr.w	r3, r3, #11
 2b8:	f8c6 3084 	str.w	r3, [r6, #132]	; 0x84
        USBx_DEVICE->DINEP1MSK |= (USB_OTG_DIEPMSK_TOM | USB_OTG_DIEPMSK_XFRCM | USB_OTG_DIEPMSK_EPDM);  
 2bc:	6c73      	ldr	r3, [r6, #68]	; 0x44
 2be:	f043 030b 	orr.w	r3, r3, #11
 2c2:	6473      	str	r3, [r6, #68]	; 0x44
 2c4:	e007      	b.n	2d6 <HAL_PCD_IRQHandler+0x2d6>
      else
      {
#ifdef USB_OTG_DOEPINT_OTEPSPR
        USBx_DEVICE->DOEPMSK |= (USB_OTG_DOEPMSK_STUPM | USB_OTG_DOEPMSK_XFRCM | USB_OTG_DOEPMSK_EPDM | USB_OTG_DOEPMSK_OTEPSPRM);
#else
        USBx_DEVICE->DOEPMSK |= (USB_OTG_DOEPMSK_STUPM | USB_OTG_DOEPMSK_XFRCM | USB_OTG_DOEPMSK_EPDM);
 2c6:	6973      	ldr	r3, [r6, #20]
 2c8:	f043 030b 	orr.w	r3, r3, #11
 2cc:	6173      	str	r3, [r6, #20]
#endif /* USB_OTG_DOEPINT_OTEPSPR */
        USBx_DEVICE->DIEPMSK |= (USB_OTG_DIEPMSK_TOM | USB_OTG_DIEPMSK_XFRCM | USB_OTG_DIEPMSK_EPDM);
 2ce:	6933      	ldr	r3, [r6, #16]
 2d0:	f043 030b 	orr.w	r3, r3, #11
 2d4:	6133      	str	r3, [r6, #16]
      }
      
      /* Set Default Address to 0 */
      USBx_DEVICE->DCFG &= ~USB_OTG_DCFG_DAD;
 2d6:	f8da 3800 	ldr.w	r3, [sl, #2048]	; 0x800
 2da:	f423 63fe 	bic.w	r3, r3, #2032	; 0x7f0
 2de:	f8ca 3800 	str.w	r3, [sl, #2048]	; 0x800
      
      /* setup EP0 to receive SETUP packets */
      USB_EP0_OutStart(hpcd->Instance, hpcd->Init.dma_enable, (uint8_t *)hpcd->Setup);
 2e2:	f504 7261 	add.w	r2, r4, #900	; 0x384
 2e6:	7c21      	ldrb	r1, [r4, #16]
 2e8:	6820      	ldr	r0, [r4, #0]
 2ea:	f7ff fffe 	bl	0 <USB_EP0_OutStart>
        
      __HAL_PCD_CLEAR_FLAG(hpcd, USB_OTG_GINTSTS_USBRST);
 2ee:	6822      	ldr	r2, [r4, #0]
 2f0:	6953      	ldr	r3, [r2, #20]
 2f2:	f403 5380 	and.w	r3, r3, #4096	; 0x1000
 2f6:	6153      	str	r3, [r2, #20]
    }
    
    /* Handle Enumeration done Interrupt */
    if(__HAL_PCD_GET_FLAG(hpcd, USB_OTG_GINTSTS_ENUMDNE))
 2f8:	6820      	ldr	r0, [r4, #0]
 2fa:	f7ff fffe 	bl	0 <USB_ReadInterrupts>
 2fe:	0482      	lsls	r2, r0, #18
 300:	d57d      	bpl.n	3fe <HAL_PCD_IRQHandler+0x3fe>
    {
      USB_ActivateSetup(hpcd->Instance);
 302:	6820      	ldr	r0, [r4, #0]
 304:	f7ff fffe 	bl	0 <USB_ActivateSetup>
      hpcd->Instance->GUSBCFG &= ~USB_OTG_GUSBCFG_TRDT;
 308:	6822      	ldr	r2, [r4, #0]
 30a:	68d3      	ldr	r3, [r2, #12]
 30c:	f423 5370 	bic.w	r3, r3, #15360	; 0x3c00
 310:	60d3      	str	r3, [r2, #12]
      
      if ( USB_GetDevSpeed(hpcd->Instance) == USB_OTG_SPEED_HIGH)
 312:	6820      	ldr	r0, [r4, #0]
 314:	f7ff fffe 	bl	0 <USB_GetDevSpeed>
 318:	b948      	cbnz	r0, 32e <HAL_PCD_IRQHandler+0x32e>
      {
        hpcd->Init.speed            = USB_OTG_SPEED_HIGH;
        hpcd->Init.ep0_mps          = USB_OTG_HS_MAX_PACKET_SIZE ;    
 31a:	f44f 7300 	mov.w	r3, #512	; 0x200
        hpcd->Instance->GUSBCFG |= (uint32_t)((USBD_HS_TRDT_VALUE << 10U) & USB_OTG_GUSBCFG_TRDT);
 31e:	6822      	ldr	r2, [r4, #0]
      USB_ActivateSetup(hpcd->Instance);
      hpcd->Instance->GUSBCFG &= ~USB_OTG_GUSBCFG_TRDT;
      
      if ( USB_GetDevSpeed(hpcd->Instance) == USB_OTG_SPEED_HIGH)
      {
        hpcd->Init.speed            = USB_OTG_SPEED_HIGH;
 320:	60e0      	str	r0, [r4, #12]
        hpcd->Init.ep0_mps          = USB_OTG_HS_MAX_PACKET_SIZE ;    
 322:	6163      	str	r3, [r4, #20]
        hpcd->Instance->GUSBCFG |= (uint32_t)((USBD_HS_TRDT_VALUE << 10U) & USB_OTG_GUSBCFG_TRDT);
 324:	68d3      	ldr	r3, [r2, #12]
 326:	f443 5310 	orr.w	r3, r3, #9216	; 0x2400
 32a:	60d3      	str	r3, [r2, #12]
 32c:	e05f      	b.n	3ee <HAL_PCD_IRQHandler+0x3ee>
      }
      else
      {
        hpcd->Init.speed            = USB_OTG_SPEED_FULL;
 32e:	2303      	movs	r3, #3
 330:	60e3      	str	r3, [r4, #12]
        hpcd->Init.ep0_mps          = USB_OTG_FS_MAX_PACKET_SIZE ;  
 332:	2340      	movs	r3, #64	; 0x40
 334:	6163      	str	r3, [r4, #20]
        used by application. In the low AHB frequency range it is used to stretch enough the USB response 
        time to IN tokens, the USB turnaround time, so to compensate for the longer AHB read access 
        latency to the Data FIFO */
        
        /* Get hclk frequency value */
        hclk = HAL_RCC_GetHCLKFreq();
 336:	f7ff fffe 	bl	0 <HAL_RCC_GetHCLKFreq>
		
        if((hclk >= 14200000)&&(hclk < 15000000))
 33a:	4b74      	ldr	r3, [pc, #464]	; (50c <HAL_PCD_IRQHandler+0x50c>)
 33c:	4a74      	ldr	r2, [pc, #464]	; (510 <HAL_PCD_IRQHandler+0x510>)
 33e:	4403      	add	r3, r0
 340:	4293      	cmp	r3, r2
 342:	6823      	ldr	r3, [r4, #0]
 344:	d803      	bhi.n	34e <HAL_PCD_IRQHandler+0x34e>
        {
          /* hclk Clock Range between 14.2-15 MHz */
          hpcd->Instance->GUSBCFG |= (uint32_t)((0xF << 10) & USB_OTG_GUSBCFG_TRDT);
 346:	68da      	ldr	r2, [r3, #12]
 348:	f442 5270 	orr.w	r2, r2, #15360	; 0x3c00
 34c:	e04e      	b.n	3ec <HAL_PCD_IRQHandler+0x3ec>
        }
        
        else if((hclk >= 15000000)&&(hclk < 16000000))
 34e:	4a71      	ldr	r2, [pc, #452]	; (514 <HAL_PCD_IRQHandler+0x514>)
 350:	4971      	ldr	r1, [pc, #452]	; (518 <HAL_PCD_IRQHandler+0x518>)
 352:	4402      	add	r2, r0
 354:	428a      	cmp	r2, r1
 356:	d803      	bhi.n	360 <HAL_PCD_IRQHandler+0x360>
        {
          /* hclk Clock Range between 15-16 MHz */
          hpcd->Instance->GUSBCFG |= (uint32_t)((0xE << 10) & USB_OTG_GUSBCFG_TRDT);
 358:	68da      	ldr	r2, [r3, #12]
 35a:	f442 5260 	orr.w	r2, r2, #14336	; 0x3800
 35e:	e045      	b.n	3ec <HAL_PCD_IRQHandler+0x3ec>
        }
        
        else if((hclk >= 16000000)&&(hclk < 17200000))
 360:	f5a0 0274 	sub.w	r2, r0, #15990784	; 0xf40000
 364:	496d      	ldr	r1, [pc, #436]	; (51c <HAL_PCD_IRQHandler+0x51c>)
 366:	f5a2 5210 	sub.w	r2, r2, #9216	; 0x2400
 36a:	428a      	cmp	r2, r1
 36c:	d803      	bhi.n	376 <HAL_PCD_IRQHandler+0x376>
        {
          /* hclk Clock Range between 16-17.2 MHz */
          hpcd->Instance->GUSBCFG |= (uint32_t)((0xD << 10) & USB_OTG_GUSBCFG_TRDT);
 36e:	68da      	ldr	r2, [r3, #12]
 370:	f442 5250 	orr.w	r2, r2, #13312	; 0x3400
 374:	e03a      	b.n	3ec <HAL_PCD_IRQHandler+0x3ec>
        }
        
        else if((hclk >= 17200000)&&(hclk < 18500000))
 376:	f1a0 7283 	sub.w	r2, r0, #17170432	; 0x1060000
 37a:	4969      	ldr	r1, [pc, #420]	; (520 <HAL_PCD_IRQHandler+0x520>)
 37c:	f5a2 42e7 	sub.w	r2, r2, #29568	; 0x7380
 380:	428a      	cmp	r2, r1
 382:	d803      	bhi.n	38c <HAL_PCD_IRQHandler+0x38c>
        {
          /* hclk Clock Range between 17.2-18.5 MHz */
          hpcd->Instance->GUSBCFG |= (uint32_t)((0xC << 10) & USB_OTG_GUSBCFG_TRDT);
 384:	68da      	ldr	r2, [r3, #12]
 386:	f442 5240 	orr.w	r2, r2, #12288	; 0x3000
 38a:	e02f      	b.n	3ec <HAL_PCD_IRQHandler+0x3ec>
        }
        
        else if((hclk >= 18500000)&&(hclk < 20000000))
 38c:	4a65      	ldr	r2, [pc, #404]	; (524 <HAL_PCD_IRQHandler+0x524>)
 38e:	4966      	ldr	r1, [pc, #408]	; (528 <HAL_PCD_IRQHandler+0x528>)
 390:	4402      	add	r2, r0
 392:	428a      	cmp	r2, r1
 394:	d803      	bhi.n	39e <HAL_PCD_IRQHandler+0x39e>
        {
          /* hclk Clock Range between 18.5-20 MHz */
          hpcd->Instance->GUSBCFG |= (uint32_t)((0xB << 10) & USB_OTG_GUSBCFG_TRDT);
 396:	68da      	ldr	r2, [r3, #12]
 398:	f442 5230 	orr.w	r2, r2, #11264	; 0x2c00
 39c:	e026      	b.n	3ec <HAL_PCD_IRQHandler+0x3ec>
        }
        
        else if((hclk >= 20000000)&&(hclk < 21800000))
 39e:	4a63      	ldr	r2, [pc, #396]	; (52c <HAL_PCD_IRQHandler+0x52c>)
 3a0:	4963      	ldr	r1, [pc, #396]	; (530 <HAL_PCD_IRQHandler+0x530>)
 3a2:	4402      	add	r2, r0
 3a4:	428a      	cmp	r2, r1
 3a6:	d803      	bhi.n	3b0 <HAL_PCD_IRQHandler+0x3b0>
        {
          /* hclk Clock Range between 20-21.8 MHz */
          hpcd->Instance->GUSBCFG |= (uint32_t)((0xA << 10) & USB_OTG_GUSBCFG_TRDT);
 3a8:	68da      	ldr	r2, [r3, #12]
 3aa:	f442 5220 	orr.w	r2, r2, #10240	; 0x2800
 3ae:	e01d      	b.n	3ec <HAL_PCD_IRQHandler+0x3ec>
        }
        
        else if((hclk >= 21800000)&&(hclk < 24000000))
 3b0:	4a60      	ldr	r2, [pc, #384]	; (534 <HAL_PCD_IRQHandler+0x534>)
 3b2:	4961      	ldr	r1, [pc, #388]	; (538 <HAL_PCD_IRQHandler+0x538>)
 3b4:	4402      	add	r2, r0
 3b6:	428a      	cmp	r2, r1
 3b8:	d803      	bhi.n	3c2 <HAL_PCD_IRQHandler+0x3c2>
        {
          /* hclk Clock Range between 21.8-24 MHz */
          hpcd->Instance->GUSBCFG |= (uint32_t)((0x9 << 10) & USB_OTG_GUSBCFG_TRDT);
 3ba:	68da      	ldr	r2, [r3, #12]
 3bc:	f442 5210 	orr.w	r2, r2, #9216	; 0x2400
 3c0:	e014      	b.n	3ec <HAL_PCD_IRQHandler+0x3ec>
        }
        
        else if((hclk >= 24000000)&&(hclk < 27700000))
 3c2:	f1a0 72b7 	sub.w	r2, r0, #23986176	; 0x16e0000
 3c6:	495d      	ldr	r1, [pc, #372]	; (53c <HAL_PCD_IRQHandler+0x53c>)
 3c8:	f5a2 5258 	sub.w	r2, r2, #13824	; 0x3600
 3cc:	428a      	cmp	r2, r1
 3ce:	d803      	bhi.n	3d8 <HAL_PCD_IRQHandler+0x3d8>
        {
          /* hclk Clock Range between 24-27.7 MHz */
          hpcd->Instance->GUSBCFG |= (uint32_t)((0x8 << 10) & USB_OTG_GUSBCFG_TRDT);
 3d0:	68da      	ldr	r2, [r3, #12]
 3d2:	f442 5200 	orr.w	r2, r2, #8192	; 0x2000
 3d6:	e009      	b.n	3ec <HAL_PCD_IRQHandler+0x3ec>
        }
        
        else if((hclk >= 27700000)&&(hclk < 32000000))
 3d8:	4a59      	ldr	r2, [pc, #356]	; (540 <HAL_PCD_IRQHandler+0x540>)
 3da:	495a      	ldr	r1, [pc, #360]	; (544 <HAL_PCD_IRQHandler+0x544>)
 3dc:	4402      	add	r2, r0
 3de:	428a      	cmp	r2, r1
        {
          /* hclk Clock Range between 27.7-32 MHz */
          hpcd->Instance->GUSBCFG |= (uint32_t)((0x7 << 10) & USB_OTG_GUSBCFG_TRDT);
 3e0:	68da      	ldr	r2, [r3, #12]
 3e2:	bf94      	ite	ls
 3e4:	f442 52e0 	orrls.w	r2, r2, #7168	; 0x1c00
        }
        
        else /* if(hclk >= 32000000) */
        {
          /* hclk Clock Range between 32-180 MHz */
          hpcd->Instance->GUSBCFG |= (uint32_t)((0x6 << 10) & USB_OTG_GUSBCFG_TRDT);
 3e8:	f442 52c0 	orrhi.w	r2, r2, #6144	; 0x1800
 3ec:	60da      	str	r2, [r3, #12]
        }  
      }
      
      HAL_PCD_ResetCallback(hpcd);
 3ee:	4620      	mov	r0, r4
 3f0:	f7ff fffe 	bl	0 <HAL_PCD_IRQHandler>
      
      __HAL_PCD_CLEAR_FLAG(hpcd, USB_OTG_GINTSTS_ENUMDNE);
 3f4:	6822      	ldr	r2, [r4, #0]
 3f6:	6953      	ldr	r3, [r2, #20]
 3f8:	f403 5300 	and.w	r3, r3, #8192	; 0x2000
 3fc:	6153      	str	r3, [r2, #20]
    }

    /* Handle RxQLevel Interrupt */
    if(__HAL_PCD_GET_FLAG(hpcd, USB_OTG_GINTSTS_RXFLVL))
 3fe:	6820      	ldr	r0, [r4, #0]
 400:	f7ff fffe 	bl	0 <USB_ReadInterrupts>
 404:	06c3      	lsls	r3, r0, #27
 406:	d538      	bpl.n	47a <HAL_PCD_IRQHandler+0x47a>
    {
      USB_MASK_INTERRUPT(hpcd->Instance, USB_OTG_GINTSTS_RXFLVL);
 408:	6822      	ldr	r2, [r4, #0]
 40a:	6993      	ldr	r3, [r2, #24]
 40c:	f023 0310 	bic.w	r3, r3, #16
 410:	6193      	str	r3, [r2, #24]
      
      temp = USBx->GRXSTSP;
 412:	f8da 6020 	ldr.w	r6, [sl, #32]
      
      ep = &hpcd->OUT_ep[temp & USB_OTG_GRXSTSP_EPNUM];
      
      if(((temp & USB_OTG_GRXSTSP_PKTSTS) >> 17U) ==  STS_DATA_UPDT)
 416:	f3c6 4343 	ubfx	r3, r6, #17, #4
 41a:	2b02      	cmp	r3, #2
    {
      USB_MASK_INTERRUPT(hpcd->Instance, USB_OTG_GINTSTS_RXFLVL);
      
      temp = USBx->GRXSTSP;
      
      ep = &hpcd->OUT_ep[temp & USB_OTG_GRXSTSP_EPNUM];
 41c:	f006 070f 	and.w	r7, r6, #15
      
      if(((temp & USB_OTG_GRXSTSP_PKTSTS) >> 17U) ==  STS_DATA_UPDT)
 420:	d114      	bne.n	44c <HAL_PCD_IRQHandler+0x44c>
      {
        if((temp & USB_OTG_GRXSTSP_BCNT) != 0U)
 422:	f647 73f0 	movw	r3, #32752	; 0x7ff0
 426:	4033      	ands	r3, r6
 428:	b313      	cbz	r3, 470 <HAL_PCD_IRQHandler+0x470>
        {
          USB_ReadPacket(USBx, ep->xfer_buff, (temp & USB_OTG_GRXSTSP_BCNT) >> 4U);
 42a:	231c      	movs	r3, #28
 42c:	fb03 4707 	mla	r7, r3, r7, r4
 430:	f3c6 160a 	ubfx	r6, r6, #4, #11
 434:	4632      	mov	r2, r6
 436:	f8d7 11e8 	ldr.w	r1, [r7, #488]	; 0x1e8
 43a:	4650      	mov	r0, sl
 43c:	f7ff fffe 	bl	0 <USB_ReadPacket>
          ep->xfer_buff += (temp & USB_OTG_GRXSTSP_BCNT) >> 4U;
 440:	f8d7 31e8 	ldr.w	r3, [r7, #488]	; 0x1e8
 444:	4433      	add	r3, r6
 446:	f8c7 31e8 	str.w	r3, [r7, #488]	; 0x1e8
 44a:	e00c      	b.n	466 <HAL_PCD_IRQHandler+0x466>
          ep->xfer_count += (temp & USB_OTG_GRXSTSP_BCNT) >> 4U;
        }
      }
      else if (((temp & USB_OTG_GRXSTSP_PKTSTS) >> 17U) ==  STS_SETUP_UPDT)
 44c:	2b06      	cmp	r3, #6
 44e:	d10f      	bne.n	470 <HAL_PCD_IRQHandler+0x470>
      {
        USB_ReadPacket(USBx, (uint8_t *)hpcd->Setup, 8U);
 450:	2208      	movs	r2, #8
 452:	f504 7161 	add.w	r1, r4, #900	; 0x384
 456:	4650      	mov	r0, sl
 458:	f7ff fffe 	bl	0 <USB_ReadPacket>
        ep->xfer_count += (temp & USB_OTG_GRXSTSP_BCNT) >> 4U;
 45c:	231c      	movs	r3, #28
 45e:	fb03 4707 	mla	r7, r3, r7, r4
 462:	f3c6 160a 	ubfx	r6, r6, #4, #11
 466:	f8d7 31f4 	ldr.w	r3, [r7, #500]	; 0x1f4
 46a:	441e      	add	r6, r3
 46c:	f8c7 61f4 	str.w	r6, [r7, #500]	; 0x1f4
      }
      USB_UNMASK_INTERRUPT(hpcd->Instance, USB_OTG_GINTSTS_RXFLVL);
 470:	6822      	ldr	r2, [r4, #0]
 472:	6993      	ldr	r3, [r2, #24]
 474:	f043 0310 	orr.w	r3, r3, #16
 478:	6193      	str	r3, [r2, #24]
    }
    
    /* Handle SOF Interrupt */
    if(__HAL_PCD_GET_FLAG(hpcd, USB_OTG_GINTSTS_SOF))
 47a:	6820      	ldr	r0, [r4, #0]
 47c:	f7ff fffe 	bl	0 <USB_ReadInterrupts>
 480:	0707      	lsls	r7, r0, #28
 482:	d507      	bpl.n	494 <HAL_PCD_IRQHandler+0x494>
    {
      HAL_PCD_SOFCallback(hpcd);
 484:	4620      	mov	r0, r4
 486:	f7ff fffe 	bl	0 <HAL_PCD_IRQHandler>
      __HAL_PCD_CLEAR_FLAG(hpcd, USB_OTG_GINTSTS_SOF);
 48a:	6822      	ldr	r2, [r4, #0]
 48c:	6953      	ldr	r3, [r2, #20]
 48e:	f003 0308 	and.w	r3, r3, #8
 492:	6153      	str	r3, [r2, #20]
    }
    
    /* Handle Incomplete ISO IN Interrupt */
    if(__HAL_PCD_GET_FLAG(hpcd, USB_OTG_GINTSTS_IISOIXFR))
 494:	6820      	ldr	r0, [r4, #0]
 496:	f7ff fffe 	bl	0 <USB_ReadInterrupts>
 49a:	02c6      	lsls	r6, r0, #11
 49c:	d508      	bpl.n	4b0 <HAL_PCD_IRQHandler+0x4b0>
    {
      HAL_PCD_ISOINIncompleteCallback(hpcd, epnum);
 49e:	b2e9      	uxtb	r1, r5
 4a0:	4620      	mov	r0, r4
 4a2:	f7ff fffe 	bl	0 <HAL_PCD_IRQHandler>
      __HAL_PCD_CLEAR_FLAG(hpcd, USB_OTG_GINTSTS_IISOIXFR);
 4a6:	6822      	ldr	r2, [r4, #0]
 4a8:	6953      	ldr	r3, [r2, #20]
 4aa:	f403 1380 	and.w	r3, r3, #1048576	; 0x100000
 4ae:	6153      	str	r3, [r2, #20]
    } 
    
    /* Handle Incomplete ISO OUT Interrupt */
    if(__HAL_PCD_GET_FLAG(hpcd, USB_OTG_GINTSTS_PXFR_INCOMPISOOUT))
 4b0:	6820      	ldr	r0, [r4, #0]
 4b2:	f7ff fffe 	bl	0 <USB_ReadInterrupts>
 4b6:	0280      	lsls	r0, r0, #10
 4b8:	d508      	bpl.n	4cc <HAL_PCD_IRQHandler+0x4cc>
    {
      HAL_PCD_ISOOUTIncompleteCallback(hpcd, epnum);
 4ba:	b2e9      	uxtb	r1, r5
 4bc:	4620      	mov	r0, r4
 4be:	f7ff fffe 	bl	0 <HAL_PCD_IRQHandler>
      __HAL_PCD_CLEAR_FLAG(hpcd, USB_OTG_GINTSTS_PXFR_INCOMPISOOUT);
 4c2:	6822      	ldr	r2, [r4, #0]
 4c4:	6953      	ldr	r3, [r2, #20]
 4c6:	f403 1300 	and.w	r3, r3, #2097152	; 0x200000
 4ca:	6153      	str	r3, [r2, #20]
    } 
    
    /* Handle Connection event Interrupt */
    if(__HAL_PCD_GET_FLAG(hpcd, USB_OTG_GINTSTS_SRQINT))
 4cc:	6820      	ldr	r0, [r4, #0]
 4ce:	f7ff fffe 	bl	0 <USB_ReadInterrupts>
 4d2:	0041      	lsls	r1, r0, #1
 4d4:	d507      	bpl.n	4e6 <HAL_PCD_IRQHandler+0x4e6>
    {
      HAL_PCD_ConnectCallback(hpcd);
 4d6:	4620      	mov	r0, r4
 4d8:	f7ff fffe 	bl	0 <HAL_PCD_IRQHandler>
      __HAL_PCD_CLEAR_FLAG(hpcd, USB_OTG_GINTSTS_SRQINT);
 4dc:	6822      	ldr	r2, [r4, #0]
 4de:	6953      	ldr	r3, [r2, #20]
 4e0:	f003 4380 	and.w	r3, r3, #1073741824	; 0x40000000
 4e4:	6153      	str	r3, [r2, #20]
    } 
    
    /* Handle Disconnection event Interrupt */
    if(__HAL_PCD_GET_FLAG(hpcd, USB_OTG_GINTSTS_OTGINT))
 4e6:	6820      	ldr	r0, [r4, #0]
 4e8:	f7ff fffe 	bl	0 <USB_ReadInterrupts>
 4ec:	0742      	lsls	r2, r0, #29
 4ee:	d50a      	bpl.n	506 <HAL_PCD_IRQHandler+0x506>
    {
      temp = hpcd->Instance->GOTGINT;
 4f0:	6823      	ldr	r3, [r4, #0]
 4f2:	685d      	ldr	r5, [r3, #4]
      
      if((temp & USB_OTG_GOTGINT_SEDET) == USB_OTG_GOTGINT_SEDET)
 4f4:	076b      	lsls	r3, r5, #29
 4f6:	d502      	bpl.n	4fe <HAL_PCD_IRQHandler+0x4fe>
      {
        HAL_PCD_DisconnectCallback(hpcd);
 4f8:	4620      	mov	r0, r4
 4fa:	f7ff fffe 	bl	0 <HAL_PCD_IRQHandler>
      }
      hpcd->Instance->GOTGINT |= temp;
 4fe:	6822      	ldr	r2, [r4, #0]
 500:	6853      	ldr	r3, [r2, #4]
 502:	432b      	orrs	r3, r5
 504:	6053      	str	r3, [r2, #4]
    }
  }
}
 506:	b007      	add	sp, #28
 508:	e8bd 8ff0 	ldmia.w	sp!, {r4, r5, r6, r7, r8, r9, sl, fp, pc}
 50c:	ff275340 	.word	0xff275340
 510:	000c34ff 	.word	0x000c34ff
 514:	ff1b1e40 	.word	0xff1b1e40
 518:	000f423f 	.word	0x000f423f
 51c:	00124f7f 	.word	0x00124f7f
 520:	0013d61f 	.word	0x0013d61f
 524:	fee5b660 	.word	0xfee5b660
 528:	0016e35f 	.word	0x0016e35f
 52c:	feced300 	.word	0xfeced300
 530:	001b773f 	.word	0x001b773f
 534:	feb35bc0 	.word	0xfeb35bc0
 538:	002191bf 	.word	0x002191bf
 53c:	0038751f 	.word	0x0038751f
 540:	fe5954e0 	.word	0xfe5954e0
 544:	00419cdf 	.word	0x00419cdf

Disassembly of section .text.HAL_PCD_DevConnect:

00000000 <HAL_PCD_DevConnect>:
  * @brief  Handles PCD interrupt request.
  * @param  hpcd: PCD handle
  * @retval HAL status
  */
void HAL_PCD_IRQHandler(PCD_HandleTypeDef *hpcd)
{
   0:	b510      	push	{r4, lr}
   2:	f890 3380 	ldrb.w	r3, [r0, #896]	; 0x380
  USB_OTG_GlobalTypeDef *USBx = hpcd->Instance;
   6:	2b01      	cmp	r3, #1
  * @brief  Handles PCD interrupt request.
  * @param  hpcd: PCD handle
  * @retval HAL status
  */
void HAL_PCD_IRQHandler(PCD_HandleTypeDef *hpcd)
{
   8:	4604      	mov	r4, r0
   a:	d009      	beq.n	20 <HAL_PCD_DevConnect+0x20>
  uint32_t fifoemptymsk = 0U, temp = 0U;
  USB_OTG_EPTypeDef *ep;
  uint32_t hclk = 180000000;
  
  /* ensure that we are in device mode */
  if (USB_GetMode(hpcd->Instance) == USB_OTG_MODE_DEVICE)
   c:	2301      	movs	r3, #1
   e:	f880 3380 	strb.w	r3, [r0, #896]	; 0x380
  12:	6800      	ldr	r0, [r0, #0]
  14:	f7ff fffe 	bl	0 <USB_DevConnect>
  {    
    /* avoid spurious interrupt */
    if(__HAL_PCD_IS_INVALID_INTERRUPT(hpcd)) 
  18:	2000      	movs	r0, #0
  1a:	f884 0380 	strb.w	r0, [r4, #896]	; 0x380
  1e:	bd10      	pop	{r4, pc}
  20:	2002      	movs	r0, #2
  22:	bd10      	pop	{r4, pc}

Disassembly of section .text.HAL_PCD_DevDisconnect:

00000000 <HAL_PCD_DevDisconnect>:
  * @brief  Handles PCD interrupt request.
  * @param  hpcd: PCD handle
  * @retval HAL status
  */
void HAL_PCD_IRQHandler(PCD_HandleTypeDef *hpcd)
{
   0:	b510      	push	{r4, lr}
   2:	f890 3380 	ldrb.w	r3, [r0, #896]	; 0x380
  USB_OTG_GlobalTypeDef *USBx = hpcd->Instance;
   6:	2b01      	cmp	r3, #1
  * @brief  Handles PCD interrupt request.
  * @param  hpcd: PCD handle
  * @retval HAL status
  */
void HAL_PCD_IRQHandler(PCD_HandleTypeDef *hpcd)
{
   8:	4604      	mov	r4, r0
   a:	d009      	beq.n	20 <HAL_PCD_DevDisconnect+0x20>
  uint32_t fifoemptymsk = 0U, temp = 0U;
  USB_OTG_EPTypeDef *ep;
  uint32_t hclk = 180000000;
  
  /* ensure that we are in device mode */
  if (USB_GetMode(hpcd->Instance) == USB_OTG_MODE_DEVICE)
   c:	2301      	movs	r3, #1
   e:	f880 3380 	strb.w	r3, [r0, #896]	; 0x380
  12:	6800      	ldr	r0, [r0, #0]
  14:	f7ff fffe 	bl	0 <USB_DevDisconnect>
  {    
    /* avoid spurious interrupt */
    if(__HAL_PCD_IS_INVALID_INTERRUPT(hpcd)) 
  18:	2000      	movs	r0, #0
  1a:	f884 0380 	strb.w	r0, [r4, #896]	; 0x380
  1e:	bd10      	pop	{r4, pc}
  20:	2002      	movs	r0, #2
  22:	bd10      	pop	{r4, pc}

Disassembly of section .text.HAL_PCD_SetAddress:

00000000 <HAL_PCD_SetAddress>:
  * @brief  Handles PCD interrupt request.
  * @param  hpcd: PCD handle
  * @retval HAL status
  */
void HAL_PCD_IRQHandler(PCD_HandleTypeDef *hpcd)
{
   0:	b510      	push	{r4, lr}
   2:	f890 3380 	ldrb.w	r3, [r0, #896]	; 0x380
  USB_OTG_GlobalTypeDef *USBx = hpcd->Instance;
   6:	2b01      	cmp	r3, #1
  * @brief  Handles PCD interrupt request.
  * @param  hpcd: PCD handle
  * @retval HAL status
  */
void HAL_PCD_IRQHandler(PCD_HandleTypeDef *hpcd)
{
   8:	4604      	mov	r4, r0
   a:	d009      	beq.n	20 <HAL_PCD_SetAddress+0x20>
  uint32_t fifoemptymsk = 0U, temp = 0U;
  USB_OTG_EPTypeDef *ep;
  uint32_t hclk = 180000000;
  
  /* ensure that we are in device mode */
  if (USB_GetMode(hpcd->Instance) == USB_OTG_MODE_DEVICE)
   c:	2301      	movs	r3, #1
   e:	f880 3380 	strb.w	r3, [r0, #896]	; 0x380
  12:	6800      	ldr	r0, [r0, #0]
  14:	f7ff fffe 	bl	0 <USB_SetDevAddress>
  {    
    /* avoid spurious interrupt */
    if(__HAL_PCD_IS_INVALID_INTERRUPT(hpcd)) 
  18:	2000      	movs	r0, #0
  1a:	f884 0380 	strb.w	r0, [r4, #896]	; 0x380
  1e:	bd10      	pop	{r4, pc}
  20:	2002      	movs	r0, #2
  22:	bd10      	pop	{r4, pc}

Disassembly of section .text.HAL_PCD_EP_Open:

00000000 <HAL_PCD_EP_Open>:
  * @brief  Handles PCD interrupt request.
  * @param  hpcd: PCD handle
  * @retval HAL status
  */
void HAL_PCD_IRQHandler(PCD_HandleTypeDef *hpcd)
{
   0:	b570      	push	{r4, r5, r6, lr}
   2:	b24e      	sxtb	r6, r1
  USB_OTG_GlobalTypeDef *USBx = hpcd->Instance;
   4:	2e00      	cmp	r6, #0
   6:	4604      	mov	r4, r0
  * @brief  Handles PCD interrupt request.
  * @param  hpcd: PCD handle
  * @retval HAL status
  */
void HAL_PCD_IRQHandler(PCD_HandleTypeDef *hpcd)
{
   8:	f04f 051c 	mov.w	r5, #28
  uint32_t fifoemptymsk = 0U, temp = 0U;
  USB_OTG_EPTypeDef *ep;
  uint32_t hclk = 180000000;
  
  /* ensure that we are in device mode */
  if (USB_GetMode(hpcd->Instance) == USB_OTG_MODE_DEVICE)
   c:	f001 007f 	and.w	r0, r1, #127	; 0x7f
  10:	bfb5      	itete	lt
  12:	fb05 4100 	mlalt	r1, r5, r0, r4
  16:	fb05 4101 	mlage	r1, r5, r1, r4
  {    
    /* avoid spurious interrupt */
    if(__HAL_PCD_IS_INVALID_INTERRUPT(hpcd)) 
  1a:	3138      	addlt	r1, #56	; 0x38
  1c:	f501 71ee 	addge.w	r1, r1, #476	; 0x1dc
  20:	b2c0      	uxtb	r0, r0
  22:	2e00      	cmp	r6, #0
    {
      return;
    }
    
    if(__HAL_PCD_GET_FLAG(hpcd, USB_OTG_GINTSTS_MMIS))
  24:	bfb8      	it	lt
  26:	80c8      	strhlt	r0, [r1, #6]
  28:	2b02      	cmp	r3, #2
  2a:	70cb      	strb	r3, [r1, #3]
    {
     /* incorrect mode, acknowledge the interrupt */
      __HAL_PCD_CLEAR_FLAG(hpcd, USB_OTG_GINTSTS_MMIS);
  2c:	ea4f 75d6 	mov.w	r5, r6, lsr #31
  30:	bf04      	itt	eq
  32:	2300      	moveq	r3, #0
  34:	710b      	strbeq	r3, [r1, #4]
  36:	7008      	strb	r0, [r1, #0]
    }
    
    if(__HAL_PCD_GET_FLAG(hpcd, USB_OTG_GINTSTS_OEPINT))
  38:	704d      	strb	r5, [r1, #1]
  3a:	608a      	str	r2, [r1, #8]
  3c:	f894 3380 	ldrb.w	r3, [r4, #896]	; 0x380
  40:	2b01      	cmp	r3, #1
  42:	d009      	beq.n	58 <HAL_PCD_EP_Open+0x58>
    {
      epnum = 0U;
      
      /* Read in the device interrupt bits */
      ep_intr = USB_ReadDevAllOutEpInterrupt(hpcd->Instance);
  44:	2301      	movs	r3, #1
  46:	f884 3380 	strb.w	r3, [r4, #896]	; 0x380
  4a:	6820      	ldr	r0, [r4, #0]
  4c:	f7ff fffe 	bl	0 <USB_ActivateEndpoint>
  50:	2000      	movs	r0, #0
      __HAL_PCD_CLEAR_FLAG(hpcd, USB_OTG_GINTSTS_MMIS);
    }
    
    if(__HAL_PCD_GET_FLAG(hpcd, USB_OTG_GINTSTS_OEPINT))
    {
      epnum = 0U;
  52:	f884 0380 	strb.w	r0, [r4, #896]	; 0x380
      
      /* Read in the device interrupt bits */
      ep_intr = USB_ReadDevAllOutEpInterrupt(hpcd->Instance);
      
      while ( ep_intr )
  56:	bd70      	pop	{r4, r5, r6, pc}
      {
        if (ep_intr & 0x1U)
  58:	2002      	movs	r0, #2
  5a:	bd70      	pop	{r4, r5, r6, pc}

Disassembly of section .text.HAL_PCD_EP_Close:

00000000 <HAL_PCD_EP_Close>:
  * @brief  Handles PCD interrupt request.
  * @param  hpcd: PCD handle
  * @retval HAL status
  */
void HAL_PCD_IRQHandler(PCD_HandleTypeDef *hpcd)
{
   0:	b24b      	sxtb	r3, r1
   2:	2b00      	cmp	r3, #0
  USB_OTG_GlobalTypeDef *USBx = hpcd->Instance;
   4:	b510      	push	{r4, lr}
   6:	f04f 021c 	mov.w	r2, #28
  * @brief  Handles PCD interrupt request.
  * @param  hpcd: PCD handle
  * @retval HAL status
  */
void HAL_PCD_IRQHandler(PCD_HandleTypeDef *hpcd)
{
   a:	4604      	mov	r4, r0
  uint32_t fifoemptymsk = 0U, temp = 0U;
  USB_OTG_EPTypeDef *ep;
  uint32_t hclk = 180000000;
  
  /* ensure that we are in device mode */
  if (USB_GetMode(hpcd->Instance) == USB_OTG_MODE_DEVICE)
   c:	f001 007f 	and.w	r0, r1, #127	; 0x7f
  10:	bfb5      	itete	lt
  12:	fb02 4100 	mlalt	r1, r2, r0, r4
  16:	fb02 4101 	mlage	r1, r2, r1, r4
  {    
    /* avoid spurious interrupt */
    if(__HAL_PCD_IS_INVALID_INTERRUPT(hpcd)) 
  1a:	3138      	addlt	r1, #56	; 0x38
  1c:	f501 71ee 	addge.w	r1, r1, #476	; 0x1dc
  20:	0fdb      	lsrs	r3, r3, #31
  22:	7008      	strb	r0, [r1, #0]
    {
      return;
    }
    
    if(__HAL_PCD_GET_FLAG(hpcd, USB_OTG_GINTSTS_MMIS))
  24:	704b      	strb	r3, [r1, #1]
  26:	f894 3380 	ldrb.w	r3, [r4, #896]	; 0x380
  2a:	2b01      	cmp	r3, #1
    {
     /* incorrect mode, acknowledge the interrupt */
      __HAL_PCD_CLEAR_FLAG(hpcd, USB_OTG_GINTSTS_MMIS);
  2c:	d009      	beq.n	42 <HAL_PCD_EP_Close+0x42>
  2e:	2301      	movs	r3, #1
  30:	f884 3380 	strb.w	r3, [r4, #896]	; 0x380
  34:	6820      	ldr	r0, [r4, #0]
  36:	f7ff fffe 	bl	0 <USB_DeactivateEndpoint>
    }
    
    if(__HAL_PCD_GET_FLAG(hpcd, USB_OTG_GINTSTS_OEPINT))
  3a:	2000      	movs	r0, #0
  3c:	f884 0380 	strb.w	r0, [r4, #896]	; 0x380
  40:	bd10      	pop	{r4, pc}
  42:	2002      	movs	r0, #2
    {
      epnum = 0U;
      
      /* Read in the device interrupt bits */
      ep_intr = USB_ReadDevAllOutEpInterrupt(hpcd->Instance);
  44:	bd10      	pop	{r4, pc}

Disassembly of section .text.HAL_PCD_EP_Receive:

00000000 <HAL_PCD_EP_Receive>:
  * @brief  Handles PCD interrupt request.
  * @param  hpcd: PCD handle
  * @retval HAL status
  */
void HAL_PCD_IRQHandler(PCD_HandleTypeDef *hpcd)
{
   0:	b538      	push	{r3, r4, r5, lr}
   2:	4604      	mov	r4, r0
  USB_OTG_GlobalTypeDef *USBx = hpcd->Instance;
   4:	f001 057f 	and.w	r5, r1, #127	; 0x7f
  * @brief  Handles PCD interrupt request.
  * @param  hpcd: PCD handle
  * @retval HAL status
  */
void HAL_PCD_IRQHandler(PCD_HandleTypeDef *hpcd)
{
   8:	201c      	movs	r0, #28
   a:	fb00 4005 	mla	r0, r0, r5, r4
  uint32_t fifoemptymsk = 0U, temp = 0U;
  USB_OTG_EPTypeDef *ep;
  uint32_t hclk = 180000000;
  
  /* ensure that we are in device mode */
  if (USB_GetMode(hpcd->Instance) == USB_OTG_MODE_DEVICE)
   e:	f8c0 31f0 	str.w	r3, [r0, #496]	; 0x1f0
  12:	2300      	movs	r3, #0
  14:	f8c0 21e8 	str.w	r2, [r0, #488]	; 0x1e8
  {    
    /* avoid spurious interrupt */
    if(__HAL_PCD_IS_INVALID_INTERRUPT(hpcd)) 
  18:	f8c0 31f4 	str.w	r3, [r0, #500]	; 0x1f4
  1c:	f880 31dd 	strb.w	r3, [r0, #477]	; 0x1dd
  20:	f880 51dc 	strb.w	r5, [r0, #476]	; 0x1dc
    {
      return;
    }
    
    if(__HAL_PCD_GET_FLAG(hpcd, USB_OTG_GINTSTS_MMIS))
  24:	6923      	ldr	r3, [r4, #16]
  26:	2b01      	cmp	r3, #1
  28:	bf08      	it	eq
  2a:	f8c0 21ec 	streq.w	r2, [r0, #492]	; 0x1ec
    {
     /* incorrect mode, acknowledge the interrupt */
      __HAL_PCD_CLEAR_FLAG(hpcd, USB_OTG_GINTSTS_MMIS);
  2e:	f894 2380 	ldrb.w	r2, [r4, #896]	; 0x380
  32:	2a01      	cmp	r2, #1
  34:	d013      	beq.n	5e <HAL_PCD_EP_Receive+0x5e>
  36:	211c      	movs	r1, #28
    }
    
    if(__HAL_PCD_GET_FLAG(hpcd, USB_OTG_GINTSTS_OEPINT))
  38:	2201      	movs	r2, #1
  3a:	fb01 4105 	mla	r1, r1, r5, r4
  3e:	f884 2380 	strb.w	r2, [r4, #896]	; 0x380
  42:	f501 71ee 	add.w	r1, r1, #476	; 0x1dc
    {
      epnum = 0U;
      
      /* Read in the device interrupt bits */
      ep_intr = USB_ReadDevAllOutEpInterrupt(hpcd->Instance);
  46:	b2da      	uxtb	r2, r3
  48:	6820      	ldr	r0, [r4, #0]
  4a:	b915      	cbnz	r5, 52 <HAL_PCD_EP_Receive+0x52>
  4c:	f7ff fffe 	bl	0 <USB_EP0StartXfer>
  50:	e001      	b.n	6 <USB_EPStartXfer+0x6>
      __HAL_PCD_CLEAR_FLAG(hpcd, USB_OTG_GINTSTS_MMIS);
    }
    
    if(__HAL_PCD_GET_FLAG(hpcd, USB_OTG_GINTSTS_OEPINT))
    {
      epnum = 0U;
  52:	f7ff fffe 	bl	0 <USB_EPStartXfer>
      
      /* Read in the device interrupt bits */
      ep_intr = USB_ReadDevAllOutEpInterrupt(hpcd->Instance);
      
      while ( ep_intr )
  56:	2000      	movs	r0, #0
      {
        if (ep_intr & 0x1U)
  58:	f884 0380 	strb.w	r0, [r4, #896]	; 0x380
        {
          epint = USB_ReadDevOutEPInterrupt(hpcd->Instance, epnum);
  5c:	bd38      	pop	{r3, r4, r5, pc}
  5e:	2002      	movs	r0, #2
  60:	bd38      	pop	{r3, r4, r5, pc}

Disassembly of section .text.HAL_PCD_EP_GetRxCount:

00000000 <HAL_PCD_EP_GetRxCount>:
  * @brief  Handles PCD interrupt request.
  * @param  hpcd: PCD handle
  * @retval HAL status
  */
void HAL_PCD_IRQHandler(PCD_HandleTypeDef *hpcd)
{
   0:	f001 017f 	and.w	r1, r1, #127	; 0x7f
  USB_OTG_GlobalTypeDef *USBx = hpcd->Instance;
   4:	231c      	movs	r3, #28
   6:	fb03 0001 	mla	r0, r3, r1, r0
  * @brief  Handles PCD interrupt request.
  * @param  hpcd: PCD handle
  * @retval HAL status
  */
void HAL_PCD_IRQHandler(PCD_HandleTypeDef *hpcd)
{
   a:	f8b0 01f4 	ldrh.w	r0, [r0, #500]	; 0x1f4
  uint32_t fifoemptymsk = 0U, temp = 0U;
  USB_OTG_EPTypeDef *ep;
  uint32_t hclk = 180000000;
  
  /* ensure that we are in device mode */
  if (USB_GetMode(hpcd->Instance) == USB_OTG_MODE_DEVICE)
   e:	4770      	bx	lr

Disassembly of section .text.HAL_PCD_EP_Transmit:

00000000 <HAL_PCD_EP_Transmit>:
  * @brief  Handles PCD interrupt request.
  * @param  hpcd: PCD handle
  * @retval HAL status
  */
void HAL_PCD_IRQHandler(PCD_HandleTypeDef *hpcd)
{
   0:	b538      	push	{r3, r4, r5, lr}
   2:	4604      	mov	r4, r0
  USB_OTG_GlobalTypeDef *USBx = hpcd->Instance;
   4:	f001 057f 	and.w	r5, r1, #127	; 0x7f
  * @brief  Handles PCD interrupt request.
  * @param  hpcd: PCD handle
  * @retval HAL status
  */
void HAL_PCD_IRQHandler(PCD_HandleTypeDef *hpcd)
{
   8:	201c      	movs	r0, #28
   a:	fb00 4005 	mla	r0, r0, r5, r4
  uint32_t fifoemptymsk = 0U, temp = 0U;
  USB_OTG_EPTypeDef *ep;
  uint32_t hclk = 180000000;
  
  /* ensure that we are in device mode */
  if (USB_GetMode(hpcd->Instance) == USB_OTG_MODE_DEVICE)
   e:	64c3      	str	r3, [r0, #76]	; 0x4c
  10:	2300      	movs	r3, #0
  12:	6503      	str	r3, [r0, #80]	; 0x50
  14:	2301      	movs	r3, #1
  16:	6442      	str	r2, [r0, #68]	; 0x44
  {    
    /* avoid spurious interrupt */
    if(__HAL_PCD_IS_INVALID_INTERRUPT(hpcd)) 
  18:	f880 3039 	strb.w	r3, [r0, #57]	; 0x39
  1c:	f880 5038 	strb.w	r5, [r0, #56]	; 0x38
  20:	6923      	ldr	r3, [r4, #16]
  22:	2b01      	cmp	r3, #1
    {
      return;
    }
    
    if(__HAL_PCD_GET_FLAG(hpcd, USB_OTG_GINTSTS_MMIS))
  24:	bf08      	it	eq
  26:	6482      	streq	r2, [r0, #72]	; 0x48
  28:	f894 2380 	ldrb.w	r2, [r4, #896]	; 0x380
    {
     /* incorrect mode, acknowledge the interrupt */
      __HAL_PCD_CLEAR_FLAG(hpcd, USB_OTG_GINTSTS_MMIS);
  2c:	2a01      	cmp	r2, #1
  2e:	d012      	beq.n	56 <HAL_PCD_EP_Transmit+0x56>
  30:	211c      	movs	r1, #28
  32:	2201      	movs	r2, #1
  34:	fb01 4105 	mla	r1, r1, r5, r4
    }
    
    if(__HAL_PCD_GET_FLAG(hpcd, USB_OTG_GINTSTS_OEPINT))
  38:	f884 2380 	strb.w	r2, [r4, #896]	; 0x380
  3c:	3138      	adds	r1, #56	; 0x38
  3e:	b2da      	uxtb	r2, r3
  40:	6820      	ldr	r0, [r4, #0]
  42:	b915      	cbnz	r5, 4a <HAL_PCD_EP_Transmit+0x4a>
    {
      epnum = 0U;
      
      /* Read in the device interrupt bits */
      ep_intr = USB_ReadDevAllOutEpInterrupt(hpcd->Instance);
  44:	f7ff fffe 	bl	0 <USB_EP0StartXfer>
  48:	e001      	b.n	6 <USB_EPStartXfer+0x6>
  4a:	f7ff fffe 	bl	0 <USB_EPStartXfer>
  4e:	2000      	movs	r0, #0
  50:	f884 0380 	strb.w	r0, [r4, #896]	; 0x380
      
      while ( ep_intr )
  54:	bd38      	pop	{r3, r4, r5, pc}
  56:	2002      	movs	r0, #2
      {
        if (ep_intr & 0x1U)
  58:	bd38      	pop	{r3, r4, r5, pc}

Disassembly of section .text.HAL_PCD_EP_SetStall:

00000000 <HAL_PCD_EP_SetStall>:
  * @brief  Handles PCD interrupt request.
  * @param  hpcd: PCD handle
  * @retval HAL status
  */
void HAL_PCD_IRQHandler(PCD_HandleTypeDef *hpcd)
{
   0:	b538      	push	{r3, r4, r5, lr}
   2:	b24b      	sxtb	r3, r1
  USB_OTG_GlobalTypeDef *USBx = hpcd->Instance;
   4:	2b00      	cmp	r3, #0
   6:	f001 057f 	and.w	r5, r1, #127	; 0x7f
  * @brief  Handles PCD interrupt request.
  * @param  hpcd: PCD handle
  * @retval HAL status
  */
void HAL_PCD_IRQHandler(PCD_HandleTypeDef *hpcd)
{
   a:	f04f 021c 	mov.w	r2, #28
  uint32_t fifoemptymsk = 0U, temp = 0U;
  USB_OTG_EPTypeDef *ep;
  uint32_t hclk = 180000000;
  
  /* ensure that we are in device mode */
  if (USB_GetMode(hpcd->Instance) == USB_OTG_MODE_DEVICE)
   e:	bfb5      	itete	lt
  10:	fb02 0105 	mlalt	r1, r2, r5, r0
  14:	fb02 0101 	mlage	r1, r2, r1, r0
  {    
    /* avoid spurious interrupt */
    if(__HAL_PCD_IS_INVALID_INTERRUPT(hpcd)) 
  18:	3138      	addlt	r1, #56	; 0x38
  1a:	f501 71ee 	addge.w	r1, r1, #476	; 0x1dc
  1e:	2201      	movs	r2, #1
  20:	0fdb      	lsrs	r3, r3, #31
  22:	b2ed      	uxtb	r5, r5
    {
      return;
    }
    
    if(__HAL_PCD_GET_FLAG(hpcd, USB_OTG_GINTSTS_MMIS))
  24:	708a      	strb	r2, [r1, #2]
  26:	700d      	strb	r5, [r1, #0]
  28:	704b      	strb	r3, [r1, #1]
  2a:	f890 3380 	ldrb.w	r3, [r0, #896]	; 0x380
    {
     /* incorrect mode, acknowledge the interrupt */
      __HAL_PCD_CLEAR_FLAG(hpcd, USB_OTG_GINTSTS_MMIS);
  2e:	4293      	cmp	r3, r2
  30:	4604      	mov	r4, r0
  32:	d00f      	beq.n	54 <HAL_PCD_EP_SetStall+0x54>
  34:	f880 2380 	strb.w	r2, [r0, #896]	; 0x380
    }
    
    if(__HAL_PCD_GET_FLAG(hpcd, USB_OTG_GINTSTS_OEPINT))
  38:	6800      	ldr	r0, [r0, #0]
  3a:	f7ff fffe 	bl	0 <USB_EPSetStall>
  3e:	b92d      	cbnz	r5, 4c <HAL_PCD_EP_SetStall+0x4c>
  40:	f504 7261 	add.w	r2, r4, #900	; 0x384
    {
      epnum = 0U;
      
      /* Read in the device interrupt bits */
      ep_intr = USB_ReadDevAllOutEpInterrupt(hpcd->Instance);
  44:	7c21      	ldrb	r1, [r4, #16]
  46:	6820      	ldr	r0, [r4, #0]
  48:	f7ff fffe 	bl	0 <USB_EP0_OutStart>
  4c:	2000      	movs	r0, #0
  4e:	f884 0380 	strb.w	r0, [r4, #896]	; 0x380
      __HAL_PCD_CLEAR_FLAG(hpcd, USB_OTG_GINTSTS_MMIS);
    }
    
    if(__HAL_PCD_GET_FLAG(hpcd, USB_OTG_GINTSTS_OEPINT))
    {
      epnum = 0U;
  52:	bd38      	pop	{r3, r4, r5, pc}
      
      /* Read in the device interrupt bits */
      ep_intr = USB_ReadDevAllOutEpInterrupt(hpcd->Instance);
      
      while ( ep_intr )
  54:	2002      	movs	r0, #2
  56:	bd38      	pop	{r3, r4, r5, pc}

Disassembly of section .text.HAL_PCD_EP_ClrStall:

00000000 <HAL_PCD_EP_ClrStall>:
  * @brief  Handles PCD interrupt request.
  * @param  hpcd: PCD handle
  * @retval HAL status
  */
void HAL_PCD_IRQHandler(PCD_HandleTypeDef *hpcd)
{
   0:	b538      	push	{r3, r4, r5, lr}
   2:	b24b      	sxtb	r3, r1
  USB_OTG_GlobalTypeDef *USBx = hpcd->Instance;
   4:	2b00      	cmp	r3, #0
   6:	4605      	mov	r5, r0
  * @brief  Handles PCD interrupt request.
  * @param  hpcd: PCD handle
  * @retval HAL status
  */
void HAL_PCD_IRQHandler(PCD_HandleTypeDef *hpcd)
{
   8:	f04f 021c 	mov.w	r2, #28
  uint32_t fifoemptymsk = 0U, temp = 0U;
  USB_OTG_EPTypeDef *ep;
  uint32_t hclk = 180000000;
  
  /* ensure that we are in device mode */
  if (USB_GetMode(hpcd->Instance) == USB_OTG_MODE_DEVICE)
   c:	f001 007f 	and.w	r0, r1, #127	; 0x7f
  10:	bfb5      	itete	lt
  12:	fb02 5100 	mlalt	r1, r2, r0, r5
  16:	fb02 5101 	mlage	r1, r2, r1, r5
  {    
    /* avoid spurious interrupt */
    if(__HAL_PCD_IS_INVALID_INTERRUPT(hpcd)) 
  1a:	3138      	addlt	r1, #56	; 0x38
  1c:	f501 71ee 	addge.w	r1, r1, #476	; 0x1dc
  20:	0fdb      	lsrs	r3, r3, #31
  22:	2400      	movs	r4, #0
    {
      return;
    }
    
    if(__HAL_PCD_GET_FLAG(hpcd, USB_OTG_GINTSTS_MMIS))
  24:	708c      	strb	r4, [r1, #2]
  26:	7008      	strb	r0, [r1, #0]
  28:	704b      	strb	r3, [r1, #1]
  2a:	f895 3380 	ldrb.w	r3, [r5, #896]	; 0x380
    {
     /* incorrect mode, acknowledge the interrupt */
      __HAL_PCD_CLEAR_FLAG(hpcd, USB_OTG_GINTSTS_MMIS);
  2e:	2b01      	cmp	r3, #1
  30:	d009      	beq.n	46 <HAL_PCD_EP_ClrStall+0x46>
  32:	2301      	movs	r3, #1
  34:	f885 3380 	strb.w	r3, [r5, #896]	; 0x380
    }
    
    if(__HAL_PCD_GET_FLAG(hpcd, USB_OTG_GINTSTS_OEPINT))
  38:	6828      	ldr	r0, [r5, #0]
  3a:	f7ff fffe 	bl	0 <USB_EPClearStall>
  3e:	f885 4380 	strb.w	r4, [r5, #896]	; 0x380
  42:	4620      	mov	r0, r4
    {
      epnum = 0U;
      
      /* Read in the device interrupt bits */
      ep_intr = USB_ReadDevAllOutEpInterrupt(hpcd->Instance);
  44:	bd38      	pop	{r3, r4, r5, pc}
  46:	2002      	movs	r0, #2
  48:	bd38      	pop	{r3, r4, r5, pc}

Disassembly of section .text.HAL_PCD_EP_Flush:

00000000 <HAL_PCD_EP_Flush>:
  * @brief  Handles PCD interrupt request.
  * @param  hpcd: PCD handle
  * @retval HAL status
  */
void HAL_PCD_IRQHandler(PCD_HandleTypeDef *hpcd)
{
   0:	b510      	push	{r4, lr}
   2:	f890 3380 	ldrb.w	r3, [r0, #896]	; 0x380
  USB_OTG_GlobalTypeDef *USBx = hpcd->Instance;
   6:	2b01      	cmp	r3, #1
  * @brief  Handles PCD interrupt request.
  * @param  hpcd: PCD handle
  * @retval HAL status
  */
void HAL_PCD_IRQHandler(PCD_HandleTypeDef *hpcd)
{
   8:	4604      	mov	r4, r0
   a:	d011      	beq.n	30 <HAL_PCD_EP_Flush+0x30>
  uint32_t fifoemptymsk = 0U, temp = 0U;
  USB_OTG_EPTypeDef *ep;
  uint32_t hclk = 180000000;
  
  /* ensure that we are in device mode */
  if (USB_GetMode(hpcd->Instance) == USB_OTG_MODE_DEVICE)
   c:	2301      	movs	r3, #1
   e:	f880 3380 	strb.w	r3, [r0, #896]	; 0x380
  12:	060b      	lsls	r3, r1, #24
  14:	d505      	bpl.n	22 <HAL_PCD_EP_Flush+0x22>
  16:	f001 017f 	and.w	r1, r1, #127	; 0x7f
  {    
    /* avoid spurious interrupt */
    if(__HAL_PCD_IS_INVALID_INTERRUPT(hpcd)) 
  1a:	6800      	ldr	r0, [r0, #0]
  1c:	f7ff fffe 	bl	0 <USB_FlushTxFifo>
  20:	e002      	b.n	28 <HAL_PCD_EP_Flush+0x28>
  22:	6800      	ldr	r0, [r0, #0]
    {
      return;
    }
    
    if(__HAL_PCD_GET_FLAG(hpcd, USB_OTG_GINTSTS_MMIS))
  24:	f7ff fffe 	bl	0 <USB_FlushRxFifo>
  28:	2000      	movs	r0, #0
  2a:	f884 0380 	strb.w	r0, [r4, #896]	; 0x380
    {
     /* incorrect mode, acknowledge the interrupt */
      __HAL_PCD_CLEAR_FLAG(hpcd, USB_OTG_GINTSTS_MMIS);
  2e:	bd10      	pop	{r4, pc}
  30:	2002      	movs	r0, #2
  32:	bd10      	pop	{r4, pc}

Disassembly of section .text.HAL_PCD_ActivateRemoteWakeup:

00000000 <HAL_PCD_ActivateRemoteWakeup>:
  * @brief  Handles PCD interrupt request.
  * @param  hpcd: PCD handle
  * @retval HAL status
  */
void HAL_PCD_IRQHandler(PCD_HandleTypeDef *hpcd)
{
   0:	6803      	ldr	r3, [r0, #0]
   2:	f8d3 2808 	ldr.w	r2, [r3, #2056]	; 0x808
  USB_OTG_GlobalTypeDef *USBx = hpcd->Instance;
   6:	f503 6300 	add.w	r3, r3, #2048	; 0x800
  * @brief  Handles PCD interrupt request.
  * @param  hpcd: PCD handle
  * @retval HAL status
  */
void HAL_PCD_IRQHandler(PCD_HandleTypeDef *hpcd)
{
   a:	07d2      	lsls	r2, r2, #31
  uint32_t fifoemptymsk = 0U, temp = 0U;
  USB_OTG_EPTypeDef *ep;
  uint32_t hclk = 180000000;
  
  /* ensure that we are in device mode */
  if (USB_GetMode(hpcd->Instance) == USB_OTG_MODE_DEVICE)
   c:	bf42      	ittt	mi
   e:	685a      	ldrmi	r2, [r3, #4]
  10:	f042 0201 	orrmi.w	r2, r2, #1
  14:	605a      	strmi	r2, [r3, #4]
  16:	2000      	movs	r0, #0
  {    
    /* avoid spurious interrupt */
    if(__HAL_PCD_IS_INVALID_INTERRUPT(hpcd)) 
  18:	4770      	bx	lr

Disassembly of section .text.HAL_PCD_DeActivateRemoteWakeup:

00000000 <HAL_PCD_DeActivateRemoteWakeup>:
  * @brief  Handles PCD interrupt request.
  * @param  hpcd: PCD handle
  * @retval HAL status
  */
void HAL_PCD_IRQHandler(PCD_HandleTypeDef *hpcd)
{
   0:	6803      	ldr	r3, [r0, #0]
   2:	f8d3 2804 	ldr.w	r2, [r3, #2052]	; 0x804
  USB_OTG_GlobalTypeDef *USBx = hpcd->Instance;
   6:	f022 0201 	bic.w	r2, r2, #1
  * @brief  Handles PCD interrupt request.
  * @param  hpcd: PCD handle
  * @retval HAL status
  */
void HAL_PCD_IRQHandler(PCD_HandleTypeDef *hpcd)
{
   a:	f8c3 2804 	str.w	r2, [r3, #2052]	; 0x804
  uint32_t fifoemptymsk = 0U, temp = 0U;
  USB_OTG_EPTypeDef *ep;
  uint32_t hclk = 180000000;
  
  /* ensure that we are in device mode */
  if (USB_GetMode(hpcd->Instance) == USB_OTG_MODE_DEVICE)
   e:	2000      	movs	r0, #0
  10:	4770      	bx	lr

Disassembly of section .text.HAL_PCD_GetState:

00000000 <HAL_PCD_GetState>:
  * @brief  Handles PCD interrupt request.
  * @param  hpcd: PCD handle
  * @retval HAL status
  */
void HAL_PCD_IRQHandler(PCD_HandleTypeDef *hpcd)
{
   0:	f890 0381 	ldrb.w	r0, [r0, #897]	; 0x381
  USB_OTG_GlobalTypeDef *USBx = hpcd->Instance;
   4:	4770      	bx	lr

stm32f4xx_hal_pcd_ex.o:     file format elf32-littlearm


Disassembly of section .text.HAL_PCDEx_SetTxFiFo:

00000000 <HAL_PCDEx_SetTxFiFo>:
  * @param  fifo: The number of Tx fifo
  * @param  size: Fifo size
  * @retval HAL status
  */
HAL_StatusTypeDef HAL_PCDEx_SetTxFiFo(PCD_HandleTypeDef *hpcd, uint8_t fifo, uint16_t size)
{
   0:	b570      	push	{r4, r5, r6, lr}
         --> Txn should be configured with the minimum space of 16 words
     The FIFO is used optimally when used TxFIFOs are allocated in the top 
         of the FIFO.Ex: use EP1 and EP2 as IN instead of EP1 and EP3 as IN ones.
     When DMA is used 3n * FIFO locations should be reserved for internal DMA registers */
  
  Tx_Offset = hpcd->Instance->GRXFSIZ;
   2:	6804      	ldr	r4, [r0, #0]
   4:	6a60      	ldr	r0, [r4, #36]	; 0x24
  
  if(fifo == 0U)
   6:	b919      	cbnz	r1, 10 <HAL_PCDEx_SetTxFiFo+0x10>
  {
    hpcd->Instance->DIEPTXF0_HNPTXFSIZ = (uint32_t)(((uint32_t)size << 16U) | Tx_Offset);
   8:	ea40 4302 	orr.w	r3, r0, r2, lsl #16
   c:	62a3      	str	r3, [r4, #40]	; 0x28
   e:	e016      	b.n	3e <HAL_PCDEx_SetTxFiFo+0x3e>
  }
  else
  {
    Tx_Offset += (hpcd->Instance->DIEPTXF0_HNPTXFSIZ) >> 16U;
  10:	6aa3      	ldr	r3, [r4, #40]	; 0x28
    for (i = 0U; i < (fifo - 1U); i++)
  12:	2500      	movs	r5, #0
  {
    hpcd->Instance->DIEPTXF0_HNPTXFSIZ = (uint32_t)(((uint32_t)size << 16U) | Tx_Offset);
  }
  else
  {
    Tx_Offset += (hpcd->Instance->DIEPTXF0_HNPTXFSIZ) >> 16U;
  14:	eb00 4313 	add.w	r3, r0, r3, lsr #16
    for (i = 0U; i < (fifo - 1U); i++)
  18:	1e4e      	subs	r6, r1, #1
  1a:	b2e8      	uxtb	r0, r5
  1c:	4286      	cmp	r6, r0
  1e:	f105 0501 	add.w	r5, r5, #1
  22:	d906      	bls.n	32 <HAL_PCDEx_SetTxFiFo+0x32>
    {
      Tx_Offset += (hpcd->Instance->DIEPTXF[i] >> 16U);
  24:	3040      	adds	r0, #64	; 0x40
  26:	eb04 0080 	add.w	r0, r4, r0, lsl #2
  2a:	6840      	ldr	r0, [r0, #4]
  2c:	eb03 4310 	add.w	r3, r3, r0, lsr #16
  30:	e7f3      	b.n	1a <HAL_PCDEx_SetTxFiFo+0x1a>
    }
    
    /* Multiply Tx_Size by 2 to get higher performance */
    hpcd->Instance->DIEPTXF[fifo - 1U] = (uint32_t)(((uint32_t)size << 16U) | Tx_Offset);        
  32:	313f      	adds	r1, #63	; 0x3f
  34:	eb04 0481 	add.w	r4, r4, r1, lsl #2
  38:	ea43 4302 	orr.w	r3, r3, r2, lsl #16
  3c:	6063      	str	r3, [r4, #4]
  }
  
  return HAL_OK;
}
  3e:	2000      	movs	r0, #0
  40:	bd70      	pop	{r4, r5, r6, pc}

Disassembly of section .text.HAL_PCDEx_SetRxFiFo:

00000000 <HAL_PCDEx_SetRxFiFo>:
  * @param  fifo: The number of Tx fifo
  * @param  size: Fifo size
  * @retval HAL status
  */
HAL_StatusTypeDef HAL_PCDEx_SetTxFiFo(PCD_HandleTypeDef *hpcd, uint8_t fifo, uint16_t size)
{
   0:	6803      	ldr	r3, [r0, #0]
         --> Txn should be configured with the minimum space of 16 words
     The FIFO is used optimally when used TxFIFOs are allocated in the top 
         of the FIFO.Ex: use EP1 and EP2 as IN instead of EP1 and EP3 as IN ones.
     When DMA is used 3n * FIFO locations should be reserved for internal DMA registers */
  
  Tx_Offset = hpcd->Instance->GRXFSIZ;
   2:	2000      	movs	r0, #0
   4:	6259      	str	r1, [r3, #36]	; 0x24
  
  if(fifo == 0U)
   6:	4770      	bx	lr

stm32f4xx_ll_usb.o:     file format elf32-littlearm


Disassembly of section .text.USB_CoreInit:

00000000 <USB_CoreInit>:
  * @param  cfg : pointer to a USB_OTG_CfgTypeDef structure that contains
  *         the configuration information for the specified USBx peripheral.
  * @retval HAL status
  */
HAL_StatusTypeDef USB_CoreInit(USB_OTG_GlobalTypeDef *USBx, USB_OTG_CfgTypeDef cfg)
{
   0:	b084      	sub	sp, #16
   2:	b538      	push	{r3, r4, r5, lr}
   4:	ad05      	add	r5, sp, #20
   6:	e885 000e 	stmia.w	r5, {r1, r2, r3}
   a:	9b0a      	ldr	r3, [sp, #40]	; 0x28
   c:	2b01      	cmp	r3, #1
  if (cfg.phy_itface == USB_OTG_ULPI_PHY)
   e:	4604      	mov	r4, r0
  10:	d117      	bne.n	42 <USB_CoreInit+0x42>
  * @param  cfg : pointer to a USB_OTG_CfgTypeDef structure that contains
  *         the configuration information for the specified USBx peripheral.
  * @retval HAL status
  */
HAL_StatusTypeDef USB_CoreInit(USB_OTG_GlobalTypeDef *USBx, USB_OTG_CfgTypeDef cfg)
{
  12:	6b83      	ldr	r3, [r0, #56]	; 0x38
  if (cfg.phy_itface == USB_OTG_ULPI_PHY)
  14:	f423 3380 	bic.w	r3, r3, #65536	; 0x10000
  {
    
    USBx->GCCFG &= ~(USB_OTG_GCCFG_PWRDWN);
  18:	6383      	str	r3, [r0, #56]	; 0x38
  1a:	68c3      	ldr	r3, [r0, #12]
  1c:	f423 0384 	bic.w	r3, r3, #4325376	; 0x420000

    /* Init The ULPI Interface */
    USBx->GUSBCFG &= ~(USB_OTG_GUSBCFG_TSDPS | USB_OTG_GUSBCFG_ULPIFSLS | USB_OTG_GUSBCFG_PHYSEL);
  20:	f023 0340 	bic.w	r3, r3, #64	; 0x40
  24:	60c3      	str	r3, [r0, #12]
  26:	68c3      	ldr	r3, [r0, #12]
  28:	f423 1340 	bic.w	r3, r3, #3145728	; 0x300000
   
    /* Select vbus source */
    USBx->GUSBCFG &= ~(USB_OTG_GUSBCFG_ULPIEVBUSD | USB_OTG_GUSBCFG_ULPIEVBUSI);
  2c:	60c3      	str	r3, [r0, #12]
  2e:	9b11      	ldr	r3, [sp, #68]	; 0x44
  30:	2b01      	cmp	r3, #1
    if(cfg.use_external_vbus == 1U)
  32:	bf02      	ittt	eq
  34:	68c3      	ldreq	r3, [r0, #12]
    {
      USBx->GUSBCFG |= USB_OTG_GUSBCFG_ULPIEVBUSD;
  36:	f443 1380 	orreq.w	r3, r3, #1048576	; 0x100000
  3a:	60c3      	streq	r3, [r0, #12]
  3c:	f7ff fffe 	bl	0 <USB_CoreInit>
    }
    /* Reset after a PHY select  */
    USB_CoreReset(USBx); 
  40:	e008      	b.n	54 <USB_CoreInit+0x54>
  42:	68c3      	ldr	r3, [r0, #12]
  44:	f043 0340 	orr.w	r3, r3, #64	; 0x40
  }
  else /* FS interface (embedded Phy) */
  {
    /* Select FS Embedded PHY */
    USBx->GUSBCFG |= USB_OTG_GUSBCFG_PHYSEL;
  48:	60c3      	str	r3, [r0, #12]
  4a:	f7ff fffe 	bl	0 <USB_CoreInit>
    
    /* Reset after a PHY select and set Host mode */
    USB_CoreReset(USBx);
  4e:	f44f 3380 	mov.w	r3, #65536	; 0x10000
    
    /* Deactivate the power down*/
    USBx->GCCFG = USB_OTG_GCCFG_PWRDWN;
  52:	63a3      	str	r3, [r4, #56]	; 0x38
  54:	9b08      	ldr	r3, [sp, #32]
  56:	2b01      	cmp	r3, #1
  }
 
  if(cfg.dma_enable == ENABLE)
  58:	bf02      	ittt	eq
  5a:	68a3      	ldreq	r3, [r4, #8]
  {
    USBx->GAHBCFG |= USB_OTG_GAHBCFG_DMAEN;
  5c:	f043 0320 	orreq.w	r3, r3, #32
  60:	60a3      	streq	r3, [r4, #8]
  62:	e8bd 4038 	ldmia.w	sp!, {r3, r4, r5, lr}
  }  

  return HAL_OK;
}
  66:	2000      	movs	r0, #0
  68:	b004      	add	sp, #16
  6a:	4770      	bx	lr

Disassembly of section .text.USB_EnableGlobalInt:

00000000 <USB_EnableGlobalInt>:
   0:	6883      	ldr	r3, [r0, #8]
   2:	f043 0301 	orr.w	r3, r3, #1
  * @param  cfg : pointer to a USB_OTG_CfgTypeDef structure that contains
  *         the configuration information for the specified USBx peripheral.
  * @retval HAL status
  */
HAL_StatusTypeDef USB_CoreInit(USB_OTG_GlobalTypeDef *USBx, USB_OTG_CfgTypeDef cfg)
{
   6:	6083      	str	r3, [r0, #8]
   8:	2000      	movs	r0, #0
   a:	4770      	bx	lr

Disassembly of section .text.USB_DisableGlobalInt:

00000000 <USB_DisableGlobalInt>:
   0:	6883      	ldr	r3, [r0, #8]
   2:	f023 0301 	bic.w	r3, r3, #1
   6:	6083      	str	r3, [r0, #8]
   8:	2000      	movs	r0, #0
   a:	4770      	bx	lr

Disassembly of section .text.USB_SetCurrentMode:

00000000 <USB_SetCurrentMode>:
   0:	b508      	push	{r3, lr}
   2:	68c3      	ldr	r3, [r0, #12]
   4:	2901      	cmp	r1, #1
   6:	f023 43c0 	bic.w	r3, r3, #1610612736	; 0x60000000
   a:	60c3      	str	r3, [r0, #12]
   c:	d104      	bne.n	18 <USB_SetCurrentMode+0x18>
  if (cfg.phy_itface == USB_OTG_ULPI_PHY)
   e:	68c3      	ldr	r3, [r0, #12]
  10:	f043 5300 	orr.w	r3, r3, #536870912	; 0x20000000
  14:	60c3      	str	r3, [r0, #12]
  {
    
    USBx->GCCFG &= ~(USB_OTG_GCCFG_PWRDWN);
  16:	e004      	b.n	22 <USB_SetCurrentMode+0x22>
  18:	b919      	cbnz	r1, 22 <USB_SetCurrentMode+0x22>
  1a:	68c3      	ldr	r3, [r0, #12]
  1c:	f043 4380 	orr.w	r3, r3, #1073741824	; 0x40000000

    /* Init The ULPI Interface */
    USBx->GUSBCFG &= ~(USB_OTG_GUSBCFG_TSDPS | USB_OTG_GUSBCFG_ULPIFSLS | USB_OTG_GUSBCFG_PHYSEL);
  20:	60c3      	str	r3, [r0, #12]
  22:	2032      	movs	r0, #50	; 0x32
  24:	f7ff fffe 	bl	0 <HAL_Delay>
  28:	2000      	movs	r0, #0
   
    /* Select vbus source */
    USBx->GUSBCFG &= ~(USB_OTG_GUSBCFG_ULPIEVBUSD | USB_OTG_GUSBCFG_ULPIEVBUSI);
  2a:	bd08      	pop	{r3, pc}

Disassembly of section .text.USB_DevInit:

00000000 <USB_DevInit>:
   0:	b084      	sub	sp, #16
   2:	e92d 41f0 	stmdb	sp!, {r4, r5, r6, r7, r8, lr}
  * @param  cfg : pointer to a USB_OTG_CfgTypeDef structure that contains
  *         the configuration information for the specified USBx peripheral.
  * @retval HAL status
  */
HAL_StatusTypeDef USB_CoreInit(USB_OTG_GlobalTypeDef *USBx, USB_OTG_CfgTypeDef cfg)
{
   6:	4604      	mov	r4, r0
   8:	a807      	add	r0, sp, #28
   a:	e880 000e 	stmia.w	r0, {r1, r2, r3}
  if (cfg.phy_itface == USB_OTG_ULPI_PHY)
   e:	6ba3      	ldr	r3, [r4, #56]	; 0x38
  10:	9e11      	ldr	r6, [sp, #68]	; 0x44
  * @param  cfg : pointer to a USB_OTG_CfgTypeDef structure that contains
  *         the configuration information for the specified USBx peripheral.
  * @retval HAL status
  */
HAL_StatusTypeDef USB_CoreInit(USB_OTG_GlobalTypeDef *USBx, USB_OTG_CfgTypeDef cfg)
{
  12:	9f0a      	ldr	r7, [sp, #40]	; 0x28
  if (cfg.phy_itface == USB_OTG_ULPI_PHY)
  14:	f443 2300 	orr.w	r3, r3, #524288	; 0x80000
  {
    
    USBx->GCCFG &= ~(USB_OTG_GCCFG_PWRDWN);
  18:	4688      	mov	r8, r1
  1a:	63a3      	str	r3, [r4, #56]	; 0x38
  1c:	b91e      	cbnz	r6, 26 <USB_DevInit+0x26>

    /* Init The ULPI Interface */
    USBx->GUSBCFG &= ~(USB_OTG_GUSBCFG_TSDPS | USB_OTG_GUSBCFG_ULPIFSLS | USB_OTG_GUSBCFG_PHYSEL);
  1e:	6ba3      	ldr	r3, [r4, #56]	; 0x38
  20:	f443 1300 	orr.w	r3, r3, #2097152	; 0x200000
  24:	63a3      	str	r3, [r4, #56]	; 0x38
  26:	2300      	movs	r3, #0
  28:	f8c4 3e00 	str.w	r3, [r4, #3584]	; 0xe00
   
    /* Select vbus source */
    USBx->GUSBCFG &= ~(USB_OTG_GUSBCFG_ULPIEVBUSD | USB_OTG_GUSBCFG_ULPIEVBUSI);
  2c:	f8d4 3800 	ldr.w	r3, [r4, #2048]	; 0x800
  30:	f8c4 3800 	str.w	r3, [r4, #2048]	; 0x800
    if(cfg.use_external_vbus == 1U)
  34:	9b0c      	ldr	r3, [sp, #48]	; 0x30
    {
      USBx->GUSBCFG |= USB_OTG_GUSBCFG_ULPIEVBUSD;
  36:	2b01      	cmp	r3, #1
  38:	f504 6500 	add.w	r5, r4, #2048	; 0x800
  3c:	d106      	bne.n	4c <USB_DevInit+0x4c>
  3e:	9909      	ldr	r1, [sp, #36]	; 0x24
    }
    /* Reset after a PHY select  */
    USB_CoreReset(USBx); 
  40:	b129      	cbz	r1, 4e <USB_DevInit+0x4e>
  42:	4619      	mov	r1, r3
  44:	4620      	mov	r0, r4
  }
  else /* FS interface (embedded Phy) */
  {
    /* Select FS Embedded PHY */
    USBx->GUSBCFG |= USB_OTG_GUSBCFG_PHYSEL;
  46:	f7ff fffe 	bl	0 <USB_DevInit>
  4a:	e003      	b.n	54 <USB_DevInit+0x54>
  4c:	2103      	movs	r1, #3
    
    /* Reset after a PHY select and set Host mode */
    USB_CoreReset(USBx);
  4e:	4620      	mov	r0, r4
  50:	f7ff fffe 	bl	0 <USB_DevInit>
    
    /* Deactivate the power down*/
    USBx->GCCFG = USB_OTG_GCCFG_PWRDWN;
  54:	2110      	movs	r1, #16
  56:	4620      	mov	r0, r4
  }
 
  if(cfg.dma_enable == ENABLE)
  58:	f7ff fffe 	bl	0 <USB_DevInit>
  {
    USBx->GAHBCFG |= USB_OTG_GAHBCFG_DMAEN;
  5c:	4620      	mov	r0, r4
  5e:	f7ff fffe 	bl	0 <USB_DevInit>
  62:	2300      	movs	r3, #0
  64:	f04f 32ff 	mov.w	r2, #4294967295
  }  

  return HAL_OK;
}
  68:	612b      	str	r3, [r5, #16]
  6a:	4619      	mov	r1, r3
  6c:	616b      	str	r3, [r5, #20]
  6e:	f04f 4090 	mov.w	r0, #1207959552	; 0x48000000
  * @param  USBx : Selected device
  * @retval HAL status
  */
HAL_StatusTypeDef USB_EnableGlobalInt(USB_OTG_GlobalTypeDef *USBx)
{
  USBx->GAHBCFG |= USB_OTG_GAHBCFG_GINT;
  72:	61aa      	str	r2, [r5, #24]
  74:	f04f 0eff 	mov.w	lr, #255	; 0xff
  return HAL_OK;
}
  78:	61eb      	str	r3, [r5, #28]
  7a:	f504 6210 	add.w	r2, r4, #2304	; 0x900
  * @param  USBx : Selected device
  * @retval HAL status
*/
HAL_StatusTypeDef USB_DisableGlobalInt(USB_OTG_GlobalTypeDef *USBx)
{
  USBx->GAHBCFG &= ~USB_OTG_GAHBCFG_GINT;
  7e:	4543      	cmp	r3, r8
  80:	d00c      	beq.n	9c <USB_DevInit+0x9c>
  82:	f8d2 c000 	ldr.w	ip, [r2]
  return HAL_OK;
}
  86:	f1bc 0f00 	cmp.w	ip, #0
  *            @arg USB_OTG_DRD_MODE: Dual Role Device mode  
  * @retval HAL status
  */
HAL_StatusTypeDef USB_SetCurrentMode(USB_OTG_GlobalTypeDef *USBx , USB_OTG_ModeTypeDef mode)
{
  USBx->GUSBCFG &= ~(USB_OTG_GUSBCFG_FHMOD | USB_OTG_GUSBCFG_FDMOD); 
  8a:	bfb4      	ite	lt
  
  if ( mode == USB_OTG_HOST_MODE)
  8c:	6010      	strlt	r0, [r2, #0]
  *            @arg USB_OTG_DRD_MODE: Dual Role Device mode  
  * @retval HAL status
  */
HAL_StatusTypeDef USB_SetCurrentMode(USB_OTG_GlobalTypeDef *USBx , USB_OTG_ModeTypeDef mode)
{
  USBx->GUSBCFG &= ~(USB_OTG_GUSBCFG_FHMOD | USB_OTG_GUSBCFG_FDMOD); 
  8e:	6011      	strge	r1, [r2, #0]
  90:	3301      	adds	r3, #1
  92:	6111      	str	r1, [r2, #16]
  
  if ( mode == USB_OTG_HOST_MODE)
  94:	f8c2 e008 	str.w	lr, [r2, #8]
  {
    USBx->GUSBCFG |= USB_OTG_GUSBCFG_FHMOD; 
  98:	3220      	adds	r2, #32
  9a:	e7f0      	b.n	7e <USB_DevInit+0x7e>
  9c:	2200      	movs	r2, #0
  9e:	f504 6330 	add.w	r3, r4, #2816	; 0xb00
  }
  else if ( mode == USB_OTG_DEVICE_MODE)
  {
    USBx->GUSBCFG |= USB_OTG_GUSBCFG_FDMOD; 
  a2:	4611      	mov	r1, r2
  a4:	f04f 4090 	mov.w	r0, #1207959552	; 0x48000000
  a8:	f04f 0eff 	mov.w	lr, #255	; 0xff
  }
  HAL_Delay(50U);
  ac:	4542      	cmp	r2, r8
  ae:	d00c      	beq.n	ca <USB_DevInit+0xca>
  
  return HAL_OK;
}
  b0:	f8d3 c000 	ldr.w	ip, [r3]
  * @param  cfg  : pointer to a USB_OTG_CfgTypeDef structure that contains
  *         the configuration information for the specified USBx peripheral.
  * @retval HAL status
  */
HAL_StatusTypeDef USB_DevInit (USB_OTG_GlobalTypeDef *USBx, USB_OTG_CfgTypeDef cfg)
{
  b4:	f1bc 0f00 	cmp.w	ip, #0
  b8:	bfb4      	ite	lt
  ba:	6018      	strlt	r0, [r3, #0]
  bc:	6019      	strge	r1, [r3, #0]
  be:	3201      	adds	r2, #1
  c0:	6119      	str	r1, [r3, #16]
    /* B-peripheral session valid override enable*/ 
    USBx->GOTGCTL |= USB_OTG_GOTGCTL_BVALOEN;
    USBx->GOTGCTL |= USB_OTG_GOTGCTL_BVALOVAL;
  }
#else
  USBx->GCCFG |= USB_OTG_GCCFG_VBUSBSEN;
  c2:	f8c3 e008 	str.w	lr, [r3, #8]
  c6:	3320      	adds	r3, #32
  c8:	e7f0      	b.n	ac <USB_DevInit+0xac>
  ca:	692b      	ldr	r3, [r5, #16]
  cc:	2f01      	cmp	r7, #1
  ce:	f423 7380 	bic.w	r3, r3, #256	; 0x100
  
  if (cfg.vbus_sensing_enable == 0U)
  {
    USBx->GCCFG |= USB_OTG_GCCFG_NOVBUSSENS;
  d2:	612b      	str	r3, [r5, #16]
  d4:	d108      	bne.n	e8 <USB_DevInit+0xe8>
  d6:	4b15      	ldr	r3, [pc, #84]	; (12c <USB_DevInit+0x12c>)
  d8:	632b      	str	r3, [r5, #48]	; 0x30
  }
#endif /* STM32F446xx || STM32F469xx || STM32F479xx || STM32F412Zx || STM32F412Rx || STM32F412Vx || STM32F412Cx */

  /* Restart the Phy Clock */
  USBx_PCGCCTL = 0U;
  da:	6b2b      	ldr	r3, [r5, #48]	; 0x30
  dc:	f443 3380 	orr.w	r3, r3, #65536	; 0x10000

  /* Device mode configuration */
  USBx_DEVICE->DCFG |= DCFG_FRAME_INTERVAL_80;
  e0:	f043 0303 	orr.w	r3, r3, #3
  e4:	632b      	str	r3, [r5, #48]	; 0x30
  e6:	6b2b      	ldr	r3, [r5, #48]	; 0x30
  
  if(cfg.phy_itface  == USB_OTG_ULPI_PHY)
  e8:	2300      	movs	r3, #0
  ea:	61a3      	str	r3, [r4, #24]

  /* Restart the Phy Clock */
  USBx_PCGCCTL = 0U;

  /* Device mode configuration */
  USBx_DEVICE->DCFG |= DCFG_FRAME_INTERVAL_80;
  ec:	f06f 4380 	mvn.w	r3, #1073741824	; 0x40000000
  
  if(cfg.phy_itface  == USB_OTG_ULPI_PHY)
  f0:	6163      	str	r3, [r4, #20]
  {
    if(cfg.speed == USB_OTG_SPEED_HIGH)
  f2:	b91f      	cbnz	r7, fc <USB_DevInit+0xfc>
  f4:	69a3      	ldr	r3, [r4, #24]
      USB_SetDevSpeed (USBx , USB_OTG_SPEED_HIGH);
    }
    else 
    {
      /* set High speed phy in Full speed mode */
      USB_SetDevSpeed (USBx , USB_OTG_SPEED_HIGH_IN_FULL);
  f6:	f043 0310 	orr.w	r3, r3, #16
  fa:	61a3      	str	r3, [r4, #24]
  fc:	69a2      	ldr	r2, [r4, #24]
  fe:	4b0c      	ldr	r3, [pc, #48]	; (130 <USB_DevInit+0x130>)
    }
  }
  else
  {
    /* Set Full speed phy */
    USB_SetDevSpeed (USBx , USB_OTG_SPEED_FULL);
 100:	4313      	orrs	r3, r2
 102:	61a3      	str	r3, [r4, #24]
 104:	9b0d      	ldr	r3, [sp, #52]	; 0x34
 106:	b11b      	cbz	r3, 110 <USB_DevInit+0x110>
  }

  /* Flush the FIFOs */
  USB_FlushTxFifo(USBx , 0x10U); /* all Tx FIFOs */
 108:	69a3      	ldr	r3, [r4, #24]
 10a:	f043 0308 	orr.w	r3, r3, #8
 10e:	61a3      	str	r3, [r4, #24]
  USB_FlushRxFifo(USBx);
 110:	2e01      	cmp	r6, #1
 112:	bf01      	itttt	eq
 114:	69a3      	ldreq	r3, [r4, #24]
  
  /* Clear all pending Device Interrupts */
  USBx_DEVICE->DIEPMSK = 0U;
 116:	f043 4380 	orreq.w	r3, r3, #1073741824	; 0x40000000
  USBx_DEVICE->DOEPMSK = 0U;
  USBx_DEVICE->DAINT = 0xFFFFFFFFU;
 11a:	f043 0304 	orreq.w	r3, r3, #4
  /* Flush the FIFOs */
  USB_FlushTxFifo(USBx , 0x10U); /* all Tx FIFOs */
  USB_FlushRxFifo(USBx);
  
  /* Clear all pending Device Interrupts */
  USBx_DEVICE->DIEPMSK = 0U;
 11e:	61a3      	streq	r3, [r4, #24]
  USBx_DEVICE->DOEPMSK = 0U;
 120:	e8bd 41f0 	ldmia.w	sp!, {r4, r5, r6, r7, r8, lr}
  
  for (i = 0U; i < cfg.dev_endpoints; i++)
  {
    if ((USBx_INEP(i)->DIEPCTL & USB_OTG_DIEPCTL_EPENA) == USB_OTG_DIEPCTL_EPENA)
    {
      USBx_INEP(i)->DIEPCTL = (USB_OTG_DIEPCTL_EPDIS | USB_OTG_DIEPCTL_SNAK);
 124:	2000      	movs	r0, #0
  USB_FlushRxFifo(USBx);
  
  /* Clear all pending Device Interrupts */
  USBx_DEVICE->DIEPMSK = 0U;
  USBx_DEVICE->DOEPMSK = 0U;
  USBx_DEVICE->DAINT = 0xFFFFFFFFU;
 126:	b004      	add	sp, #16
    {
      USBx_INEP(i)->DIEPCTL = 0U;
    }
    
    USBx_INEP(i)->DIEPTSIZ = 0U;
    USBx_INEP(i)->DIEPINT  = 0xFFU;
 128:	4770      	bx	lr
 12a:	bf00      	nop
  
  /* Clear all pending Device Interrupts */
  USBx_DEVICE->DIEPMSK = 0U;
  USBx_DEVICE->DOEPMSK = 0U;
  USBx_DEVICE->DAINT = 0xFFFFFFFFU;
  USBx_DEVICE->DAINTMSK = 0U;
 12c:	00800100 	.word	0x00800100
 130:	803c3800 	.word	0x803c3800

Disassembly of section .text.USB_FlushTxFifo:

00000000 <USB_FlushTxFifo>:
   0:	0189      	lsls	r1, r1, #6
   2:	f041 0120 	orr.w	r1, r1, #32
  * @param  cfg : pointer to a USB_OTG_CfgTypeDef structure that contains
  *         the configuration information for the specified USBx peripheral.
  * @retval HAL status
  */
HAL_StatusTypeDef USB_CoreInit(USB_OTG_GlobalTypeDef *USBx, USB_OTG_CfgTypeDef cfg)
{
   6:	4a06      	ldr	r2, [pc, #24]	; (20 <USB_FlushTxFifo+0x20>)
   8:	6101      	str	r1, [r0, #16]
   a:	3a01      	subs	r2, #1
   c:	d005      	beq.n	1a <USB_FlushTxFifo+0x1a>
  if (cfg.phy_itface == USB_OTG_ULPI_PHY)
   e:	6903      	ldr	r3, [r0, #16]
  10:	f013 0320 	ands.w	r3, r3, #32
  14:	d1f9      	bne.n	a <USB_FlushTxFifo+0xa>
  {
    
    USBx->GCCFG &= ~(USB_OTG_GCCFG_PWRDWN);
  16:	4618      	mov	r0, r3
  18:	4770      	bx	lr
  1a:	2003      	movs	r0, #3
  1c:	4770      	bx	lr

    /* Init The ULPI Interface */
    USBx->GUSBCFG &= ~(USB_OTG_GUSBCFG_TSDPS | USB_OTG_GUSBCFG_ULPIFSLS | USB_OTG_GUSBCFG_PHYSEL);
  1e:	bf00      	nop
  20:	00030d41 	.word	0x00030d41

Disassembly of section .text.USB_FlushRxFifo:

00000000 <USB_FlushRxFifo>:
   0:	2310      	movs	r3, #16
   2:	4a06      	ldr	r2, [pc, #24]	; (1c <USB_FlushRxFifo+0x1c>)
  * @param  cfg : pointer to a USB_OTG_CfgTypeDef structure that contains
  *         the configuration information for the specified USBx peripheral.
  * @retval HAL status
  */
HAL_StatusTypeDef USB_CoreInit(USB_OTG_GlobalTypeDef *USBx, USB_OTG_CfgTypeDef cfg)
{
   4:	6103      	str	r3, [r0, #16]
   6:	3a01      	subs	r2, #1
   8:	d005      	beq.n	16 <USB_FlushRxFifo+0x16>
   a:	6903      	ldr	r3, [r0, #16]
   c:	f013 0310 	ands.w	r3, r3, #16
  if (cfg.phy_itface == USB_OTG_ULPI_PHY)
  10:	d1f9      	bne.n	6 <USB_FlushRxFifo+0x6>
  * @param  cfg : pointer to a USB_OTG_CfgTypeDef structure that contains
  *         the configuration information for the specified USBx peripheral.
  * @retval HAL status
  */
HAL_StatusTypeDef USB_CoreInit(USB_OTG_GlobalTypeDef *USBx, USB_OTG_CfgTypeDef cfg)
{
  12:	4618      	mov	r0, r3
  if (cfg.phy_itface == USB_OTG_ULPI_PHY)
  14:	4770      	bx	lr
  {
    
    USBx->GCCFG &= ~(USB_OTG_GCCFG_PWRDWN);
  16:	2003      	movs	r0, #3
  18:	4770      	bx	lr
  1a:	bf00      	nop
  1c:	00030d41 	.word	0x00030d41

Disassembly of section .text.USB_SetDevSpeed:

00000000 <USB_SetDevSpeed>:
   0:	f8d0 3800 	ldr.w	r3, [r0, #2048]	; 0x800
  * @param  cfg : pointer to a USB_OTG_CfgTypeDef structure that contains
  *         the configuration information for the specified USBx peripheral.
  * @retval HAL status
  */
HAL_StatusTypeDef USB_CoreInit(USB_OTG_GlobalTypeDef *USBx, USB_OTG_CfgTypeDef cfg)
{
   4:	4319      	orrs	r1, r3
   6:	f8c0 1800 	str.w	r1, [r0, #2048]	; 0x800
   a:	2000      	movs	r0, #0
   c:	4770      	bx	lr

Disassembly of section .text.USB_GetDevSpeed:

00000000 <USB_GetDevSpeed>:
   0:	f8d0 3808 	ldr.w	r3, [r0, #2056]	; 0x808
   4:	f500 6200 	add.w	r2, r0, #2048	; 0x800
   8:	f013 0006 	ands.w	r0, r3, #6
   c:	d012      	beq.n	34 <USB_GetDevSpeed+0x34>
  if (cfg.phy_itface == USB_OTG_ULPI_PHY)
   e:	6893      	ldr	r3, [r2, #8]
  10:	f003 0306 	and.w	r3, r3, #6
  14:	2b02      	cmp	r3, #2
  {
    
    USBx->GCCFG &= ~(USB_OTG_GCCFG_PWRDWN);
  16:	d00c      	beq.n	32 <USB_GetDevSpeed+0x32>
  18:	6893      	ldr	r3, [r2, #8]
  1a:	f003 0306 	and.w	r3, r3, #6

    /* Init The ULPI Interface */
    USBx->GUSBCFG &= ~(USB_OTG_GUSBCFG_TSDPS | USB_OTG_GUSBCFG_ULPIFSLS | USB_OTG_GUSBCFG_PHYSEL);
  1e:	2b06      	cmp	r3, #6
  20:	d007      	beq.n	32 <USB_GetDevSpeed+0x32>
  22:	6893      	ldr	r3, [r2, #8]
  24:	f003 0306 	and.w	r3, r3, #6
  28:	2b04      	cmp	r3, #4
   
    /* Select vbus source */
    USBx->GUSBCFG &= ~(USB_OTG_GUSBCFG_ULPIEVBUSD | USB_OTG_GUSBCFG_ULPIEVBUSI);
  2a:	bf14      	ite	ne
  2c:	2000      	movne	r0, #0
  2e:	2002      	moveq	r0, #2
  30:	4770      	bx	lr
    if(cfg.use_external_vbus == 1U)
  32:	2003      	movs	r0, #3
  34:	4770      	bx	lr

Disassembly of section .text.USB_ActivateEndpoint:

00000000 <USB_ActivateEndpoint>:
   0:	b570      	push	{r4, r5, r6, lr}
   2:	784b      	ldrb	r3, [r1, #1]
  * @param  cfg : pointer to a USB_OTG_CfgTypeDef structure that contains
  *         the configuration information for the specified USBx peripheral.
  * @retval HAL status
  */
HAL_StatusTypeDef USB_CoreInit(USB_OTG_GlobalTypeDef *USBx, USB_OTG_CfgTypeDef cfg)
{
   4:	780e      	ldrb	r6, [r1, #0]
   6:	f8d0 481c 	ldr.w	r4, [r0, #2076]	; 0x81c
   a:	f500 6200 	add.w	r2, r0, #2048	; 0x800
  if (cfg.phy_itface == USB_OTG_ULPI_PHY)
   e:	2b01      	cmp	r3, #1
  10:	d11b      	bne.n	4a <USB_ActivateEndpoint+0x4a>
  * @param  cfg : pointer to a USB_OTG_CfgTypeDef structure that contains
  *         the configuration information for the specified USBx peripheral.
  * @retval HAL status
  */
HAL_StatusTypeDef USB_CoreInit(USB_OTG_GlobalTypeDef *USBx, USB_OTG_CfgTypeDef cfg)
{
  12:	40b3      	lsls	r3, r6
  if (cfg.phy_itface == USB_OTG_ULPI_PHY)
  14:	b29b      	uxth	r3, r3
  {
    
    USBx->GCCFG &= ~(USB_OTG_GCCFG_PWRDWN);
  16:	4323      	orrs	r3, r4
  18:	61d3      	str	r3, [r2, #28]
  1a:	780e      	ldrb	r6, [r1, #0]
  1c:	f44f 6510 	mov.w	r5, #2304	; 0x900

    /* Init The ULPI Interface */
    USBx->GUSBCFG &= ~(USB_OTG_GUSBCFG_TSDPS | USB_OTG_GUSBCFG_ULPIFSLS | USB_OTG_GUSBCFG_PHYSEL);
  20:	eb05 1546 	add.w	r5, r5, r6, lsl #5
  24:	582b      	ldr	r3, [r5, r0]
  26:	041a      	lsls	r2, r3, #16
  28:	d42a      	bmi.n	80 <USB_ActivateEndpoint+0x80>
   
    /* Select vbus source */
    USBx->GUSBCFG &= ~(USB_OTG_GUSBCFG_ULPIEVBUSD | USB_OTG_GUSBCFG_ULPIEVBUSI);
  2a:	582c      	ldr	r4, [r5, r0]
  2c:	688a      	ldr	r2, [r1, #8]
  2e:	f044 5380 	orr.w	r3, r4, #268435456	; 0x10000000
    if(cfg.use_external_vbus == 1U)
  32:	f443 4300 	orr.w	r3, r3, #32768	; 0x8000
    {
      USBx->GUSBCFG |= USB_OTG_GUSBCFG_ULPIEVBUSD;
  36:	f3c2 020a 	ubfx	r2, r2, #0, #11
  3a:	431a      	orrs	r2, r3
  3c:	78cb      	ldrb	r3, [r1, #3]
  3e:	ea42 4383 	orr.w	r3, r2, r3, lsl #18
    }
    /* Reset after a PHY select  */
    USB_CoreReset(USBx); 
  42:	ea43 5386 	orr.w	r3, r3, r6, lsl #22
  }
  else /* FS interface (embedded Phy) */
  {
    /* Select FS Embedded PHY */
    USBx->GUSBCFG |= USB_OTG_GUSBCFG_PHYSEL;
  46:	502b      	str	r3, [r5, r0]
  48:	e01a      	b.n	80 <USB_ActivateEndpoint+0x80>
  4a:	f44f 3580 	mov.w	r5, #65536	; 0x10000
    
    /* Reset after a PHY select and set Host mode */
    USB_CoreReset(USBx);
  4e:	fa05 f306 	lsl.w	r3, r5, r6
    
    /* Deactivate the power down*/
    USBx->GCCFG = USB_OTG_GCCFG_PWRDWN;
  52:	4323      	orrs	r3, r4
  54:	61d3      	str	r3, [r2, #28]
  56:	780c      	ldrb	r4, [r1, #0]
  }
 
  if(cfg.dma_enable == ENABLE)
  58:	f44f 6330 	mov.w	r3, #2816	; 0xb00
  {
    USBx->GAHBCFG |= USB_OTG_GAHBCFG_DMAEN;
  5c:	eb03 1444 	add.w	r4, r3, r4, lsl #5
  60:	5823      	ldr	r3, [r4, r0]
  62:	041b      	lsls	r3, r3, #16
  64:	d40c      	bmi.n	80 <USB_ActivateEndpoint+0x80>
  }  

  return HAL_OK;
}
  66:	5822      	ldr	r2, [r4, r0]
  68:	688b      	ldr	r3, [r1, #8]
  6a:	f3c3 050a 	ubfx	r5, r3, #0, #11
  6e:	f042 5380 	orr.w	r3, r2, #268435456	; 0x10000000
  * @param  USBx : Selected device
  * @retval HAL status
  */
HAL_StatusTypeDef USB_EnableGlobalInt(USB_OTG_GlobalTypeDef *USBx)
{
  USBx->GAHBCFG |= USB_OTG_GAHBCFG_GINT;
  72:	f443 4300 	orr.w	r3, r3, #32768	; 0x8000
  76:	78ca      	ldrb	r2, [r1, #3]
  return HAL_OK;
}
  78:	432b      	orrs	r3, r5
  7a:	ea43 4382 	orr.w	r3, r3, r2, lsl #18
  * @param  USBx : Selected device
  * @retval HAL status
*/
HAL_StatusTypeDef USB_DisableGlobalInt(USB_OTG_GlobalTypeDef *USBx)
{
  USBx->GAHBCFG &= ~USB_OTG_GAHBCFG_GINT;
  7e:	5023      	str	r3, [r4, r0]
  80:	2000      	movs	r0, #0
  82:	bd70      	pop	{r4, r5, r6, pc}

Disassembly of section .text.USB_ActivateDedicatedEndpoint:

00000000 <USB_ActivateDedicatedEndpoint>:
   0:	b5f0      	push	{r4, r5, r6, r7, lr}
   2:	784b      	ldrb	r3, [r1, #1]
  * @param  cfg : pointer to a USB_OTG_CfgTypeDef structure that contains
  *         the configuration information for the specified USBx peripheral.
  * @retval HAL status
  */
HAL_StatusTypeDef USB_CoreInit(USB_OTG_GlobalTypeDef *USBx, USB_OTG_CfgTypeDef cfg)
{
   4:	780f      	ldrb	r7, [r1, #0]
   6:	2b01      	cmp	r3, #1
   8:	f04f 0620 	mov.w	r6, #32
   c:	f500 6500 	add.w	r5, r0, #2048	; 0x800
  if (cfg.phy_itface == USB_OTG_ULPI_PHY)
  10:	d12e      	bne.n	70 <USB_ActivateDedicatedEndpoint+0x70>
  * @param  cfg : pointer to a USB_OTG_CfgTypeDef structure that contains
  *         the configuration information for the specified USBx peripheral.
  * @retval HAL status
  */
HAL_StatusTypeDef USB_CoreInit(USB_OTG_GlobalTypeDef *USBx, USB_OTG_CfgTypeDef cfg)
{
  12:	f44f 6310 	mov.w	r3, #2304	; 0x900
  if (cfg.phy_itface == USB_OTG_ULPI_PHY)
  {
    
    USBx->GCCFG &= ~(USB_OTG_GCCFG_PWRDWN);
  16:	fb16 3607 	smlabb	r6, r6, r7, r3
  1a:	5983      	ldr	r3, [r0, r6]
  1c:	041a      	lsls	r2, r3, #16

    /* Init The ULPI Interface */
    USBx->GUSBCFG &= ~(USB_OTG_GUSBCFG_TSDPS | USB_OTG_GUSBCFG_ULPIFSLS | USB_OTG_GUSBCFG_PHYSEL);
  1e:	d40e      	bmi.n	3e <USB_ActivateDedicatedEndpoint+0x3e>
  20:	688b      	ldr	r3, [r1, #8]
  22:	5984      	ldr	r4, [r0, r6]
  24:	f3c3 020a 	ubfx	r2, r3, #0, #11
  28:	f044 5380 	orr.w	r3, r4, #268435456	; 0x10000000
   
    /* Select vbus source */
    USBx->GUSBCFG &= ~(USB_OTG_GUSBCFG_ULPIEVBUSD | USB_OTG_GUSBCFG_ULPIEVBUSI);
  2c:	f443 4300 	orr.w	r3, r3, #32768	; 0x8000
  30:	431a      	orrs	r2, r3
    if(cfg.use_external_vbus == 1U)
  32:	78cb      	ldrb	r3, [r1, #3]
  34:	ea42 4383 	orr.w	r3, r2, r3, lsl #18
    {
      USBx->GUSBCFG |= USB_OTG_GUSBCFG_ULPIEVBUSD;
  38:	ea43 5387 	orr.w	r3, r3, r7, lsl #22
  3c:	5183      	str	r3, [r0, r6]
  3e:	4e27      	ldr	r6, [pc, #156]	; (dc <USB_ActivateDedicatedEndpoint+0xdc>)
    }
    /* Reset after a PHY select  */
    USB_CoreReset(USBx); 
  40:	6888      	ldr	r0, [r1, #8]
  42:	6832      	ldr	r2, [r6, #0]
  44:	780c      	ldrb	r4, [r1, #0]
  }
  else /* FS interface (embedded Phy) */
  {
    /* Select FS Embedded PHY */
    USBx->GUSBCFG |= USB_OTG_GUSBCFG_PHYSEL;
  46:	f042 5380 	orr.w	r3, r2, #268435456	; 0x10000000
  4a:	f3c0 000a 	ubfx	r0, r0, #0, #11
    
    /* Reset after a PHY select and set Host mode */
    USB_CoreReset(USBx);
  4e:	78ca      	ldrb	r2, [r1, #3]
  50:	f443 4300 	orr.w	r3, r3, #32768	; 0x8000
    
    /* Deactivate the power down*/
    USBx->GCCFG = USB_OTG_GCCFG_PWRDWN;
  54:	4303      	orrs	r3, r0
  56:	ea43 4382 	orr.w	r3, r3, r2, lsl #18
  }
 
  if(cfg.dma_enable == ENABLE)
  5a:	ea43 5384 	orr.w	r3, r3, r4, lsl #22
  {
    USBx->GAHBCFG |= USB_OTG_GAHBCFG_DMAEN;
  5e:	6033      	str	r3, [r6, #0]
  60:	2201      	movs	r2, #1
  62:	6be9      	ldr	r1, [r5, #60]	; 0x3c
  64:	fa02 f304 	lsl.w	r3, r2, r4
  }  

  return HAL_OK;
}
  68:	b29b      	uxth	r3, r3
  6a:	430b      	orrs	r3, r1
  6c:	63eb      	str	r3, [r5, #60]	; 0x3c
  6e:	e033      	b.n	d8 <USB_ActivateDedicatedEndpoint+0xd8>
  * @param  USBx : Selected device
  * @retval HAL status
  */
HAL_StatusTypeDef USB_EnableGlobalInt(USB_OTG_GlobalTypeDef *USBx)
{
  USBx->GAHBCFG |= USB_OTG_GAHBCFG_GINT;
  70:	f44f 6e30 	mov.w	lr, #2816	; 0xb00
  74:	fb16 ec07 	smlabb	ip, r6, r7, lr
  return HAL_OK;
}
  78:	f850 300c 	ldr.w	r3, [r0, ip]
  * @param  USBx : Selected device
  * @retval HAL status
*/
HAL_StatusTypeDef USB_DisableGlobalInt(USB_OTG_GlobalTypeDef *USBx)
{
  USBx->GAHBCFG &= ~USB_OTG_GAHBCFG_GINT;
  7c:	041b      	lsls	r3, r3, #16
  7e:	d424      	bmi.n	ca <USB_ActivateDedicatedEndpoint+0xca>
  80:	f850 400c 	ldr.w	r4, [r0, ip]
  return HAL_OK;
}
  84:	688a      	ldr	r2, [r1, #8]
  86:	f3c2 030a 	ubfx	r3, r2, #0, #11
  *            @arg USB_OTG_DRD_MODE: Dual Role Device mode  
  * @retval HAL status
  */
HAL_StatusTypeDef USB_SetCurrentMode(USB_OTG_GlobalTypeDef *USBx , USB_OTG_ModeTypeDef mode)
{
  USBx->GUSBCFG &= ~(USB_OTG_GUSBCFG_FHMOD | USB_OTG_GUSBCFG_FDMOD); 
  8a:	f444 4200 	orr.w	r2, r4, #32768	; 0x8000
  8e:	431a      	orrs	r2, r3
  90:	78cb      	ldrb	r3, [r1, #3]
  92:	4c12      	ldr	r4, [pc, #72]	; (dc <USB_ActivateDedicatedEndpoint+0xdc>)
  
  if ( mode == USB_OTG_HOST_MODE)
  94:	ea42 4283 	orr.w	r2, r2, r3, lsl #18
  {
    USBx->GUSBCFG |= USB_OTG_GUSBCFG_FHMOD; 
  98:	ea42 5387 	orr.w	r3, r2, r7, lsl #22
  9c:	f840 300c 	str.w	r3, [r0, ip]
  }
  else if ( mode == USB_OTG_DEVICE_MODE)
  a0:	780f      	ldrb	r7, [r1, #0]
  {
    USBx->GUSBCFG |= USB_OTG_GUSBCFG_FDMOD; 
  a2:	fb16 e607 	smlabb	r6, r6, r7, lr
  a6:	eb00 030e 	add.w	r3, r0, lr
  }
  HAL_Delay(50U);
  aa:	4430      	add	r0, r6
  ac:	6023      	str	r3, [r4, #0]
  ae:	6020      	str	r0, [r4, #0]
  
  return HAL_OK;
}
  b0:	6822      	ldr	r2, [r4, #0]
  b2:	6888      	ldr	r0, [r1, #8]
  * @param  cfg  : pointer to a USB_OTG_CfgTypeDef structure that contains
  *         the configuration information for the specified USBx peripheral.
  * @retval HAL status
  */
HAL_StatusTypeDef USB_DevInit (USB_OTG_GlobalTypeDef *USBx, USB_OTG_CfgTypeDef cfg)
{
  b4:	78cb      	ldrb	r3, [r1, #3]
  b6:	f3c0 000a 	ubfx	r0, r0, #0, #11
  ba:	f442 4200 	orr.w	r2, r2, #32768	; 0x8000
  be:	4302      	orrs	r2, r0
  c0:	ea42 4383 	orr.w	r3, r2, r3, lsl #18
    /* B-peripheral session valid override enable*/ 
    USBx->GOTGCTL |= USB_OTG_GOTGCTL_BVALOEN;
    USBx->GOTGCTL |= USB_OTG_GOTGCTL_BVALOVAL;
  }
#else
  USBx->GCCFG |= USB_OTG_GCCFG_VBUSBSEN;
  c4:	ea43 5387 	orr.w	r3, r3, r7, lsl #22
  c8:	6023      	str	r3, [r4, #0]
  ca:	7809      	ldrb	r1, [r1, #0]
  cc:	6bea      	ldr	r2, [r5, #60]	; 0x3c
  ce:	f44f 3380 	mov.w	r3, #65536	; 0x10000
  
  if (cfg.vbus_sensing_enable == 0U)
  {
    USBx->GCCFG |= USB_OTG_GCCFG_NOVBUSSENS;
  d2:	408b      	lsls	r3, r1
  d4:	4313      	orrs	r3, r2
  d6:	63eb      	str	r3, [r5, #60]	; 0x3c
  d8:	2000      	movs	r0, #0
  }
#endif /* STM32F446xx || STM32F469xx || STM32F479xx || STM32F412Zx || STM32F412Rx || STM32F412Vx || STM32F412Cx */

  /* Restart the Phy Clock */
  USBx_PCGCCTL = 0U;
  da:	bdf0      	pop	{r4, r5, r6, r7, pc}
  dc:	00000000 	.word	0x00000000

Disassembly of section .text.USB_DeactivateEndpoint:

00000000 <USB_DeactivateEndpoint>:
   0:	b530      	push	{r4, r5, lr}
   2:	784c      	ldrb	r4, [r1, #1]
  * @param  cfg : pointer to a USB_OTG_CfgTypeDef structure that contains
  *         the configuration information for the specified USBx peripheral.
  * @retval HAL status
  */
HAL_StatusTypeDef USB_CoreInit(USB_OTG_GlobalTypeDef *USBx, USB_OTG_CfgTypeDef cfg)
{
   4:	780a      	ldrb	r2, [r1, #0]
   6:	f8d0 583c 	ldr.w	r5, [r0, #2108]	; 0x83c
   a:	f500 6300 	add.w	r3, r0, #2048	; 0x800
  if (cfg.phy_itface == USB_OTG_ULPI_PHY)
   e:	2c01      	cmp	r4, #1
  10:	d116      	bne.n	40 <USB_DeactivateEndpoint+0x40>
  * @param  cfg : pointer to a USB_OTG_CfgTypeDef structure that contains
  *         the configuration information for the specified USBx peripheral.
  * @retval HAL status
  */
HAL_StatusTypeDef USB_CoreInit(USB_OTG_GlobalTypeDef *USBx, USB_OTG_CfgTypeDef cfg)
{
  12:	fa04 f202 	lsl.w	r2, r4, r2
  if (cfg.phy_itface == USB_OTG_ULPI_PHY)
  {
    
    USBx->GCCFG &= ~(USB_OTG_GCCFG_PWRDWN);
  16:	b292      	uxth	r2, r2
  18:	ea25 0202 	bic.w	r2, r5, r2
  1c:	63da      	str	r2, [r3, #60]	; 0x3c

    /* Init The ULPI Interface */
    USBx->GUSBCFG &= ~(USB_OTG_GUSBCFG_TSDPS | USB_OTG_GUSBCFG_ULPIFSLS | USB_OTG_GUSBCFG_PHYSEL);
  1e:	780d      	ldrb	r5, [r1, #0]
  20:	69da      	ldr	r2, [r3, #28]
  22:	40ac      	lsls	r4, r5
  24:	b2a4      	uxth	r4, r4
  26:	ea22 0404 	bic.w	r4, r2, r4
   
    /* Select vbus source */
    USBx->GUSBCFG &= ~(USB_OTG_GUSBCFG_ULPIEVBUSD | USB_OTG_GUSBCFG_ULPIEVBUSI);
  2a:	61dc      	str	r4, [r3, #28]
  2c:	780a      	ldrb	r2, [r1, #0]
  2e:	f44f 6310 	mov.w	r3, #2304	; 0x900
    if(cfg.use_external_vbus == 1U)
  32:	eb03 1342 	add.w	r3, r3, r2, lsl #5
    {
      USBx->GUSBCFG |= USB_OTG_GUSBCFG_ULPIEVBUSD;
  36:	581a      	ldr	r2, [r3, r0]
  38:	f422 4200 	bic.w	r2, r2, #32768	; 0x8000
  3c:	501a      	str	r2, [r3, r0]
  3e:	e014      	b.n	6a <USB_DeactivateEndpoint+0x6a>
    }
    /* Reset after a PHY select  */
    USB_CoreReset(USBx); 
  40:	2401      	movs	r4, #1
  42:	fa04 f202 	lsl.w	r2, r4, r2
  }
  else /* FS interface (embedded Phy) */
  {
    /* Select FS Embedded PHY */
    USBx->GUSBCFG |= USB_OTG_GUSBCFG_PHYSEL;
  46:	ea25 4202 	bic.w	r2, r5, r2, lsl #16
  4a:	63da      	str	r2, [r3, #60]	; 0x3c
  4c:	780d      	ldrb	r5, [r1, #0]
    
    /* Reset after a PHY select and set Host mode */
    USB_CoreReset(USBx);
  4e:	69da      	ldr	r2, [r3, #28]
  50:	40ac      	lsls	r4, r5
    
    /* Deactivate the power down*/
    USBx->GCCFG = USB_OTG_GCCFG_PWRDWN;
  52:	ea22 4404 	bic.w	r4, r2, r4, lsl #16
  56:	61dc      	str	r4, [r3, #28]
  }
 
  if(cfg.dma_enable == ENABLE)
  58:	780a      	ldrb	r2, [r1, #0]
  5a:	f44f 6330 	mov.w	r3, #2816	; 0xb00
  {
    USBx->GAHBCFG |= USB_OTG_GAHBCFG_DMAEN;
  5e:	eb03 1342 	add.w	r3, r3, r2, lsl #5
  62:	581a      	ldr	r2, [r3, r0]
  64:	f422 4200 	bic.w	r2, r2, #32768	; 0x8000
  }  

  return HAL_OK;
}
  68:	501a      	str	r2, [r3, r0]
  6a:	2000      	movs	r0, #0
  6c:	bd30      	pop	{r4, r5, pc}

Disassembly of section .text.USB_DeactivateDedicatedEndpoint:

00000000 <USB_DeactivateDedicatedEndpoint>:
   0:	b570      	push	{r4, r5, r6, lr}
   2:	784c      	ldrb	r4, [r1, #1]
  * @param  cfg : pointer to a USB_OTG_CfgTypeDef structure that contains
  *         the configuration information for the specified USBx peripheral.
  * @retval HAL status
  */
HAL_StatusTypeDef USB_CoreInit(USB_OTG_GlobalTypeDef *USBx, USB_OTG_CfgTypeDef cfg)
{
   4:	780e      	ldrb	r6, [r1, #0]
   6:	2c01      	cmp	r4, #1
   8:	f04f 0220 	mov.w	r2, #32
   c:	f500 6500 	add.w	r5, r0, #2048	; 0x800
  if (cfg.phy_itface == USB_OTG_ULPI_PHY)
  10:	d10f      	bne.n	32 <USB_DeactivateDedicatedEndpoint+0x32>
  * @param  cfg : pointer to a USB_OTG_CfgTypeDef structure that contains
  *         the configuration information for the specified USBx peripheral.
  * @retval HAL status
  */
HAL_StatusTypeDef USB_CoreInit(USB_OTG_GlobalTypeDef *USBx, USB_OTG_CfgTypeDef cfg)
{
  12:	f44f 6310 	mov.w	r3, #2304	; 0x900
  if (cfg.phy_itface == USB_OTG_ULPI_PHY)
  {
    
    USBx->GCCFG &= ~(USB_OTG_GCCFG_PWRDWN);
  16:	fb12 3306 	smlabb	r3, r2, r6, r3
  1a:	581a      	ldr	r2, [r3, r0]
  1c:	f422 4200 	bic.w	r2, r2, #32768	; 0x8000

    /* Init The ULPI Interface */
    USBx->GUSBCFG &= ~(USB_OTG_GUSBCFG_TSDPS | USB_OTG_GUSBCFG_ULPIFSLS | USB_OTG_GUSBCFG_PHYSEL);
  20:	501a      	str	r2, [r3, r0]
  22:	780a      	ldrb	r2, [r1, #0]
  24:	69eb      	ldr	r3, [r5, #28]
  26:	4094      	lsls	r4, r2
  28:	b2a4      	uxth	r4, r4
   
    /* Select vbus source */
    USBx->GUSBCFG &= ~(USB_OTG_GUSBCFG_ULPIEVBUSD | USB_OTG_GUSBCFG_ULPIEVBUSI);
  2a:	ea23 0404 	bic.w	r4, r3, r4
  2e:	61ec      	str	r4, [r5, #28]
  30:	e00f      	b.n	52 <USB_DeactivateDedicatedEndpoint+0x52>
    if(cfg.use_external_vbus == 1U)
  32:	f44f 6330 	mov.w	r3, #2816	; 0xb00
    {
      USBx->GUSBCFG |= USB_OTG_GUSBCFG_ULPIEVBUSD;
  36:	fb12 3306 	smlabb	r3, r2, r6, r3
  3a:	581a      	ldr	r2, [r3, r0]
  3c:	f422 4200 	bic.w	r2, r2, #32768	; 0x8000
    }
    /* Reset after a PHY select  */
    USB_CoreReset(USBx); 
  40:	501a      	str	r2, [r3, r0]
  42:	7809      	ldrb	r1, [r1, #0]
  44:	69ea      	ldr	r2, [r5, #28]
  }
  else /* FS interface (embedded Phy) */
  {
    /* Select FS Embedded PHY */
    USBx->GUSBCFG |= USB_OTG_GUSBCFG_PHYSEL;
  46:	f44f 3380 	mov.w	r3, #65536	; 0x10000
  4a:	408b      	lsls	r3, r1
  4c:	ea22 0303 	bic.w	r3, r2, r3
    
    /* Reset after a PHY select and set Host mode */
    USB_CoreReset(USBx);
  50:	61eb      	str	r3, [r5, #28]
    
    /* Deactivate the power down*/
    USBx->GCCFG = USB_OTG_GCCFG_PWRDWN;
  52:	2000      	movs	r0, #0
  54:	bd70      	pop	{r4, r5, r6, pc}

Disassembly of section .text.USB_EPStartXfer:

00000000 <USB_EPStartXfer>:
   0:	b5f7      	push	{r0, r1, r2, r4, r5, r6, r7, lr}
   2:	784b      	ldrb	r3, [r1, #1]
  * @param  cfg : pointer to a USB_OTG_CfgTypeDef structure that contains
  *         the configuration information for the specified USBx peripheral.
  * @retval HAL status
  */
HAL_StatusTypeDef USB_CoreInit(USB_OTG_GlobalTypeDef *USBx, USB_OTG_CfgTypeDef cfg)
{
   4:	2b01      	cmp	r3, #1
   6:	780b      	ldrb	r3, [r1, #0]
   8:	f040 809e 	bne.w	148 <USB_EPStartXfer+0x148>
   c:	2420      	movs	r4, #32
  if (cfg.phy_itface == USB_OTG_ULPI_PHY)
   e:	f44f 6510 	mov.w	r5, #2304	; 0x900
  * @param  cfg : pointer to a USB_OTG_CfgTypeDef structure that contains
  *         the configuration information for the specified USBx peripheral.
  * @retval HAL status
  */
HAL_StatusTypeDef USB_CoreInit(USB_OTG_GlobalTypeDef *USBx, USB_OTG_CfgTypeDef cfg)
{
  12:	694e      	ldr	r6, [r1, #20]
  if (cfg.phy_itface == USB_OTG_ULPI_PHY)
  14:	fb14 5303 	smlabb	r3, r4, r3, r5
  {
    
    USBx->GCCFG &= ~(USB_OTG_GCCFG_PWRDWN);
  18:	4403      	add	r3, r0
  1a:	b9b6      	cbnz	r6, 4a <USB_EPStartXfer+0x4a>
  1c:	691e      	ldr	r6, [r3, #16]

    /* Init The ULPI Interface */
    USBx->GUSBCFG &= ~(USB_OTG_GUSBCFG_TSDPS | USB_OTG_GUSBCFG_ULPIFSLS | USB_OTG_GUSBCFG_PHYSEL);
  1e:	f026 56ff 	bic.w	r6, r6, #534773760	; 0x1fe00000
  22:	f426 16c0 	bic.w	r6, r6, #1572864	; 0x180000
  26:	611e      	str	r6, [r3, #16]
  28:	780b      	ldrb	r3, [r1, #0]
   
    /* Select vbus source */
    USBx->GUSBCFG &= ~(USB_OTG_GUSBCFG_ULPIEVBUSD | USB_OTG_GUSBCFG_ULPIEVBUSI);
  2a:	fb14 5303 	smlabb	r3, r4, r3, r5
  2e:	4403      	add	r3, r0
  30:	691e      	ldr	r6, [r3, #16]
    if(cfg.use_external_vbus == 1U)
  32:	f446 2600 	orr.w	r6, r6, #524288	; 0x80000
    {
      USBx->GUSBCFG |= USB_OTG_GUSBCFG_ULPIEVBUSD;
  36:	611e      	str	r6, [r3, #16]
  38:	780b      	ldrb	r3, [r1, #0]
  3a:	fb14 5403 	smlabb	r4, r4, r3, r5
  3e:	4404      	add	r4, r0
    }
    /* Reset after a PHY select  */
    USB_CoreReset(USBx); 
  40:	6923      	ldr	r3, [r4, #16]
  42:	0cdb      	lsrs	r3, r3, #19
  44:	04db      	lsls	r3, r3, #19
  }
  else /* FS interface (embedded Phy) */
  {
    /* Select FS Embedded PHY */
    USBx->GUSBCFG |= USB_OTG_GUSBCFG_PHYSEL;
  46:	6123      	str	r3, [r4, #16]
  48:	e03f      	b.n	ca <USB_EPStartXfer+0xca>
  4a:	691e      	ldr	r6, [r3, #16]
  4c:	0cf6      	lsrs	r6, r6, #19
    
    /* Reset after a PHY select and set Host mode */
    USB_CoreReset(USBx);
  4e:	04f6      	lsls	r6, r6, #19
  50:	611e      	str	r6, [r3, #16]
    
    /* Deactivate the power down*/
    USBx->GCCFG = USB_OTG_GCCFG_PWRDWN;
  52:	780b      	ldrb	r3, [r1, #0]
  54:	fb14 5303 	smlabb	r3, r4, r3, r5
  }
 
  if(cfg.dma_enable == ENABLE)
  58:	4403      	add	r3, r0
  5a:	691e      	ldr	r6, [r3, #16]
  {
    USBx->GAHBCFG |= USB_OTG_GAHBCFG_DMAEN;
  5c:	f026 56ff 	bic.w	r6, r6, #534773760	; 0x1fe00000
  60:	f426 16c0 	bic.w	r6, r6, #1572864	; 0x180000
  64:	611e      	str	r6, [r3, #16]
  }  

  return HAL_OK;
}
  66:	780e      	ldrb	r6, [r1, #0]
  68:	f8d1 e008 	ldr.w	lr, [r1, #8]
  6c:	694b      	ldr	r3, [r1, #20]
  6e:	fb14 5606 	smlabb	r6, r4, r6, r5
  * @param  USBx : Selected device
  * @retval HAL status
  */
HAL_StatusTypeDef USB_EnableGlobalInt(USB_OTG_GlobalTypeDef *USBx)
{
  USBx->GAHBCFG |= USB_OTG_GAHBCFG_GINT;
  72:	4406      	add	r6, r0
  74:	4473      	add	r3, lr
  76:	3b01      	subs	r3, #1
  return HAL_OK;
}
  78:	fbb3 f3fe 	udiv	r3, r3, lr
  * @param  USBx : Selected device
  * @retval HAL status
*/
HAL_StatusTypeDef USB_DisableGlobalInt(USB_OTG_GlobalTypeDef *USBx)
{
  USBx->GAHBCFG &= ~USB_OTG_GAHBCFG_GINT;
  7c:	f8df e1b0 	ldr.w	lr, [pc, #432]	; 230 <USB_EPStartXfer+0x230>
  80:	6937      	ldr	r7, [r6, #16]
  82:	04db      	lsls	r3, r3, #19
  return HAL_OK;
}
  84:	ea03 0e0e 	and.w	lr, r3, lr
  *            @arg USB_OTG_HOST_MODE: Host mode
  *            @arg USB_OTG_DRD_MODE: Dual Role Device mode  
  * @retval HAL status
  */
HAL_StatusTypeDef USB_SetCurrentMode(USB_OTG_GlobalTypeDef *USBx , USB_OTG_ModeTypeDef mode)
{
  88:	ea4e 0307 	orr.w	r3, lr, r7
  USBx->GUSBCFG &= ~(USB_OTG_GUSBCFG_FHMOD | USB_OTG_GUSBCFG_FDMOD); 
  
  if ( mode == USB_OTG_HOST_MODE)
  8c:	6133      	str	r3, [r6, #16]
  *            @arg USB_OTG_DRD_MODE: Dual Role Device mode  
  * @retval HAL status
  */
HAL_StatusTypeDef USB_SetCurrentMode(USB_OTG_GlobalTypeDef *USBx , USB_OTG_ModeTypeDef mode)
{
  USBx->GUSBCFG &= ~(USB_OTG_GUSBCFG_FHMOD | USB_OTG_GUSBCFG_FDMOD); 
  8e:	780b      	ldrb	r3, [r1, #0]
  90:	694e      	ldr	r6, [r1, #20]
  92:	fb14 5303 	smlabb	r3, r4, r3, r5
  
  if ( mode == USB_OTG_HOST_MODE)
  {
    USBx->GUSBCFG |= USB_OTG_GUSBCFG_FHMOD; 
  96:	4403      	add	r3, r0
  98:	f3c6 0612 	ubfx	r6, r6, #0, #19
  9c:	691f      	ldr	r7, [r3, #16]
  9e:	433e      	orrs	r6, r7
  }
  else if ( mode == USB_OTG_DEVICE_MODE)
  a0:	611e      	str	r6, [r3, #16]
  {
    USBx->GUSBCFG |= USB_OTG_GUSBCFG_FDMOD; 
  a2:	78cb      	ldrb	r3, [r1, #3]
  a4:	2b01      	cmp	r3, #1
  a6:	f040 80bc 	bne.w	222 <USB_EPStartXfer+0x222>
  }
  HAL_Delay(50U);
  aa:	780b      	ldrb	r3, [r1, #0]
  ac:	fb14 5303 	smlabb	r3, r4, r3, r5
  
  return HAL_OK;
}
  b0:	4403      	add	r3, r0
  b2:	691e      	ldr	r6, [r3, #16]
  * @param  cfg  : pointer to a USB_OTG_CfgTypeDef structure that contains
  *         the configuration information for the specified USBx peripheral.
  * @retval HAL status
  */
HAL_StatusTypeDef USB_DevInit (USB_OTG_GlobalTypeDef *USBx, USB_OTG_CfgTypeDef cfg)
{
  b4:	f026 46c0 	bic.w	r6, r6, #1610612736	; 0x60000000
  b8:	611e      	str	r6, [r3, #16]
  ba:	780b      	ldrb	r3, [r1, #0]
  bc:	fb14 5403 	smlabb	r4, r4, r3, r5
  c0:	4404      	add	r4, r0
    /* B-peripheral session valid override enable*/ 
    USBx->GOTGCTL |= USB_OTG_GOTGCTL_BVALOEN;
    USBx->GOTGCTL |= USB_OTG_GOTGCTL_BVALOVAL;
  }
#else
  USBx->GCCFG |= USB_OTG_GCCFG_VBUSBSEN;
  c2:	6923      	ldr	r3, [r4, #16]
  c4:	f043 5300 	orr.w	r3, r3, #536870912	; 0x20000000
  c8:	6123      	str	r3, [r4, #16]
  ca:	2a01      	cmp	r2, #1
  cc:	d106      	bne.n	dc <USB_EPStartXfer+0xdc>
  ce:	780b      	ldrb	r3, [r1, #0]
  
  if (cfg.vbus_sensing_enable == 0U)
  d0:	690c      	ldr	r4, [r1, #16]
  {
    USBx->GCCFG |= USB_OTG_GCCFG_NOVBUSSENS;
  d2:	eb00 1343 	add.w	r3, r0, r3, lsl #5
  d6:	f8c3 4914 	str.w	r4, [r3, #2324]	; 0x914
  }
#endif /* STM32F446xx || STM32F469xx || STM32F479xx || STM32F412Zx || STM32F412Rx || STM32F412Vx || STM32F412Cx */

  /* Restart the Phy Clock */
  USBx_PCGCCTL = 0U;
  da:	e00c      	b.n	f6 <USB_EPStartXfer+0xf6>
  dc:	78cb      	ldrb	r3, [r1, #3]
  de:	2b01      	cmp	r3, #1

  /* Device mode configuration */
  USBx_DEVICE->DCFG |= DCFG_FRAME_INTERVAL_80;
  e0:	d00c      	beq.n	fc <USB_EPStartXfer+0xfc>
  e2:	694b      	ldr	r3, [r1, #20]
  e4:	b13b      	cbz	r3, f6 <USB_EPStartXfer+0xf6>
  e6:	780e      	ldrb	r6, [r1, #0]
  
  if(cfg.phy_itface  == USB_OTG_ULPI_PHY)
  e8:	f8d0 4834 	ldr.w	r4, [r0, #2100]	; 0x834

  /* Restart the Phy Clock */
  USBx_PCGCCTL = 0U;

  /* Device mode configuration */
  USBx_DEVICE->DCFG |= DCFG_FRAME_INTERVAL_80;
  ec:	2301      	movs	r3, #1
  ee:	40b3      	lsls	r3, r6
  
  if(cfg.phy_itface  == USB_OTG_ULPI_PHY)
  f0:	4323      	orrs	r3, r4
  {
    if(cfg.speed == USB_OTG_SPEED_HIGH)
  f2:	f8c0 3834 	str.w	r3, [r0, #2100]	; 0x834
      USB_SetDevSpeed (USBx , USB_OTG_SPEED_HIGH);
    }
    else 
    {
      /* set High speed phy in Full speed mode */
      USB_SetDevSpeed (USBx , USB_OTG_SPEED_HIGH_IN_FULL);
  f6:	78cb      	ldrb	r3, [r1, #3]
  f8:	2b01      	cmp	r3, #1
  fa:	d111      	bne.n	120 <USB_EPStartXfer+0x120>
  fc:	f8d0 3808 	ldr.w	r3, [r0, #2056]	; 0x808
    }
  }
  else
  {
    /* Set Full speed phy */
    USB_SetDevSpeed (USBx , USB_OTG_SPEED_FULL);
 100:	f413 7f80 	tst.w	r3, #256	; 0x100
 104:	780b      	ldrb	r3, [r1, #0]
 106:	f04f 0420 	mov.w	r4, #32
  }

  /* Flush the FIFOs */
  USB_FlushTxFifo(USBx , 0x10U); /* all Tx FIFOs */
 10a:	f44f 6510 	mov.w	r5, #2304	; 0x900
 10e:	fb14 5303 	smlabb	r3, r4, r3, r5
  USB_FlushRxFifo(USBx);
 112:	581c      	ldr	r4, [r3, r0]
 114:	bf0c      	ite	eq
  
  /* Clear all pending Device Interrupts */
  USBx_DEVICE->DIEPMSK = 0U;
 116:	f044 5400 	orreq.w	r4, r4, #536870912	; 0x20000000
  USBx_DEVICE->DOEPMSK = 0U;
  USBx_DEVICE->DAINT = 0xFFFFFFFFU;
 11a:	f044 5480 	orrne.w	r4, r4, #268435456	; 0x10000000
  /* Flush the FIFOs */
  USB_FlushTxFifo(USBx , 0x10U); /* all Tx FIFOs */
  USB_FlushRxFifo(USBx);
  
  /* Clear all pending Device Interrupts */
  USBx_DEVICE->DIEPMSK = 0U;
 11e:	501c      	str	r4, [r3, r0]
  USBx_DEVICE->DOEPMSK = 0U;
 120:	780c      	ldrb	r4, [r1, #0]
  
  for (i = 0U; i < cfg.dev_endpoints; i++)
  {
    if ((USBx_INEP(i)->DIEPCTL & USB_OTG_DIEPCTL_EPENA) == USB_OTG_DIEPCTL_EPENA)
    {
      USBx_INEP(i)->DIEPCTL = (USB_OTG_DIEPCTL_EPDIS | USB_OTG_DIEPCTL_SNAK);
 122:	f44f 6310 	mov.w	r3, #2304	; 0x900
  USB_FlushRxFifo(USBx);
  
  /* Clear all pending Device Interrupts */
  USBx_DEVICE->DIEPMSK = 0U;
  USBx_DEVICE->DOEPMSK = 0U;
  USBx_DEVICE->DAINT = 0xFFFFFFFFU;
 126:	eb03 1344 	add.w	r3, r3, r4, lsl #5
    {
      USBx_INEP(i)->DIEPCTL = 0U;
    }
    
    USBx_INEP(i)->DIEPTSIZ = 0U;
    USBx_INEP(i)->DIEPINT  = 0xFFU;
 12a:	58c4      	ldr	r4, [r0, r3]
  
  /* Clear all pending Device Interrupts */
  USBx_DEVICE->DIEPMSK = 0U;
  USBx_DEVICE->DOEPMSK = 0U;
  USBx_DEVICE->DAINT = 0xFFFFFFFFU;
  USBx_DEVICE->DAINTMSK = 0U;
 12c:	f044 4404 	orr.w	r4, r4, #2214592512	; 0x84000000
 130:	50c4      	str	r4, [r0, r3]
  
  for (i = 0U; i < cfg.dev_endpoints; i++)
 132:	78cb      	ldrb	r3, [r1, #3]
 134:	2b01      	cmp	r3, #1
  {
    if ((USBx_INEP(i)->DIEPCTL & USB_OTG_DIEPCTL_EPENA) == USB_OTG_DIEPCTL_EPENA)
 136:	d178      	bne.n	22a <USB_EPStartXfer+0x22a>
 138:	780c      	ldrb	r4, [r1, #0]
 13a:	8a8b      	ldrh	r3, [r1, #20]
 13c:	9200      	str	r2, [sp, #0]
    {
      USBx_INEP(i)->DIEPCTL = (USB_OTG_DIEPCTL_EPDIS | USB_OTG_DIEPCTL_SNAK);
 13e:	68c9      	ldr	r1, [r1, #12]
 140:	4622      	mov	r2, r4
    }
    else
    {
      USBx_INEP(i)->DIEPCTL = 0U;
 142:	f7ff fffe 	bl	0 <USB_EPStartXfer>
    }
    
    USBx_INEP(i)->DIEPTSIZ = 0U;
 146:	e070      	b.n	22a <USB_EPStartXfer+0x22a>
    USBx_INEP(i)->DIEPINT  = 0xFFU;
 148:	2420      	movs	r4, #32
 14a:	f44f 6630 	mov.w	r6, #2816	; 0xb00
 14e:	fb14 6303 	smlabb	r3, r4, r3, r6
  USBx_DEVICE->DIEPMSK = 0U;
  USBx_DEVICE->DOEPMSK = 0U;
  USBx_DEVICE->DAINT = 0xFFFFFFFFU;
  USBx_DEVICE->DAINTMSK = 0U;
  
  for (i = 0U; i < cfg.dev_endpoints; i++)
 152:	4403      	add	r3, r0
 154:	691d      	ldr	r5, [r3, #16]
 156:	0ced      	lsrs	r5, r5, #19
  
  for (i = 0U; i < cfg.dev_endpoints; i++)
  {
    if ((USBx_OUTEP(i)->DOEPCTL & USB_OTG_DOEPCTL_EPENA) == USB_OTG_DOEPCTL_EPENA)
    {
      USBx_OUTEP(i)->DOEPCTL = (USB_OTG_DOEPCTL_EPDIS | USB_OTG_DOEPCTL_SNAK);
 158:	04ed      	lsls	r5, r5, #19
 15a:	611d      	str	r5, [r3, #16]
    {
      USBx_OUTEP(i)->DOEPCTL = 0U;
    }
    
    USBx_OUTEP(i)->DOEPTSIZ = 0U;
    USBx_OUTEP(i)->DOEPINT  = 0xFFU;
 15c:	780b      	ldrb	r3, [r1, #0]
 15e:	fb14 6303 	smlabb	r3, r4, r3, r6
    
    USBx_INEP(i)->DIEPTSIZ = 0U;
    USBx_INEP(i)->DIEPINT  = 0xFFU;
  }
  
  for (i = 0U; i < cfg.dev_endpoints; i++)
 162:	4403      	add	r3, r0
  {
    if ((USBx_OUTEP(i)->DOEPCTL & USB_OTG_DOEPCTL_EPENA) == USB_OTG_DOEPCTL_EPENA)
 164:	691d      	ldr	r5, [r3, #16]
 166:	f025 55ff 	bic.w	r5, r5, #534773760	; 0x1fe00000
 16a:	f425 15c0 	bic.w	r5, r5, #1572864	; 0x180000
    {
      USBx_OUTEP(i)->DOEPCTL = (USB_OTG_DOEPCTL_EPDIS | USB_OTG_DOEPCTL_SNAK);
 16e:	611d      	str	r5, [r3, #16]
    }
    else
    {
      USBx_OUTEP(i)->DOEPCTL = 0U;
 170:	694f      	ldr	r7, [r1, #20]
    
    USBx_INEP(i)->DIEPTSIZ = 0U;
    USBx_INEP(i)->DIEPINT  = 0xFFU;
  }
  
  for (i = 0U; i < cfg.dev_endpoints; i++)
 172:	780b      	ldrb	r3, [r1, #0]
    else
    {
      USBx_OUTEP(i)->DOEPCTL = 0U;
    }
    
    USBx_OUTEP(i)->DOEPTSIZ = 0U;
 174:	688d      	ldr	r5, [r1, #8]
    USBx_OUTEP(i)->DOEPINT  = 0xFFU;
 176:	b987      	cbnz	r7, 19a <USB_EPStartXfer+0x19a>
 178:	fb14 6303 	smlabb	r3, r4, r3, r6
 17c:	4403      	add	r3, r0
  }
  
  USBx_DEVICE->DIEPMSK &= ~(USB_OTG_DIEPMSK_TXFURM);
 17e:	f3c5 0512 	ubfx	r5, r5, #0, #19
 182:	691f      	ldr	r7, [r3, #16]
 184:	433d      	orrs	r5, r7
 186:	611d      	str	r5, [r3, #16]
  
  if (cfg.dma_enable == 1U)
 188:	780b      	ldrb	r3, [r1, #0]
  {
    /*Set threshold parameters */
    USBx_DEVICE->DTHRCTL = (USB_OTG_DTHRCTL_TXTHRLEN_6 | USB_OTG_DTHRCTL_RXTHRLEN_6);
 18a:	fb14 6403 	smlabb	r4, r4, r3, r6
    USBx_DEVICE->DTHRCTL |= (USB_OTG_DTHRCTL_RXTHREN | USB_OTG_DTHRCTL_ISOTHREN | USB_OTG_DTHRCTL_NONISOTHREN);
 18e:	4404      	add	r4, r0
 190:	6923      	ldr	r3, [r4, #16]
 192:	f443 2300 	orr.w	r3, r3, #524288	; 0x80000
 196:	6123      	str	r3, [r4, #16]
 198:	e01c      	b.n	1d4 <USB_EPStartXfer+0x1d4>
    
    i= USBx_DEVICE->DTHRCTL;
 19a:	fb14 6303 	smlabb	r3, r4, r3, r6
  }
  
  /* Disable all interrupts. */
  USBx->GINTMSK = 0U;
 19e:	4403      	add	r3, r0
  
  /* Clear any pending interrupts */
  USBx->GINTSTS = 0xBFFFFFFFU;
 1a0:	442f      	add	r7, r5
 1a2:	f8df e08c 	ldr.w	lr, [pc, #140]	; 230 <USB_EPStartXfer+0x230>

  /* Enable the common interrupts */
  if (cfg.dma_enable == DISABLE)
 1a6:	3f01      	subs	r7, #1
  {
    USBx->GINTMSK |= USB_OTG_GINTMSK_RXFLVLM; 
 1a8:	fbb7 f5f5 	udiv	r5, r7, r5
 1ac:	691f      	ldr	r7, [r3, #16]
 1ae:	ea4f 4cc5 	mov.w	ip, r5, lsl #19
  }
  
  /* Enable interrupts matching to the Device mode ONLY */
  USBx->GINTMSK |= (USB_OTG_GINTMSK_USBSUSPM | USB_OTG_GINTMSK_USBRST |\
 1b2:	ea0c 0e0e 	and.w	lr, ip, lr
 1b6:	ea4e 0707 	orr.w	r7, lr, r7
                    USB_OTG_GINTMSK_ENUMDNEM | USB_OTG_GINTMSK_IEPINT |\
                    USB_OTG_GINTMSK_OEPINT   | USB_OTG_GINTMSK_IISOIXFRM|\
                    USB_OTG_GINTMSK_PXFRM_IISOOXFRM | USB_OTG_GINTMSK_WUIM);
  
  if(cfg.Sof_enable)
 1ba:	611f      	str	r7, [r3, #16]
  {
    USBx->GINTMSK |= USB_OTG_GINTMSK_SOFM;
 1bc:	780b      	ldrb	r3, [r1, #0]
 1be:	fb14 6403 	smlabb	r4, r4, r3, r6
 1c2:	4404      	add	r4, r0
  }

  if (cfg.vbus_sensing_enable == ENABLE)
 1c4:	688b      	ldr	r3, [r1, #8]
  {
    USBx->GINTMSK |= (USB_OTG_GINTMSK_SRQIM | USB_OTG_GINTMSK_OTGINT); 
 1c6:	6926      	ldr	r6, [r4, #16]
 1c8:	b2ad      	uxth	r5, r5
 1ca:	436b      	muls	r3, r5
 1cc:	f3c3 0312 	ubfx	r3, r3, #0, #19
 1d0:	4333      	orrs	r3, r6
 1d2:	6123      	str	r3, [r4, #16]
  }
  
  return HAL_OK;
}
 1d4:	2a01      	cmp	r2, #1
 1d6:	bf01      	itttt	eq
 1d8:	780b      	ldrbeq	r3, [r1, #0]
 1da:	68ca      	ldreq	r2, [r1, #12]
 1dc:	eb00 1343 	addeq.w	r3, r0, r3, lsl #5
 1e0:	f8c3 2b14 	streq.w	r2, [r3, #2836]	; 0xb14
 1e4:	78cb      	ldrb	r3, [r1, #3]
 1e6:	2b01      	cmp	r3, #1
  */
HAL_StatusTypeDef USB_FlushTxFifo (USB_OTG_GlobalTypeDef *USBx, uint32_t num )
{
  uint32_t count = 0U;
 
  USBx->GRSTCTL = ( USB_OTG_GRSTCTL_TXFFLSH |(uint32_t)( num << 6)); 
 1e8:	d111      	bne.n	20e <USB_EPStartXfer+0x20e>
 1ea:	f8d0 3808 	ldr.w	r3, [r0, #2056]	; 0x808
 1ee:	f413 7f80 	tst.w	r3, #256	; 0x100
 
  do
  {
    if (++count > 200000U)
 1f2:	780b      	ldrb	r3, [r1, #0]
 1f4:	f04f 0220 	mov.w	r2, #32
    {
      return HAL_TIMEOUT;
    }
  }
  while ((USBx->GRSTCTL & USB_OTG_GRSTCTL_TXFFLSH) == USB_OTG_GRSTCTL_TXFFLSH);
 1f8:	f44f 6430 	mov.w	r4, #2816	; 0xb00
 1fc:	fb12 4303 	smlabb	r3, r2, r3, r4
  
  return HAL_OK;
 200:	58c2      	ldr	r2, [r0, r3]
 
  do
  {
    if (++count > 200000U)
    {
      return HAL_TIMEOUT;
 202:	bf0c      	ite	eq
    }
  }
  while ((USBx->GRSTCTL & USB_OTG_GRSTCTL_TXFFLSH) == USB_OTG_GRSTCTL_TXFFLSH);
  
  return HAL_OK;
}
 204:	f042 5200 	orreq.w	r2, r2, #536870912	; 0x20000000
 208:	f042 5280 	orrne.w	r2, r2, #268435456	; 0x10000000
  */
HAL_StatusTypeDef USB_FlushRxFifo(USB_OTG_GlobalTypeDef *USBx)
{
  uint32_t count = 0U;
  
  USBx->GRSTCTL = USB_OTG_GRSTCTL_RXFFLSH;
 20c:	50c2      	str	r2, [r0, r3]
 20e:	780a      	ldrb	r2, [r1, #0]
 210:	f44f 6330 	mov.w	r3, #2816	; 0xb00
  
  do
  {
    if (++count > 200000U)
 214:	eb03 1342 	add.w	r3, r3, r2, lsl #5
    {
      return HAL_TIMEOUT;
    }
  }
  while ((USBx->GRSTCTL & USB_OTG_GRSTCTL_RXFFLSH) == USB_OTG_GRSTCTL_RXFFLSH);
 218:	58c2      	ldr	r2, [r0, r3]
 21a:	f042 4204 	orr.w	r2, r2, #2214592512	; 0x84000000
  
  return HAL_OK;
 21e:	50c2      	str	r2, [r0, r3]
 220:	e003      	b.n	22a <USB_EPStartXfer+0x22a>
  
  do
  {
    if (++count > 200000U)
    {
      return HAL_TIMEOUT;
 222:	2a01      	cmp	r2, #1
    }
  }
  while ((USBx->GRSTCTL & USB_OTG_GRSTCTL_RXFFLSH) == USB_OTG_GRSTCTL_RXFFLSH);
  
  return HAL_OK;
}
 224:	f47f af5d 	bne.w	e2 <USB_EPStartXfer+0xe2>
 228:	e751      	b.n	ce <USB_EPStartXfer+0xce>
 22a:	2000      	movs	r0, #0
  *            @arg USB_OTG_SPEED_LOW: Low speed mode
  * @retval  Hal status
  */
HAL_StatusTypeDef USB_SetDevSpeed(USB_OTG_GlobalTypeDef *USBx , uint8_t speed)
{
  USBx_DEVICE->DCFG |= speed;
 22c:	b003      	add	sp, #12
 22e:	bdf0      	pop	{r4, r5, r6, r7, pc}
 230:	1ff80000 	.word	0x1ff80000

Disassembly of section .text.USB_EP0StartXfer:

00000000 <USB_EP0StartXfer>:
   0:	784b      	ldrb	r3, [r1, #1]
   2:	2b01      	cmp	r3, #1
  * @param  cfg : pointer to a USB_OTG_CfgTypeDef structure that contains
  *         the configuration information for the specified USBx peripheral.
  * @retval HAL status
  */
HAL_StatusTypeDef USB_CoreInit(USB_OTG_GlobalTypeDef *USBx, USB_OTG_CfgTypeDef cfg)
{
   4:	b570      	push	{r4, r5, r6, lr}
   6:	780b      	ldrb	r3, [r1, #0]
   8:	d163      	bne.n	d2 <USB_EP0StartXfer+0xd2>
   a:	2420      	movs	r4, #32
   c:	f44f 6510 	mov.w	r5, #2304	; 0x900
  if (cfg.phy_itface == USB_OTG_ULPI_PHY)
  10:	694e      	ldr	r6, [r1, #20]
  * @param  cfg : pointer to a USB_OTG_CfgTypeDef structure that contains
  *         the configuration information for the specified USBx peripheral.
  * @retval HAL status
  */
HAL_StatusTypeDef USB_CoreInit(USB_OTG_GlobalTypeDef *USBx, USB_OTG_CfgTypeDef cfg)
{
  12:	fb14 5303 	smlabb	r3, r4, r3, r5
  if (cfg.phy_itface == USB_OTG_ULPI_PHY)
  {
    
    USBx->GCCFG &= ~(USB_OTG_GCCFG_PWRDWN);
  16:	4403      	add	r3, r0
  18:	b9b6      	cbnz	r6, 48 <USB_EP0StartXfer+0x48>
  1a:	691e      	ldr	r6, [r3, #16]
  1c:	f026 56ff 	bic.w	r6, r6, #534773760	; 0x1fe00000

    /* Init The ULPI Interface */
    USBx->GUSBCFG &= ~(USB_OTG_GUSBCFG_TSDPS | USB_OTG_GUSBCFG_ULPIFSLS | USB_OTG_GUSBCFG_PHYSEL);
  20:	f426 16c0 	bic.w	r6, r6, #1572864	; 0x180000
  24:	611e      	str	r6, [r3, #16]
  26:	780b      	ldrb	r3, [r1, #0]
  28:	fb14 5303 	smlabb	r3, r4, r3, r5
   
    /* Select vbus source */
    USBx->GUSBCFG &= ~(USB_OTG_GUSBCFG_ULPIEVBUSD | USB_OTG_GUSBCFG_ULPIEVBUSI);
  2c:	4403      	add	r3, r0
  2e:	691e      	ldr	r6, [r3, #16]
  30:	f446 2600 	orr.w	r6, r6, #524288	; 0x80000
    if(cfg.use_external_vbus == 1U)
  34:	611e      	str	r6, [r3, #16]
    {
      USBx->GUSBCFG |= USB_OTG_GUSBCFG_ULPIEVBUSD;
  36:	780b      	ldrb	r3, [r1, #0]
  38:	fb14 5403 	smlabb	r4, r4, r3, r5
  3c:	4404      	add	r4, r0
  3e:	6923      	ldr	r3, [r4, #16]
    }
    /* Reset after a PHY select  */
    USB_CoreReset(USBx); 
  40:	0cdb      	lsrs	r3, r3, #19
  42:	04db      	lsls	r3, r3, #19
  44:	6123      	str	r3, [r4, #16]
  }
  else /* FS interface (embedded Phy) */
  {
    /* Select FS Embedded PHY */
    USBx->GUSBCFG |= USB_OTG_GUSBCFG_PHYSEL;
  46:	e027      	b.n	98 <USB_EP0StartXfer+0x98>
  48:	691e      	ldr	r6, [r3, #16]
  4a:	0cf6      	lsrs	r6, r6, #19
  4c:	04f6      	lsls	r6, r6, #19
    
    /* Reset after a PHY select and set Host mode */
    USB_CoreReset(USBx);
  4e:	611e      	str	r6, [r3, #16]
  50:	780b      	ldrb	r3, [r1, #0]
    
    /* Deactivate the power down*/
    USBx->GCCFG = USB_OTG_GCCFG_PWRDWN;
  52:	fb14 5403 	smlabb	r4, r4, r3, r5
  56:	4404      	add	r4, r0
  }
 
  if(cfg.dma_enable == ENABLE)
  58:	6923      	ldr	r3, [r4, #16]
  5a:	f023 53ff 	bic.w	r3, r3, #534773760	; 0x1fe00000
  {
    USBx->GAHBCFG |= USB_OTG_GAHBCFG_DMAEN;
  5e:	f423 13c0 	bic.w	r3, r3, #1572864	; 0x180000
  62:	6123      	str	r3, [r4, #16]
  64:	688b      	ldr	r3, [r1, #8]
  }  

  return HAL_OK;
}
  66:	694c      	ldr	r4, [r1, #20]
  68:	780d      	ldrb	r5, [r1, #0]
  6a:	429c      	cmp	r4, r3
  6c:	bf88      	it	hi
  6e:	614b      	strhi	r3, [r1, #20]
  * @param  USBx : Selected device
  * @retval HAL status
  */
HAL_StatusTypeDef USB_EnableGlobalInt(USB_OTG_GlobalTypeDef *USBx)
{
  USBx->GAHBCFG |= USB_OTG_GAHBCFG_GINT;
  70:	2420      	movs	r4, #32
  72:	f44f 6310 	mov.w	r3, #2304	; 0x900
  76:	fb14 3505 	smlabb	r5, r4, r5, r3
  return HAL_OK;
}
  7a:	4405      	add	r5, r0
  * @param  USBx : Selected device
  * @retval HAL status
*/
HAL_StatusTypeDef USB_DisableGlobalInt(USB_OTG_GlobalTypeDef *USBx)
{
  USBx->GAHBCFG &= ~USB_OTG_GAHBCFG_GINT;
  7c:	692e      	ldr	r6, [r5, #16]
  7e:	f446 2600 	orr.w	r6, r6, #524288	; 0x80000
  82:	612e      	str	r6, [r5, #16]
  return HAL_OK;
}
  84:	780d      	ldrb	r5, [r1, #0]
  86:	fb14 3305 	smlabb	r3, r4, r5, r3
  *            @arg USB_OTG_DRD_MODE: Dual Role Device mode  
  * @retval HAL status
  */
HAL_StatusTypeDef USB_SetCurrentMode(USB_OTG_GlobalTypeDef *USBx , USB_OTG_ModeTypeDef mode)
{
  USBx->GUSBCFG &= ~(USB_OTG_GUSBCFG_FHMOD | USB_OTG_GUSBCFG_FDMOD); 
  8a:	4403      	add	r3, r0
  
  if ( mode == USB_OTG_HOST_MODE)
  8c:	694c      	ldr	r4, [r1, #20]
  *            @arg USB_OTG_DRD_MODE: Dual Role Device mode  
  * @retval HAL status
  */
HAL_StatusTypeDef USB_SetCurrentMode(USB_OTG_GlobalTypeDef *USBx , USB_OTG_ModeTypeDef mode)
{
  USBx->GUSBCFG &= ~(USB_OTG_GUSBCFG_FHMOD | USB_OTG_GUSBCFG_FDMOD); 
  8e:	691d      	ldr	r5, [r3, #16]
  90:	f3c4 0412 	ubfx	r4, r4, #0, #19
  
  if ( mode == USB_OTG_HOST_MODE)
  94:	432c      	orrs	r4, r5
  {
    USBx->GUSBCFG |= USB_OTG_GUSBCFG_FHMOD; 
  96:	611c      	str	r4, [r3, #16]
  98:	2a01      	cmp	r2, #1
  9a:	780b      	ldrb	r3, [r1, #0]
  9c:	d105      	bne.n	aa <USB_EP0StartXfer+0xaa>
  9e:	eb00 1343 	add.w	r3, r0, r3, lsl #5
  }
  else if ( mode == USB_OTG_DEVICE_MODE)
  {
    USBx->GUSBCFG |= USB_OTG_GUSBCFG_FDMOD; 
  a2:	690a      	ldr	r2, [r1, #16]
  a4:	f8c3 2914 	str.w	r2, [r3, #2324]	; 0x914
  a8:	e009      	b.n	be <USB_EP0StartXfer+0xbe>
  }
  HAL_Delay(50U);
  aa:	694a      	ldr	r2, [r1, #20]
  ac:	b13a      	cbz	r2, be <USB_EP0StartXfer+0xbe>
  ae:	f8d0 2834 	ldr.w	r2, [r0, #2100]	; 0x834
  
  return HAL_OK;
}
  b2:	2401      	movs	r4, #1
  * @param  cfg  : pointer to a USB_OTG_CfgTypeDef structure that contains
  *         the configuration information for the specified USBx peripheral.
  * @retval HAL status
  */
HAL_StatusTypeDef USB_DevInit (USB_OTG_GlobalTypeDef *USBx, USB_OTG_CfgTypeDef cfg)
{
  b4:	fa04 f303 	lsl.w	r3, r4, r3
  b8:	4313      	orrs	r3, r2
  ba:	f8c0 3834 	str.w	r3, [r0, #2100]	; 0x834
  be:	780a      	ldrb	r2, [r1, #0]
  c0:	f44f 6310 	mov.w	r3, #2304	; 0x900
    /* B-peripheral session valid override enable*/ 
    USBx->GOTGCTL |= USB_OTG_GOTGCTL_BVALOEN;
    USBx->GOTGCTL |= USB_OTG_GOTGCTL_BVALOVAL;
  }
#else
  USBx->GCCFG |= USB_OTG_GCCFG_VBUSBSEN;
  c4:	eb03 1342 	add.w	r3, r3, r2, lsl #5
  c8:	58c2      	ldr	r2, [r0, r3]
  ca:	f042 4204 	orr.w	r2, r2, #2214592512	; 0x84000000
  ce:	50c2      	str	r2, [r0, r3]
  
  if (cfg.vbus_sensing_enable == 0U)
  d0:	e03e      	b.n	150 <USB_EP0StartXfer+0x150>
  {
    USBx->GCCFG |= USB_OTG_GCCFG_NOVBUSSENS;
  d2:	2420      	movs	r4, #32
  d4:	f44f 6630 	mov.w	r6, #2816	; 0xb00
  d8:	fb14 6303 	smlabb	r3, r4, r3, r6
  }
#endif /* STM32F446xx || STM32F469xx || STM32F479xx || STM32F412Zx || STM32F412Rx || STM32F412Vx || STM32F412Cx */

  /* Restart the Phy Clock */
  USBx_PCGCCTL = 0U;
  dc:	4403      	add	r3, r0
  de:	691d      	ldr	r5, [r3, #16]

  /* Device mode configuration */
  USBx_DEVICE->DCFG |= DCFG_FRAME_INTERVAL_80;
  e0:	0ced      	lsrs	r5, r5, #19
  e2:	04ed      	lsls	r5, r5, #19
  e4:	611d      	str	r5, [r3, #16]
  e6:	780b      	ldrb	r3, [r1, #0]
  
  if(cfg.phy_itface  == USB_OTG_ULPI_PHY)
  e8:	fb14 6303 	smlabb	r3, r4, r3, r6

  /* Restart the Phy Clock */
  USBx_PCGCCTL = 0U;

  /* Device mode configuration */
  USBx_DEVICE->DCFG |= DCFG_FRAME_INTERVAL_80;
  ec:	4403      	add	r3, r0
  ee:	691d      	ldr	r5, [r3, #16]
  
  if(cfg.phy_itface  == USB_OTG_ULPI_PHY)
  f0:	f025 55ff 	bic.w	r5, r5, #534773760	; 0x1fe00000
  {
    if(cfg.speed == USB_OTG_SPEED_HIGH)
  f4:	f425 15c0 	bic.w	r5, r5, #1572864	; 0x180000
      USB_SetDevSpeed (USBx , USB_OTG_SPEED_HIGH);
    }
    else 
    {
      /* set High speed phy in Full speed mode */
      USB_SetDevSpeed (USBx , USB_OTG_SPEED_HIGH_IN_FULL);
  f8:	611d      	str	r5, [r3, #16]
  fa:	694b      	ldr	r3, [r1, #20]
  fc:	b10b      	cbz	r3, 102 <USB_EP0StartXfer+0x102>
  fe:	688b      	ldr	r3, [r1, #8]
    }
  }
  else
  {
    /* Set Full speed phy */
    USB_SetDevSpeed (USBx , USB_OTG_SPEED_FULL);
 100:	614b      	str	r3, [r1, #20]
 102:	780b      	ldrb	r3, [r1, #0]
 104:	f44f 6530 	mov.w	r5, #2816	; 0xb00
  }

  /* Flush the FIFOs */
  USB_FlushTxFifo(USBx , 0x10U); /* all Tx FIFOs */
 108:	fb14 5303 	smlabb	r3, r4, r3, r5
 10c:	4403      	add	r3, r0
 10e:	2a01      	cmp	r2, #1
  USB_FlushRxFifo(USBx);
 110:	691e      	ldr	r6, [r3, #16]
 112:	f446 2600 	orr.w	r6, r6, #524288	; 0x80000
  
  /* Clear all pending Device Interrupts */
  USBx_DEVICE->DIEPMSK = 0U;
 116:	611e      	str	r6, [r3, #16]
  USBx_DEVICE->DOEPMSK = 0U;
  USBx_DEVICE->DAINT = 0xFFFFFFFFU;
 118:	780b      	ldrb	r3, [r1, #0]
 11a:	fb14 5403 	smlabb	r4, r4, r3, r5
  /* Flush the FIFOs */
  USB_FlushTxFifo(USBx , 0x10U); /* all Tx FIFOs */
  USB_FlushRxFifo(USBx);
  
  /* Clear all pending Device Interrupts */
  USBx_DEVICE->DIEPMSK = 0U;
 11e:	4404      	add	r4, r0
  USBx_DEVICE->DOEPMSK = 0U;
 120:	688b      	ldr	r3, [r1, #8]
  
  for (i = 0U; i < cfg.dev_endpoints; i++)
  {
    if ((USBx_INEP(i)->DIEPCTL & USB_OTG_DIEPCTL_EPENA) == USB_OTG_DIEPCTL_EPENA)
    {
      USBx_INEP(i)->DIEPCTL = (USB_OTG_DIEPCTL_EPDIS | USB_OTG_DIEPCTL_SNAK);
 122:	6926      	ldr	r6, [r4, #16]
 124:	f3c3 0312 	ubfx	r3, r3, #0, #19
    {
      USBx_INEP(i)->DIEPCTL = 0U;
    }
    
    USBx_INEP(i)->DIEPTSIZ = 0U;
    USBx_INEP(i)->DIEPINT  = 0xFFU;
 128:	ea43 0306 	orr.w	r3, r3, r6
  
  /* Clear all pending Device Interrupts */
  USBx_DEVICE->DIEPMSK = 0U;
  USBx_DEVICE->DOEPMSK = 0U;
  USBx_DEVICE->DAINT = 0xFFFFFFFFU;
  USBx_DEVICE->DAINTMSK = 0U;
 12c:	6123      	str	r3, [r4, #16]
 12e:	d106      	bne.n	13e <USB_EP0StartXfer+0x13e>
 130:	780b      	ldrb	r3, [r1, #0]
  
  for (i = 0U; i < cfg.dev_endpoints; i++)
 132:	2220      	movs	r2, #32
 134:	fb12 5303 	smlabb	r3, r2, r3, r5
  {
    if ((USBx_INEP(i)->DIEPCTL & USB_OTG_DIEPCTL_EPENA) == USB_OTG_DIEPCTL_EPENA)
 138:	4403      	add	r3, r0
 13a:	68ca      	ldr	r2, [r1, #12]
 13c:	615a      	str	r2, [r3, #20]
    {
      USBx_INEP(i)->DIEPCTL = (USB_OTG_DIEPCTL_EPDIS | USB_OTG_DIEPCTL_SNAK);
 13e:	780a      	ldrb	r2, [r1, #0]
 140:	f44f 6330 	mov.w	r3, #2816	; 0xb00
  USBx_DEVICE->DIEPMSK = 0U;
  USBx_DEVICE->DOEPMSK = 0U;
  USBx_DEVICE->DAINT = 0xFFFFFFFFU;
  USBx_DEVICE->DAINTMSK = 0U;
  
  for (i = 0U; i < cfg.dev_endpoints; i++)
 144:	eb03 1342 	add.w	r3, r3, r2, lsl #5
    {
      USBx_INEP(i)->DIEPCTL = 0U;
    }
    
    USBx_INEP(i)->DIEPTSIZ = 0U;
    USBx_INEP(i)->DIEPINT  = 0xFFU;
 148:	58c2      	ldr	r2, [r0, r3]
 14a:	f042 4204 	orr.w	r2, r2, #2214592512	; 0x84000000
 14e:	50c2      	str	r2, [r0, r3]
  USBx_DEVICE->DIEPMSK = 0U;
  USBx_DEVICE->DOEPMSK = 0U;
  USBx_DEVICE->DAINT = 0xFFFFFFFFU;
  USBx_DEVICE->DAINTMSK = 0U;
  
  for (i = 0U; i < cfg.dev_endpoints; i++)
 150:	2000      	movs	r0, #0
 152:	bd70      	pop	{r4, r5, r6, pc}

Disassembly of section .text.USB_WritePacket:

00000000 <USB_WritePacket>:
   0:	b510      	push	{r4, lr}
   2:	f89d 4008 	ldrb.w	r4, [sp, #8]
  * @param  cfg : pointer to a USB_OTG_CfgTypeDef structure that contains
  *         the configuration information for the specified USBx peripheral.
  * @retval HAL status
  */
HAL_StatusTypeDef USB_CoreInit(USB_OTG_GlobalTypeDef *USBx, USB_OTG_CfgTypeDef cfg)
{
   6:	b96c      	cbnz	r4, 24 <USB_WritePacket+0x24>
   8:	3303      	adds	r3, #3
   a:	f500 5080 	add.w	r0, r0, #4096	; 0x1000
  if (cfg.phy_itface == USB_OTG_ULPI_PHY)
   e:	f023 0303 	bic.w	r3, r3, #3
  * @param  cfg : pointer to a USB_OTG_CfgTypeDef structure that contains
  *         the configuration information for the specified USBx peripheral.
  * @retval HAL status
  */
HAL_StatusTypeDef USB_CoreInit(USB_OTG_GlobalTypeDef *USBx, USB_OTG_CfgTypeDef cfg)
{
  12:	eb00 3202 	add.w	r2, r0, r2, lsl #12
  if (cfg.phy_itface == USB_OTG_ULPI_PHY)
  {
    
    USBx->GCCFG &= ~(USB_OTG_GCCFG_PWRDWN);
  16:	440b      	add	r3, r1
  18:	4299      	cmp	r1, r3
  1a:	d003      	beq.n	24 <USB_WritePacket+0x24>
  1c:	f851 0b04 	ldr.w	r0, [r1], #4

    /* Init The ULPI Interface */
    USBx->GUSBCFG &= ~(USB_OTG_GUSBCFG_TSDPS | USB_OTG_GUSBCFG_ULPIFSLS | USB_OTG_GUSBCFG_PHYSEL);
  20:	6010      	str	r0, [r2, #0]
  22:	e7f9      	b.n	18 <USB_WritePacket+0x18>
  24:	2000      	movs	r0, #0
  26:	bd10      	pop	{r4, pc}

Disassembly of section .text.USB_ReadPacket:

00000000 <USB_ReadPacket>:
   0:	3203      	adds	r2, #3
   2:	f022 0203 	bic.w	r2, r2, #3
  * @param  cfg : pointer to a USB_OTG_CfgTypeDef structure that contains
  *         the configuration information for the specified USBx peripheral.
  * @retval HAL status
  */
HAL_StatusTypeDef USB_CoreInit(USB_OTG_GlobalTypeDef *USBx, USB_OTG_CfgTypeDef cfg)
{
   6:	440a      	add	r2, r1
   8:	f500 5080 	add.w	r0, r0, #4096	; 0x1000
   c:	4291      	cmp	r1, r2
  if (cfg.phy_itface == USB_OTG_ULPI_PHY)
   e:	d003      	beq.n	18 <USB_ReadPacket+0x18>
  10:	6803      	ldr	r3, [r0, #0]
  * @param  cfg : pointer to a USB_OTG_CfgTypeDef structure that contains
  *         the configuration information for the specified USBx peripheral.
  * @retval HAL status
  */
HAL_StatusTypeDef USB_CoreInit(USB_OTG_GlobalTypeDef *USBx, USB_OTG_CfgTypeDef cfg)
{
  12:	f841 3b04 	str.w	r3, [r1], #4
  if (cfg.phy_itface == USB_OTG_ULPI_PHY)
  {
    
    USBx->GCCFG &= ~(USB_OTG_GCCFG_PWRDWN);
  16:	e7f9      	b.n	c <USB_ReadPacket+0xc>
  18:	4608      	mov	r0, r1
  1a:	4770      	bx	lr

Disassembly of section .text.USB_EPSetStall:

00000000 <USB_EPSetStall>:
   0:	784b      	ldrb	r3, [r1, #1]
   2:	2b01      	cmp	r3, #1
  * @param  cfg : pointer to a USB_OTG_CfgTypeDef structure that contains
  *         the configuration information for the specified USBx peripheral.
  * @retval HAL status
  */
HAL_StatusTypeDef USB_CoreInit(USB_OTG_GlobalTypeDef *USBx, USB_OTG_CfgTypeDef cfg)
{
   4:	b510      	push	{r4, lr}
   6:	f04f 0220 	mov.w	r2, #32
   a:	780c      	ldrb	r4, [r1, #0]
   c:	d114      	bne.n	38 <USB_EPSetStall+0x38>
  if (cfg.phy_itface == USB_OTG_ULPI_PHY)
   e:	f44f 6310 	mov.w	r3, #2304	; 0x900
  * @param  cfg : pointer to a USB_OTG_CfgTypeDef structure that contains
  *         the configuration information for the specified USBx peripheral.
  * @retval HAL status
  */
HAL_StatusTypeDef USB_CoreInit(USB_OTG_GlobalTypeDef *USBx, USB_OTG_CfgTypeDef cfg)
{
  12:	fb12 3304 	smlabb	r3, r2, r4, r3
  if (cfg.phy_itface == USB_OTG_ULPI_PHY)
  {
    
    USBx->GCCFG &= ~(USB_OTG_GCCFG_PWRDWN);
  16:	58c2      	ldr	r2, [r0, r3]
  18:	2a00      	cmp	r2, #0
  1a:	bfa2      	ittt	ge
  1c:	58c2      	ldrge	r2, [r0, r3]

    /* Init The ULPI Interface */
    USBx->GUSBCFG &= ~(USB_OTG_GUSBCFG_TSDPS | USB_OTG_GUSBCFG_ULPIFSLS | USB_OTG_GUSBCFG_PHYSEL);
  1e:	f022 4280 	bicge.w	r2, r2, #1073741824	; 0x40000000
  22:	50c2      	strge	r2, [r0, r3]
  24:	780a      	ldrb	r2, [r1, #0]
  26:	f44f 6310 	mov.w	r3, #2304	; 0x900
   
    /* Select vbus source */
    USBx->GUSBCFG &= ~(USB_OTG_GUSBCFG_ULPIEVBUSD | USB_OTG_GUSBCFG_ULPIEVBUSI);
  2a:	eb03 1342 	add.w	r3, r3, r2, lsl #5
  2e:	58c2      	ldr	r2, [r0, r3]
  30:	f442 1200 	orr.w	r2, r2, #2097152	; 0x200000
    if(cfg.use_external_vbus == 1U)
  34:	50c2      	str	r2, [r0, r3]
    {
      USBx->GUSBCFG |= USB_OTG_GUSBCFG_ULPIEVBUSD;
  36:	e013      	b.n	60 <USB_EPSetStall+0x60>
  38:	f44f 6330 	mov.w	r3, #2816	; 0xb00
  3c:	fb12 3304 	smlabb	r3, r2, r4, r3
    }
    /* Reset after a PHY select  */
    USB_CoreReset(USBx); 
  40:	58c2      	ldr	r2, [r0, r3]
  42:	2a00      	cmp	r2, #0
  44:	bfa2      	ittt	ge
  }
  else /* FS interface (embedded Phy) */
  {
    /* Select FS Embedded PHY */
    USBx->GUSBCFG |= USB_OTG_GUSBCFG_PHYSEL;
  46:	58c2      	ldrge	r2, [r0, r3]
  48:	f022 4280 	bicge.w	r2, r2, #1073741824	; 0x40000000
  4c:	50c2      	strge	r2, [r0, r3]
    
    /* Reset after a PHY select and set Host mode */
    USB_CoreReset(USBx);
  4e:	780a      	ldrb	r2, [r1, #0]
  50:	f44f 6330 	mov.w	r3, #2816	; 0xb00
    
    /* Deactivate the power down*/
    USBx->GCCFG = USB_OTG_GCCFG_PWRDWN;
  54:	eb03 1342 	add.w	r3, r3, r2, lsl #5
  }
 
  if(cfg.dma_enable == ENABLE)
  58:	58c2      	ldr	r2, [r0, r3]
  5a:	f442 1200 	orr.w	r2, r2, #2097152	; 0x200000
  {
    USBx->GAHBCFG |= USB_OTG_GAHBCFG_DMAEN;
  5e:	50c2      	str	r2, [r0, r3]
  60:	2000      	movs	r0, #0
  62:	bd10      	pop	{r4, pc}

Disassembly of section .text.USB_EPClearStall:

00000000 <USB_EPClearStall>:
   0:	784b      	ldrb	r3, [r1, #1]
   2:	b530      	push	{r4, r5, lr}
  * @param  cfg : pointer to a USB_OTG_CfgTypeDef structure that contains
  *         the configuration information for the specified USBx peripheral.
  * @retval HAL status
  */
HAL_StatusTypeDef USB_CoreInit(USB_OTG_GlobalTypeDef *USBx, USB_OTG_CfgTypeDef cfg)
{
   4:	2b01      	cmp	r3, #1
   6:	780b      	ldrb	r3, [r1, #0]
   8:	bf0c      	ite	eq
   a:	f44f 6510 	moveq.w	r5, #2304	; 0x900
  if (cfg.phy_itface == USB_OTG_ULPI_PHY)
   e:	f44f 6530 	movne.w	r5, #2816	; 0xb00
  * @param  cfg : pointer to a USB_OTG_CfgTypeDef structure that contains
  *         the configuration information for the specified USBx peripheral.
  * @retval HAL status
  */
HAL_StatusTypeDef USB_CoreInit(USB_OTG_GlobalTypeDef *USBx, USB_OTG_CfgTypeDef cfg)
{
  12:	2220      	movs	r2, #32
  if (cfg.phy_itface == USB_OTG_ULPI_PHY)
  14:	fb12 5303 	smlabb	r3, r2, r3, r5
  {
    
    USBx->GCCFG &= ~(USB_OTG_GCCFG_PWRDWN);
  18:	581c      	ldr	r4, [r3, r0]
  1a:	f424 1400 	bic.w	r4, r4, #2097152	; 0x200000

    /* Init The ULPI Interface */
    USBx->GUSBCFG &= ~(USB_OTG_GUSBCFG_TSDPS | USB_OTG_GUSBCFG_ULPIFSLS | USB_OTG_GUSBCFG_PHYSEL);
  1e:	501c      	str	r4, [r3, r0]
  20:	78cb      	ldrb	r3, [r1, #3]
  22:	3b02      	subs	r3, #2
  24:	2b01      	cmp	r3, #1
  26:	d806      	bhi.n	36 <USB_EPClearStall+0x36>
  28:	780b      	ldrb	r3, [r1, #0]
   
    /* Select vbus source */
    USBx->GUSBCFG &= ~(USB_OTG_GUSBCFG_ULPIEVBUSD | USB_OTG_GUSBCFG_ULPIEVBUSI);
  2a:	fb12 5203 	smlabb	r2, r2, r3, r5
  2e:	5813      	ldr	r3, [r2, r0]
  30:	f043 5380 	orr.w	r3, r3, #268435456	; 0x10000000
    if(cfg.use_external_vbus == 1U)
  34:	5013      	str	r3, [r2, r0]
    {
      USBx->GUSBCFG |= USB_OTG_GUSBCFG_ULPIEVBUSD;
  36:	2000      	movs	r0, #0
  38:	bd30      	pop	{r4, r5, pc}

Disassembly of section .text.USB_StopDevice:

00000000 <USB_StopDevice>:
   0:	b538      	push	{r3, r4, r5, lr}
   2:	f500 612e 	add.w	r1, r0, #2784	; 0xae0
  * @param  cfg : pointer to a USB_OTG_CfgTypeDef structure that contains
  *         the configuration information for the specified USBx peripheral.
  * @retval HAL status
  */
HAL_StatusTypeDef USB_CoreInit(USB_OTG_GlobalTypeDef *USBx, USB_OTG_CfgTypeDef cfg)
{
   6:	4604      	mov	r4, r0
   8:	f500 6310 	add.w	r3, r0, #2304	; 0x900
   c:	22ff      	movs	r2, #255	; 0xff
  if (cfg.phy_itface == USB_OTG_ULPI_PHY)
   e:	609a      	str	r2, [r3, #8]
  10:	f8c3 2208 	str.w	r2, [r3, #520]	; 0x208
  14:	3320      	adds	r3, #32
  {
    
    USBx->GCCFG &= ~(USB_OTG_GCCFG_PWRDWN);
  16:	428b      	cmp	r3, r1
  18:	d1f9      	bne.n	e <USB_StopDevice+0xe>
  1a:	2500      	movs	r5, #0
  1c:	f04f 32ff 	mov.w	r2, #4294967295

    /* Init The ULPI Interface */
    USBx->GUSBCFG &= ~(USB_OTG_GUSBCFG_TSDPS | USB_OTG_GUSBCFG_ULPIFSLS | USB_OTG_GUSBCFG_PHYSEL);
  20:	f8c4 2818 	str.w	r2, [r4, #2072]	; 0x818
  24:	4620      	mov	r0, r4
  26:	f8c4 5810 	str.w	r5, [r4, #2064]	; 0x810
   
    /* Select vbus source */
    USBx->GUSBCFG &= ~(USB_OTG_GUSBCFG_ULPIEVBUSD | USB_OTG_GUSBCFG_ULPIEVBUSI);
  2a:	f8c4 5814 	str.w	r5, [r4, #2068]	; 0x814
  2e:	f8c4 581c 	str.w	r5, [r4, #2076]	; 0x81c
    if(cfg.use_external_vbus == 1U)
  32:	f7ff fffe 	bl	0 <USB_StopDevice>
    {
      USBx->GUSBCFG |= USB_OTG_GUSBCFG_ULPIEVBUSD;
  36:	2110      	movs	r1, #16
  38:	4620      	mov	r0, r4
  3a:	f7ff fffe 	bl	0 <USB_StopDevice>
  3e:	4628      	mov	r0, r5
    }
    /* Reset after a PHY select  */
    USB_CoreReset(USBx); 
  40:	bd38      	pop	{r3, r4, r5, pc}

Disassembly of section .text.USB_SetDevAddress:

00000000 <USB_SetDevAddress>:
   0:	f8d0 3800 	ldr.w	r3, [r0, #2048]	; 0x800
  * @param  cfg : pointer to a USB_OTG_CfgTypeDef structure that contains
  *         the configuration information for the specified USBx peripheral.
  * @retval HAL status
  */
HAL_StatusTypeDef USB_CoreInit(USB_OTG_GlobalTypeDef *USBx, USB_OTG_CfgTypeDef cfg)
{
   4:	f423 63fe 	bic.w	r3, r3, #2032	; 0x7f0
   8:	f8c0 3800 	str.w	r3, [r0, #2048]	; 0x800
   c:	f8d0 3800 	ldr.w	r3, [r0, #2048]	; 0x800
  if (cfg.phy_itface == USB_OTG_ULPI_PHY)
  10:	0109      	lsls	r1, r1, #4
  * @param  cfg : pointer to a USB_OTG_CfgTypeDef structure that contains
  *         the configuration information for the specified USBx peripheral.
  * @retval HAL status
  */
HAL_StatusTypeDef USB_CoreInit(USB_OTG_GlobalTypeDef *USBx, USB_OTG_CfgTypeDef cfg)
{
  12:	f401 61fe 	and.w	r1, r1, #2032	; 0x7f0
  if (cfg.phy_itface == USB_OTG_ULPI_PHY)
  {
    
    USBx->GCCFG &= ~(USB_OTG_GCCFG_PWRDWN);
  16:	430b      	orrs	r3, r1
  18:	f8c0 3800 	str.w	r3, [r0, #2048]	; 0x800
  1c:	2000      	movs	r0, #0

    /* Init The ULPI Interface */
    USBx->GUSBCFG &= ~(USB_OTG_GUSBCFG_TSDPS | USB_OTG_GUSBCFG_ULPIFSLS | USB_OTG_GUSBCFG_PHYSEL);
  1e:	4770      	bx	lr

Disassembly of section .text.USB_DevConnect:

00000000 <USB_DevConnect>:
   0:	b508      	push	{r3, lr}
   2:	f8d0 3804 	ldr.w	r3, [r0, #2052]	; 0x804
  * @param  cfg : pointer to a USB_OTG_CfgTypeDef structure that contains
  *         the configuration information for the specified USBx peripheral.
  * @retval HAL status
  */
HAL_StatusTypeDef USB_CoreInit(USB_OTG_GlobalTypeDef *USBx, USB_OTG_CfgTypeDef cfg)
{
   6:	f023 0302 	bic.w	r3, r3, #2
   a:	f8c0 3804 	str.w	r3, [r0, #2052]	; 0x804
  if (cfg.phy_itface == USB_OTG_ULPI_PHY)
   e:	2003      	movs	r0, #3
  10:	f7ff fffe 	bl	0 <HAL_Delay>
  14:	2000      	movs	r0, #0
  {
    
    USBx->GCCFG &= ~(USB_OTG_GCCFG_PWRDWN);
  16:	bd08      	pop	{r3, pc}

Disassembly of section .text.USB_DevDisconnect:

00000000 <USB_DevDisconnect>:
   0:	b508      	push	{r3, lr}
   2:	f8d0 3804 	ldr.w	r3, [r0, #2052]	; 0x804
  * @param  cfg : pointer to a USB_OTG_CfgTypeDef structure that contains
  *         the configuration information for the specified USBx peripheral.
  * @retval HAL status
  */
HAL_StatusTypeDef USB_CoreInit(USB_OTG_GlobalTypeDef *USBx, USB_OTG_CfgTypeDef cfg)
{
   6:	f043 0302 	orr.w	r3, r3, #2
   a:	f8c0 3804 	str.w	r3, [r0, #2052]	; 0x804
  if (cfg.phy_itface == USB_OTG_ULPI_PHY)
   e:	2003      	movs	r0, #3
  10:	f7ff fffe 	bl	0 <HAL_Delay>
  14:	2000      	movs	r0, #0
  {
    
    USBx->GCCFG &= ~(USB_OTG_GCCFG_PWRDWN);
  16:	bd08      	pop	{r3, pc}

Disassembly of section .text.USB_ReadInterrupts:

00000000 <USB_ReadInterrupts>:
   0:	6942      	ldr	r2, [r0, #20]
   2:	6980      	ldr	r0, [r0, #24]
  * @param  cfg : pointer to a USB_OTG_CfgTypeDef structure that contains
  *         the configuration information for the specified USBx peripheral.
  * @retval HAL status
  */
HAL_StatusTypeDef USB_CoreInit(USB_OTG_GlobalTypeDef *USBx, USB_OTG_CfgTypeDef cfg)
{
   4:	4010      	ands	r0, r2
   6:	4770      	bx	lr

Disassembly of section .text.USB_ReadDevAllOutEpInterrupt:

00000000 <USB_ReadDevAllOutEpInterrupt>:
   0:	f500 6300 	add.w	r3, r0, #2048	; 0x800
   4:	f8d0 0818 	ldr.w	r0, [r0, #2072]	; 0x818
   8:	69db      	ldr	r3, [r3, #28]
   a:	4018      	ands	r0, r3
   c:	0c00      	lsrs	r0, r0, #16
  if (cfg.phy_itface == USB_OTG_ULPI_PHY)
   e:	4770      	bx	lr

Disassembly of section .text.USB_ReadDevAllInEpInterrupt:

00000000 <USB_ReadDevAllInEpInterrupt>:
   0:	f500 6300 	add.w	r3, r0, #2048	; 0x800
  * @param  cfg : pointer to a USB_OTG_CfgTypeDef structure that contains
  *         the configuration information for the specified USBx peripheral.
  * @retval HAL status
  */
HAL_StatusTypeDef USB_CoreInit(USB_OTG_GlobalTypeDef *USBx, USB_OTG_CfgTypeDef cfg)
{
   4:	f8d0 0818 	ldr.w	r0, [r0, #2072]	; 0x818
   8:	69db      	ldr	r3, [r3, #28]
   a:	4018      	ands	r0, r3
   c:	b280      	uxth	r0, r0
  if (cfg.phy_itface == USB_OTG_ULPI_PHY)
   e:	4770      	bx	lr

Disassembly of section .text.USB_ReadDevOutEPInterrupt:

00000000 <USB_ReadDevOutEPInterrupt>:
   0:	f500 6330 	add.w	r3, r0, #2816	; 0xb00
  * @param  cfg : pointer to a USB_OTG_CfgTypeDef structure that contains
  *         the configuration information for the specified USBx peripheral.
  * @retval HAL status
  */
HAL_StatusTypeDef USB_CoreInit(USB_OTG_GlobalTypeDef *USBx, USB_OTG_CfgTypeDef cfg)
{
   4:	eb03 1141 	add.w	r1, r3, r1, lsl #5
   8:	f500 6000 	add.w	r0, r0, #2048	; 0x800
   c:	688a      	ldr	r2, [r1, #8]
  if (cfg.phy_itface == USB_OTG_ULPI_PHY)
   e:	6940      	ldr	r0, [r0, #20]
  10:	4010      	ands	r0, r2
  * @param  cfg : pointer to a USB_OTG_CfgTypeDef structure that contains
  *         the configuration information for the specified USBx peripheral.
  * @retval HAL status
  */
HAL_StatusTypeDef USB_CoreInit(USB_OTG_GlobalTypeDef *USBx, USB_OTG_CfgTypeDef cfg)
{
  12:	4770      	bx	lr

Disassembly of section .text.USB_ReadDevInEPInterrupt:

00000000 <USB_ReadDevInEPInterrupt>:
   0:	f8d0 2810 	ldr.w	r2, [r0, #2064]	; 0x810
   4:	f8d0 3834 	ldr.w	r3, [r0, #2100]	; 0x834
   8:	eb00 1041 	add.w	r0, r0, r1, lsl #5
   c:	f500 6010 	add.w	r0, r0, #2304	; 0x900
  if (cfg.phy_itface == USB_OTG_ULPI_PHY)
  10:	fa23 f101 	lsr.w	r1, r3, r1
  14:	01c9      	lsls	r1, r1, #7
  {
    
    USBx->GCCFG &= ~(USB_OTG_GCCFG_PWRDWN);
  16:	6880      	ldr	r0, [r0, #8]
  18:	b2c9      	uxtb	r1, r1
  1a:	4311      	orrs	r1, r2
  1c:	4008      	ands	r0, r1

    /* Init The ULPI Interface */
    USBx->GUSBCFG &= ~(USB_OTG_GUSBCFG_TSDPS | USB_OTG_GUSBCFG_ULPIFSLS | USB_OTG_GUSBCFG_PHYSEL);
  1e:	4770      	bx	lr

Disassembly of section .text.USB_ClearInterrupts:

00000000 <USB_ClearInterrupts>:
   0:	6943      	ldr	r3, [r0, #20]
   2:	4319      	orrs	r1, r3
  * @param  cfg : pointer to a USB_OTG_CfgTypeDef structure that contains
  *         the configuration information for the specified USBx peripheral.
  * @retval HAL status
  */
HAL_StatusTypeDef USB_CoreInit(USB_OTG_GlobalTypeDef *USBx, USB_OTG_CfgTypeDef cfg)
{
   4:	6141      	str	r1, [r0, #20]
   6:	4770      	bx	lr

Disassembly of section .text.USB_GetMode:

00000000 <USB_GetMode>:
   0:	6940      	ldr	r0, [r0, #20]
   2:	f000 0001 	and.w	r0, r0, #1
   6:	4770      	bx	lr

Disassembly of section .text.USB_ActivateSetup:

00000000 <USB_ActivateSetup>:
   0:	f8d0 3900 	ldr.w	r3, [r0, #2304]	; 0x900
   4:	f423 63ff 	bic.w	r3, r3, #2040	; 0x7f8
   8:	f023 0307 	bic.w	r3, r3, #7
   c:	f8c0 3900 	str.w	r3, [r0, #2304]	; 0x900
  if (cfg.phy_itface == USB_OTG_ULPI_PHY)
  10:	f500 6300 	add.w	r3, r0, #2048	; 0x800
  14:	689a      	ldr	r2, [r3, #8]
  {
    
    USBx->GCCFG &= ~(USB_OTG_GCCFG_PWRDWN);
  16:	f002 0206 	and.w	r2, r2, #6
  1a:	2a04      	cmp	r2, #4
  1c:	bf02      	ittt	eq

    /* Init The ULPI Interface */
    USBx->GUSBCFG &= ~(USB_OTG_GUSBCFG_TSDPS | USB_OTG_GUSBCFG_ULPIFSLS | USB_OTG_GUSBCFG_PHYSEL);
  1e:	f8d0 2900 	ldreq.w	r2, [r0, #2304]	; 0x900
  22:	f042 0203 	orreq.w	r2, r2, #3
  26:	f8c0 2900 	streq.w	r2, [r0, #2304]	; 0x900
   
    /* Select vbus source */
    USBx->GUSBCFG &= ~(USB_OTG_GUSBCFG_ULPIEVBUSD | USB_OTG_GUSBCFG_ULPIEVBUSI);
  2a:	685a      	ldr	r2, [r3, #4]
  2c:	f442 7280 	orr.w	r2, r2, #256	; 0x100
  30:	605a      	str	r2, [r3, #4]
    if(cfg.use_external_vbus == 1U)
  32:	2000      	movs	r0, #0
  34:	4770      	bx	lr

Disassembly of section .text.USB_EP0_OutStart:

00000000 <USB_EP0_OutStart>:
   0:	b510      	push	{r4, lr}
   2:	2400      	movs	r4, #0
  * @param  cfg : pointer to a USB_OTG_CfgTypeDef structure that contains
  *         the configuration information for the specified USBx peripheral.
  * @retval HAL status
  */
HAL_StatusTypeDef USB_CoreInit(USB_OTG_GlobalTypeDef *USBx, USB_OTG_CfgTypeDef cfg)
{
   4:	f8c0 4b10 	str.w	r4, [r0, #2832]	; 0xb10
   8:	f8d0 4b10 	ldr.w	r4, [r0, #2832]	; 0xb10
   c:	f444 2400 	orr.w	r4, r4, #524288	; 0x80000
  if (cfg.phy_itface == USB_OTG_ULPI_PHY)
  10:	f8c0 4b10 	str.w	r4, [r0, #2832]	; 0xb10
  14:	f8d0 4b10 	ldr.w	r4, [r0, #2832]	; 0xb10
  {
    
    USBx->GCCFG &= ~(USB_OTG_GCCFG_PWRDWN);
  18:	f044 0418 	orr.w	r4, r4, #24
  1c:	f8c0 4b10 	str.w	r4, [r0, #2832]	; 0xb10

    /* Init The ULPI Interface */
    USBx->GUSBCFG &= ~(USB_OTG_GUSBCFG_TSDPS | USB_OTG_GUSBCFG_ULPIFSLS | USB_OTG_GUSBCFG_PHYSEL);
  20:	f8d0 4b10 	ldr.w	r4, [r0, #2832]	; 0xb10
  24:	2901      	cmp	r1, #1
  26:	f500 6330 	add.w	r3, r0, #2816	; 0xb00
   
    /* Select vbus source */
    USBx->GUSBCFG &= ~(USB_OTG_GUSBCFG_ULPIEVBUSD | USB_OTG_GUSBCFG_ULPIEVBUSI);
  2a:	f044 44c0 	orr.w	r4, r4, #1610612736	; 0x60000000
  2e:	bf08      	it	eq
  30:	f04f 2380 	moveq.w	r3, #2147516416	; 0x80008000
    if(cfg.use_external_vbus == 1U)
  34:	f8c0 4b10 	str.w	r4, [r0, #2832]	; 0xb10
    {
      USBx->GUSBCFG |= USB_OTG_GUSBCFG_ULPIEVBUSD;
  38:	bf04      	itt	eq
  3a:	f8c0 2b14 	streq.w	r2, [r0, #2836]	; 0xb14
  3e:	f8c0 3b00 	streq.w	r3, [r0, #2816]	; 0xb00
    }
    /* Reset after a PHY select  */
    USB_CoreReset(USBx); 
  42:	2000      	movs	r0, #0
  44:	bd10      	pop	{r4, pc}

Disassembly of section .text.USB_CoreReset:

00000000 <USB_CoreReset>:
   0:	4b0a      	ldr	r3, [pc, #40]	; (2c <USB_CoreReset+0x2c>)
   2:	3b01      	subs	r3, #1
  * @param  cfg : pointer to a USB_OTG_CfgTypeDef structure that contains
  *         the configuration information for the specified USBx peripheral.
  * @retval HAL status
  */
HAL_StatusTypeDef USB_CoreInit(USB_OTG_GlobalTypeDef *USBx, USB_OTG_CfgTypeDef cfg)
{
   4:	d101      	bne.n	a <USB_CoreReset+0xa>
   6:	2003      	movs	r0, #3
   8:	4770      	bx	lr
   a:	6902      	ldr	r2, [r0, #16]
   c:	2a00      	cmp	r2, #0
  if (cfg.phy_itface == USB_OTG_ULPI_PHY)
   e:	daf8      	bge.n	2 <USB_CoreReset+0x2>
  10:	6903      	ldr	r3, [r0, #16]
  * @param  cfg : pointer to a USB_OTG_CfgTypeDef structure that contains
  *         the configuration information for the specified USBx peripheral.
  * @retval HAL status
  */
HAL_StatusTypeDef USB_CoreInit(USB_OTG_GlobalTypeDef *USBx, USB_OTG_CfgTypeDef cfg)
{
  12:	4a06      	ldr	r2, [pc, #24]	; (2c <USB_CoreReset+0x2c>)
  if (cfg.phy_itface == USB_OTG_ULPI_PHY)
  14:	f043 0301 	orr.w	r3, r3, #1
  {
    
    USBx->GCCFG &= ~(USB_OTG_GCCFG_PWRDWN);
  18:	6103      	str	r3, [r0, #16]
  1a:	3a01      	subs	r2, #1
  1c:	d0f3      	beq.n	6 <USB_CoreReset+0x6>

    /* Init The ULPI Interface */
    USBx->GUSBCFG &= ~(USB_OTG_GUSBCFG_TSDPS | USB_OTG_GUSBCFG_ULPIFSLS | USB_OTG_GUSBCFG_PHYSEL);
  1e:	6903      	ldr	r3, [r0, #16]
  20:	f013 0301 	ands.w	r3, r3, #1
  24:	d1f9      	bne.n	1a <USB_CoreReset+0x1a>
  26:	4618      	mov	r0, r3
  28:	4770      	bx	lr
   
    /* Select vbus source */
    USBx->GUSBCFG &= ~(USB_OTG_GUSBCFG_ULPIEVBUSD | USB_OTG_GUSBCFG_ULPIEVBUSI);
  2a:	bf00      	nop
  2c:	00030d41 	.word	0x00030d41

Disassembly of section .text.USB_HostInit:

00000000 <USB_HostInit>:
   0:	b084      	sub	sp, #16
   2:	b538      	push	{r3, r4, r5, lr}
  * @param  cfg : pointer to a USB_OTG_CfgTypeDef structure that contains
  *         the configuration information for the specified USBx peripheral.
  * @retval HAL status
  */
HAL_StatusTypeDef USB_CoreInit(USB_OTG_GlobalTypeDef *USBx, USB_OTG_CfgTypeDef cfg)
{
   4:	4604      	mov	r4, r0
   6:	a805      	add	r0, sp, #20
   8:	e880 000e 	stmia.w	r0, {r1, r2, r3}
   c:	2300      	movs	r3, #0
  if (cfg.phy_itface == USB_OTG_ULPI_PHY)
   e:	f8c4 3e00 	str.w	r3, [r4, #3584]	; 0xe00
  * @param  cfg : pointer to a USB_OTG_CfgTypeDef structure that contains
  *         the configuration information for the specified USBx peripheral.
  * @retval HAL status
  */
HAL_StatusTypeDef USB_CoreInit(USB_OTG_GlobalTypeDef *USBx, USB_OTG_CfgTypeDef cfg)
{
  12:	6ba3      	ldr	r3, [r4, #56]	; 0x38
  if (cfg.phy_itface == USB_OTG_ULPI_PHY)
  14:	f423 2380 	bic.w	r3, r3, #262144	; 0x40000
  {
    
    USBx->GCCFG &= ~(USB_OTG_GCCFG_PWRDWN);
  18:	63a3      	str	r3, [r4, #56]	; 0x38
  1a:	6ba3      	ldr	r3, [r4, #56]	; 0x38
  1c:	f423 2300 	bic.w	r3, r3, #524288	; 0x80000

    /* Init The ULPI Interface */
    USBx->GUSBCFG &= ~(USB_OTG_GUSBCFG_TSDPS | USB_OTG_GUSBCFG_ULPIFSLS | USB_OTG_GUSBCFG_PHYSEL);
  20:	63a3      	str	r3, [r4, #56]	; 0x38
  22:	6ba3      	ldr	r3, [r4, #56]	; 0x38
  24:	f443 1300 	orr.w	r3, r3, #2097152	; 0x200000
  28:	63a3      	str	r3, [r4, #56]	; 0x38
   
    /* Select vbus source */
    USBx->GUSBCFG &= ~(USB_OTG_GUSBCFG_ULPIEVBUSD | USB_OTG_GUSBCFG_ULPIEVBUSI);
  2a:	9b07      	ldr	r3, [sp, #28]
  2c:	2b03      	cmp	r3, #3
  2e:	f8d4 3400 	ldr.w	r3, [r4, #1024]	; 0x400
    if(cfg.use_external_vbus == 1U)
  32:	d107      	bne.n	44 <USB_HostInit+0x44>
  34:	f1b4 4fa0 	cmp.w	r4, #1342177280	; 0x50000000
    {
      USBx->GUSBCFG |= USB_OTG_GUSBCFG_ULPIEVBUSD;
  38:	d004      	beq.n	44 <USB_HostInit+0x44>
  3a:	f043 0304 	orr.w	r3, r3, #4
  3e:	f8c4 3400 	str.w	r3, [r4, #1024]	; 0x400
    }
    /* Reset after a PHY select  */
    USB_CoreReset(USBx); 
  42:	e003      	b.n	4c <USB_HostInit+0x4c>
  44:	f023 0304 	bic.w	r3, r3, #4
  }
  else /* FS interface (embedded Phy) */
  {
    /* Select FS Embedded PHY */
    USBx->GUSBCFG |= USB_OTG_GUSBCFG_PHYSEL;
  48:	f8c4 3400 	str.w	r3, [r4, #1024]	; 0x400
  4c:	2110      	movs	r1, #16
    
    /* Reset after a PHY select and set Host mode */
    USB_CoreReset(USBx);
  4e:	4620      	mov	r0, r4
  50:	f7ff fffe 	bl	0 <USB_HostInit>
    
    /* Deactivate the power down*/
    USBx->GCCFG = USB_OTG_GCCFG_PWRDWN;
  54:	4620      	mov	r0, r4
  56:	f7ff fffe 	bl	0 <USB_HostInit>
  }
 
  if(cfg.dma_enable == ENABLE)
  5a:	2300      	movs	r3, #0
  {
    USBx->GAHBCFG |= USB_OTG_GAHBCFG_DMAEN;
  5c:	9906      	ldr	r1, [sp, #24]
  5e:	f504 62a0 	add.w	r2, r4, #1280	; 0x500
  62:	f04f 30ff 	mov.w	r0, #4294967295
  }  

  return HAL_OK;
}
  66:	461d      	mov	r5, r3
  68:	428b      	cmp	r3, r1
  6a:	d004      	beq.n	76 <USB_HostInit+0x76>
  6c:	6090      	str	r0, [r2, #8]
  6e:	3301      	adds	r3, #1
  * @param  USBx : Selected device
  * @retval HAL status
  */
HAL_StatusTypeDef USB_EnableGlobalInt(USB_OTG_GlobalTypeDef *USBx)
{
  USBx->GAHBCFG |= USB_OTG_GAHBCFG_GINT;
  70:	60d5      	str	r5, [r2, #12]
  72:	3220      	adds	r2, #32
  74:	e7f8      	b.n	68 <USB_HostInit+0x68>
  76:	2101      	movs	r1, #1
  return HAL_OK;
}
  78:	4620      	mov	r0, r4
  7a:	f7ff fffe 	bl	0 <USB_HostInit>
  * @param  USBx : Selected device
  * @retval HAL status
*/
HAL_StatusTypeDef USB_DisableGlobalInt(USB_OTG_GlobalTypeDef *USBx)
{
  USBx->GAHBCFG &= ~USB_OTG_GAHBCFG_GINT;
  7e:	20c8      	movs	r0, #200	; 0xc8
  80:	f7ff fffe 	bl	0 <HAL_Delay>
  return HAL_OK;
}
  84:	2300      	movs	r3, #0
  86:	61a3      	str	r3, [r4, #24]
  *            @arg USB_OTG_HOST_MODE: Host mode
  *            @arg USB_OTG_DRD_MODE: Dual Role Device mode  
  * @retval HAL status
  */
HAL_StatusTypeDef USB_SetCurrentMode(USB_OTG_GlobalTypeDef *USBx , USB_OTG_ModeTypeDef mode)
{
  88:	f1b4 4fa0 	cmp.w	r4, #1342177280	; 0x50000000
  USBx->GUSBCFG &= ~(USB_OTG_GUSBCFG_FHMOD | USB_OTG_GUSBCFG_FDMOD); 
  
  if ( mode == USB_OTG_HOST_MODE)
  8c:	f04f 33ff 	mov.w	r3, #4294967295
  *            @arg USB_OTG_DRD_MODE: Dual Role Device mode  
  * @retval HAL status
  */
HAL_StatusTypeDef USB_SetCurrentMode(USB_OTG_GlobalTypeDef *USBx , USB_OTG_ModeTypeDef mode)
{
  USBx->GUSBCFG &= ~(USB_OTG_GUSBCFG_FHMOD | USB_OTG_GUSBCFG_FDMOD); 
  90:	6163      	str	r3, [r4, #20]
  92:	d108      	bne.n	a6 <USB_HostInit+0xa6>
  
  if ( mode == USB_OTG_HOST_MODE)
  94:	2380      	movs	r3, #128	; 0x80
  {
    USBx->GUSBCFG |= USB_OTG_GUSBCFG_FHMOD; 
  96:	6263      	str	r3, [r4, #36]	; 0x24
  98:	f503 03c0 	add.w	r3, r3, #6291456	; 0x600000
  9c:	62a3      	str	r3, [r4, #40]	; 0x28
  9e:	4b0e      	ldr	r3, [pc, #56]	; (d8 <USB_HostInit+0xd8>)
  }
  else if ( mode == USB_OTG_DEVICE_MODE)
  a0:	f8c4 3100 	str.w	r3, [r4, #256]	; 0x100
  {
    USBx->GUSBCFG |= USB_OTG_GUSBCFG_FDMOD; 
  a4:	e008      	b.n	b8 <USB_HostInit+0xb8>
  a6:	f44f 7300 	mov.w	r3, #512	; 0x200
  }
  HAL_Delay(50U);
  aa:	6263      	str	r3, [r4, #36]	; 0x24
  ac:	f103 7380 	add.w	r3, r3, #16777216	; 0x1000000
  
  return HAL_OK;
}
  b0:	62a3      	str	r3, [r4, #40]	; 0x28
  b2:	4b0a      	ldr	r3, [pc, #40]	; (dc <USB_HostInit+0xdc>)
  * @param  cfg  : pointer to a USB_OTG_CfgTypeDef structure that contains
  *         the configuration information for the specified USBx peripheral.
  * @retval HAL status
  */
HAL_StatusTypeDef USB_DevInit (USB_OTG_GlobalTypeDef *USBx, USB_OTG_CfgTypeDef cfg)
{
  b4:	f8c4 3100 	str.w	r3, [r4, #256]	; 0x100
  b8:	9b08      	ldr	r3, [sp, #32]
  ba:	b91b      	cbnz	r3, c4 <USB_HostInit+0xc4>
  bc:	69a3      	ldr	r3, [r4, #24]
  be:	f043 0310 	orr.w	r3, r3, #16
    /* B-peripheral session valid override enable*/ 
    USBx->GOTGCTL |= USB_OTG_GOTGCTL_BVALOEN;
    USBx->GOTGCTL |= USB_OTG_GOTGCTL_BVALOVAL;
  }
#else
  USBx->GCCFG |= USB_OTG_GCCFG_VBUSBSEN;
  c2:	61a3      	str	r3, [r4, #24]
  c4:	69a2      	ldr	r2, [r4, #24]
  c6:	4b06      	ldr	r3, [pc, #24]	; (e0 <USB_HostInit+0xe0>)
  c8:	4313      	orrs	r3, r2
  ca:	61a3      	str	r3, [r4, #24]
  cc:	e8bd 4038 	ldmia.w	sp!, {r3, r4, r5, lr}
  
  if (cfg.vbus_sensing_enable == 0U)
  d0:	2000      	movs	r0, #0
  {
    USBx->GCCFG |= USB_OTG_GCCFG_NOVBUSSENS;
  d2:	b004      	add	sp, #16
  d4:	4770      	bx	lr
  d6:	bf00      	nop
  d8:	004000e0 	.word	0x004000e0
  }
#endif /* STM32F446xx || STM32F469xx || STM32F479xx || STM32F412Zx || STM32F412Rx || STM32F412Vx || STM32F412Cx */

  /* Restart the Phy Clock */
  USBx_PCGCCTL = 0U;
  dc:	00e00300 	.word	0x00e00300

  /* Device mode configuration */
  USBx_DEVICE->DCFG |= DCFG_FRAME_INTERVAL_80;
  e0:	a3200008 	.word	0xa3200008

Disassembly of section .text.USB_InitFSLSPClkSel:

00000000 <USB_InitFSLSPClkSel>:
   0:	b510      	push	{r4, lr}
   2:	f8d0 3400 	ldr.w	r3, [r0, #1024]	; 0x400
  * @param  cfg : pointer to a USB_OTG_CfgTypeDef structure that contains
  *         the configuration information for the specified USBx peripheral.
  * @retval HAL status
  */
HAL_StatusTypeDef USB_CoreInit(USB_OTG_GlobalTypeDef *USBx, USB_OTG_CfgTypeDef cfg)
{
   6:	f023 0303 	bic.w	r3, r3, #3
   a:	f8c0 3400 	str.w	r3, [r0, #1024]	; 0x400
  if (cfg.phy_itface == USB_OTG_ULPI_PHY)
   e:	f8d0 3400 	ldr.w	r3, [r0, #1024]	; 0x400
  * @param  cfg : pointer to a USB_OTG_CfgTypeDef structure that contains
  *         the configuration information for the specified USBx peripheral.
  * @retval HAL status
  */
HAL_StatusTypeDef USB_CoreInit(USB_OTG_GlobalTypeDef *USBx, USB_OTG_CfgTypeDef cfg)
{
  12:	f001 0403 	and.w	r4, r1, #3
  if (cfg.phy_itface == USB_OTG_ULPI_PHY)
  {
    
    USBx->GCCFG &= ~(USB_OTG_GCCFG_PWRDWN);
  16:	4323      	orrs	r3, r4
  18:	2901      	cmp	r1, #1
  1a:	f500 6280 	add.w	r2, r0, #1024	; 0x400

    /* Init The ULPI Interface */
    USBx->GUSBCFG &= ~(USB_OTG_GUSBCFG_TSDPS | USB_OTG_GUSBCFG_ULPIFSLS | USB_OTG_GUSBCFG_PHYSEL);
  1e:	f8c0 3400 	str.w	r3, [r0, #1024]	; 0x400
  22:	d103      	bne.n	2c <USB_InitFSLSPClkSel+0x2c>
  24:	f64b 3380 	movw	r3, #48000	; 0xbb80
  28:	6053      	str	r3, [r2, #4]
   
    /* Select vbus source */
    USBx->GUSBCFG &= ~(USB_OTG_GUSBCFG_ULPIEVBUSD | USB_OTG_GUSBCFG_ULPIEVBUSI);
  2a:	e004      	b.n	36 <USB_InitFSLSPClkSel+0x36>
  2c:	2902      	cmp	r1, #2
  2e:	bf04      	itt	eq
  30:	f241 7370 	movweq	r3, #6000	; 0x1770
    if(cfg.use_external_vbus == 1U)
  34:	6053      	streq	r3, [r2, #4]
    {
      USBx->GUSBCFG |= USB_OTG_GUSBCFG_ULPIEVBUSD;
  36:	2000      	movs	r0, #0
  38:	bd10      	pop	{r4, pc}

Disassembly of section .text.USB_ResetPort:

00000000 <USB_ResetPort>:
   0:	b513      	push	{r0, r1, r4, lr}
   2:	f8d0 3440 	ldr.w	r3, [r0, #1088]	; 0x440
  * @param  cfg : pointer to a USB_OTG_CfgTypeDef structure that contains
  *         the configuration information for the specified USBx peripheral.
  * @retval HAL status
  */
HAL_StatusTypeDef USB_CoreInit(USB_OTG_GlobalTypeDef *USBx, USB_OTG_CfgTypeDef cfg)
{
   6:	9301      	str	r3, [sp, #4]
   8:	9b01      	ldr	r3, [sp, #4]
   a:	f023 032e 	bic.w	r3, r3, #46	; 0x2e
  if (cfg.phy_itface == USB_OTG_ULPI_PHY)
   e:	9301      	str	r3, [sp, #4]
  10:	9b01      	ldr	r3, [sp, #4]
  * @param  cfg : pointer to a USB_OTG_CfgTypeDef structure that contains
  *         the configuration information for the specified USBx peripheral.
  * @retval HAL status
  */
HAL_StatusTypeDef USB_CoreInit(USB_OTG_GlobalTypeDef *USBx, USB_OTG_CfgTypeDef cfg)
{
  12:	f443 7380 	orr.w	r3, r3, #256	; 0x100
  if (cfg.phy_itface == USB_OTG_ULPI_PHY)
  {
    
    USBx->GCCFG &= ~(USB_OTG_GCCFG_PWRDWN);
  16:	4604      	mov	r4, r0
  18:	f8c0 3440 	str.w	r3, [r0, #1088]	; 0x440
  1c:	200a      	movs	r0, #10

    /* Init The ULPI Interface */
    USBx->GUSBCFG &= ~(USB_OTG_GUSBCFG_TSDPS | USB_OTG_GUSBCFG_ULPIFSLS | USB_OTG_GUSBCFG_PHYSEL);
  1e:	f7ff fffe 	bl	0 <HAL_Delay>
  22:	9b01      	ldr	r3, [sp, #4]
  24:	2000      	movs	r0, #0
  26:	f423 7380 	bic.w	r3, r3, #256	; 0x100
   
    /* Select vbus source */
    USBx->GUSBCFG &= ~(USB_OTG_GUSBCFG_ULPIEVBUSD | USB_OTG_GUSBCFG_ULPIEVBUSI);
  2a:	f8c4 3440 	str.w	r3, [r4, #1088]	; 0x440
  2e:	b002      	add	sp, #8
  30:	bd10      	pop	{r4, pc}

Disassembly of section .text.USB_DriveVbus:

00000000 <USB_DriveVbus>:
   0:	b082      	sub	sp, #8
   2:	f8d0 3440 	ldr.w	r3, [r0, #1088]	; 0x440
  * @param  cfg : pointer to a USB_OTG_CfgTypeDef structure that contains
  *         the configuration information for the specified USBx peripheral.
  * @retval HAL status
  */
HAL_StatusTypeDef USB_CoreInit(USB_OTG_GlobalTypeDef *USBx, USB_OTG_CfgTypeDef cfg)
{
   6:	9301      	str	r3, [sp, #4]
   8:	9b01      	ldr	r3, [sp, #4]
   a:	f023 032e 	bic.w	r3, r3, #46	; 0x2e
  if (cfg.phy_itface == USB_OTG_ULPI_PHY)
   e:	9301      	str	r3, [sp, #4]
  10:	9b01      	ldr	r3, [sp, #4]
  * @param  cfg : pointer to a USB_OTG_CfgTypeDef structure that contains
  *         the configuration information for the specified USBx peripheral.
  * @retval HAL status
  */
HAL_StatusTypeDef USB_CoreInit(USB_OTG_GlobalTypeDef *USBx, USB_OTG_CfgTypeDef cfg)
{
  12:	04da      	lsls	r2, r3, #19
  if (cfg.phy_itface == USB_OTG_ULPI_PHY)
  14:	d406      	bmi.n	24 <USB_DriveVbus+0x24>
  {
    
    USBx->GCCFG &= ~(USB_OTG_GCCFG_PWRDWN);
  16:	2901      	cmp	r1, #1
  18:	bf02      	ittt	eq
  1a:	9b01      	ldreq	r3, [sp, #4]
  1c:	f443 5380 	orreq.w	r3, r3, #4096	; 0x1000

    /* Init The ULPI Interface */
    USBx->GUSBCFG &= ~(USB_OTG_GUSBCFG_TSDPS | USB_OTG_GUSBCFG_ULPIFSLS | USB_OTG_GUSBCFG_PHYSEL);
  20:	f8c0 3440 	streq.w	r3, [r0, #1088]	; 0x440
  24:	9b01      	ldr	r3, [sp, #4]
  26:	04db      	lsls	r3, r3, #19
  28:	d505      	bpl.n	36 <USB_DriveVbus+0x36>
   
    /* Select vbus source */
    USBx->GUSBCFG &= ~(USB_OTG_GUSBCFG_ULPIEVBUSD | USB_OTG_GUSBCFG_ULPIEVBUSI);
  2a:	b921      	cbnz	r1, 36 <USB_DriveVbus+0x36>
  2c:	9b01      	ldr	r3, [sp, #4]
  2e:	f423 5380 	bic.w	r3, r3, #4096	; 0x1000
    if(cfg.use_external_vbus == 1U)
  32:	f8c0 3440 	str.w	r3, [r0, #1088]	; 0x440
    {
      USBx->GUSBCFG |= USB_OTG_GUSBCFG_ULPIEVBUSD;
  36:	2000      	movs	r0, #0
  38:	b002      	add	sp, #8
  3a:	4770      	bx	lr

Disassembly of section .text.USB_GetHostSpeed:

00000000 <USB_GetHostSpeed>:
   0:	b082      	sub	sp, #8
   2:	f8d0 3440 	ldr.w	r3, [r0, #1088]	; 0x440
  * @param  cfg : pointer to a USB_OTG_CfgTypeDef structure that contains
  *         the configuration information for the specified USBx peripheral.
  * @retval HAL status
  */
HAL_StatusTypeDef USB_CoreInit(USB_OTG_GlobalTypeDef *USBx, USB_OTG_CfgTypeDef cfg)
{
   6:	9301      	str	r3, [sp, #4]
   8:	9801      	ldr	r0, [sp, #4]
   a:	f3c0 4041 	ubfx	r0, r0, #17, #2
  if (cfg.phy_itface == USB_OTG_ULPI_PHY)
   e:	b002      	add	sp, #8
  10:	4770      	bx	lr

Disassembly of section .text.USB_GetCurrentFrame:

00000000 <USB_GetCurrentFrame>:
   0:	f500 6080 	add.w	r0, r0, #1024	; 0x400
  * @param  cfg : pointer to a USB_OTG_CfgTypeDef structure that contains
  *         the configuration information for the specified USBx peripheral.
  * @retval HAL status
  */
HAL_StatusTypeDef USB_CoreInit(USB_OTG_GlobalTypeDef *USBx, USB_OTG_CfgTypeDef cfg)
{
   4:	6880      	ldr	r0, [r0, #8]
   6:	b280      	uxth	r0, r0
   8:	4770      	bx	lr

Disassembly of section .text.USB_HC_Init:

00000000 <USB_HC_Init>:
   0:	b5f0      	push	{r4, r5, r6, r7, lr}
   2:	f500 64a0 	add.w	r4, r0, #1280	; 0x500
   6:	eb04 1441 	add.w	r4, r4, r1, lsl #5
   a:	f89d 5018 	ldrb.w	r5, [sp, #24]
  if (cfg.phy_itface == USB_OTG_ULPI_PHY)
   e:	f04f 36ff 	mov.w	r6, #4294967295
  * @param  cfg : pointer to a USB_OTG_CfgTypeDef structure that contains
  *         the configuration information for the specified USBx peripheral.
  * @retval HAL status
  */
HAL_StatusTypeDef USB_CoreInit(USB_OTG_GlobalTypeDef *USBx, USB_OTG_CfgTypeDef cfg)
{
  12:	60a6      	str	r6, [r4, #8]
  if (cfg.phy_itface == USB_OTG_ULPI_PHY)
  14:	b256      	sxtb	r6, r2
  {
    
    USBx->GCCFG &= ~(USB_OTG_GCCFG_PWRDWN);
  16:	2d03      	cmp	r5, #3
  18:	d823      	bhi.n	62 <USB_HC_Init+0x62>
  1a:	e8df f005 	tbb	[pc, r5]

    /* Init The ULPI Interface */
    USBx->GUSBCFG &= ~(USB_OTG_GUSBCFG_TSDPS | USB_OTG_GUSBCFG_ULPIFSLS | USB_OTG_GUSBCFG_PHYSEL);
  1e:	1902      	.short	0x1902
  20:	0f02      	.short	0x0f02
  22:	f240 479d 	movw	r7, #1181	; 0x49d
  26:	2e00      	cmp	r6, #0
  28:	60e7      	str	r7, [r4, #12]
   
    /* Select vbus source */
    USBx->GUSBCFG &= ~(USB_OTG_GUSBCFG_ULPIEVBUSD | USB_OTG_GUSBCFG_ULPIEVBUSI);
  2a:	db0c      	blt.n	46 <USB_HC_Init+0x46>
  2c:	f1b0 4fa0 	cmp.w	r0, #1342177280	; 0x50000000
  30:	d017      	beq.n	62 <USB_HC_Init+0x62>
    if(cfg.use_external_vbus == 1U)
  32:	68e7      	ldr	r7, [r4, #12]
  34:	f047 0760 	orr.w	r7, r7, #96	; 0x60
    {
      USBx->GUSBCFG |= USB_OTG_GUSBCFG_ULPIEVBUSD;
  38:	60e7      	str	r7, [r4, #12]
  3a:	e012      	b.n	62 <USB_HC_Init+0x62>
  3c:	f240 679d 	movw	r7, #1693	; 0x69d
    }
    /* Reset after a PHY select  */
    USB_CoreReset(USBx); 
  40:	2e00      	cmp	r6, #0
  42:	60e7      	str	r7, [r4, #12]
  44:	da0d      	bge.n	62 <USB_HC_Init+0x62>
  }
  else /* FS interface (embedded Phy) */
  {
    /* Select FS Embedded PHY */
    USBx->GUSBCFG |= USB_OTG_GUSBCFG_PHYSEL;
  46:	68e7      	ldr	r7, [r4, #12]
  48:	f447 7780 	orr.w	r7, r7, #256	; 0x100
  4c:	60e7      	str	r7, [r4, #12]
    
    /* Reset after a PHY select and set Host mode */
    USB_CoreReset(USBx);
  4e:	e008      	b.n	62 <USB_HC_Init+0x62>
  50:	f240 2725 	movw	r7, #549	; 0x225
    
    /* Deactivate the power down*/
    USBx->GCCFG = USB_OTG_GCCFG_PWRDWN;
  54:	60e7      	str	r7, [r4, #12]
  56:	2e00      	cmp	r6, #0
  }
 
  if(cfg.dma_enable == ENABLE)
  58:	bfbe      	ittt	lt
  5a:	68e7      	ldrlt	r7, [r4, #12]
  {
    USBx->GAHBCFG |= USB_OTG_GAHBCFG_DMAEN;
  5c:	f447 77c0 	orrlt.w	r7, r7, #384	; 0x180
  60:	60e7      	strlt	r7, [r4, #12]
  62:	f8d0 7418 	ldr.w	r7, [r0, #1048]	; 0x418
  }  

  return HAL_OK;
}
  66:	f04f 0e01 	mov.w	lr, #1
  6a:	fa0e f101 	lsl.w	r1, lr, r1
  6e:	4339      	orrs	r1, r7
  * @param  USBx : Selected device
  * @retval HAL status
  */
HAL_StatusTypeDef USB_EnableGlobalInt(USB_OTG_GlobalTypeDef *USBx)
{
  USBx->GAHBCFG |= USB_OTG_GAHBCFG_GINT;
  70:	f8c0 1418 	str.w	r1, [r0, #1048]	; 0x418
  74:	6981      	ldr	r1, [r0, #24]
  76:	f041 7100 	orr.w	r1, r1, #33554432	; 0x2000000
  return HAL_OK;
}
  7a:	6181      	str	r1, [r0, #24]
  * @param  USBx : Selected device
  * @retval HAL status
*/
HAL_StatusTypeDef USB_DisableGlobalInt(USB_OTG_GlobalTypeDef *USBx)
{
  USBx->GAHBCFG &= ~USB_OTG_GAHBCFG_GINT;
  7c:	0599      	lsls	r1, r3, #22
  7e:	f89d 3014 	ldrb.w	r3, [sp, #20]
  82:	2e00      	cmp	r6, #0
  return HAL_OK;
}
  84:	bfb4      	ite	lt
  86:	f44f 4600 	movlt.w	r6, #32768	; 0x8000
  *            @arg USB_OTG_DRD_MODE: Dual Role Device mode  
  * @retval HAL status
  */
HAL_StatusTypeDef USB_SetCurrentMode(USB_OTG_GlobalTypeDef *USBx , USB_OTG_ModeTypeDef mode)
{
  USBx->GUSBCFG &= ~(USB_OTG_GUSBCFG_FHMOD | USB_OTG_GUSBCFG_FDMOD); 
  8a:	2600      	movge	r6, #0
  
  if ( mode == USB_OTG_HOST_MODE)
  8c:	2b02      	cmp	r3, #2
  *            @arg USB_OTG_DRD_MODE: Dual Role Device mode  
  * @retval HAL status
  */
HAL_StatusTypeDef USB_SetCurrentMode(USB_OTG_GlobalTypeDef *USBx , USB_OTG_ModeTypeDef mode)
{
  USBx->GUSBCFG &= ~(USB_OTG_GUSBCFG_FHMOD | USB_OTG_GUSBCFG_FDMOD); 
  8e:	ea4f 4385 	mov.w	r3, r5, lsl #18
  92:	f403 2740 	and.w	r7, r3, #786432	; 0xc0000
  
  if ( mode == USB_OTG_HOST_MODE)
  {
    USBx->GUSBCFG |= USB_OTG_GUSBCFG_FHMOD; 
  96:	ea4f 22c2 	mov.w	r2, r2, lsl #11
  9a:	f8bd 301c 	ldrh.w	r3, [sp, #28]
  9e:	f402 42f0 	and.w	r2, r2, #30720	; 0x7800
  }
  else if ( mode == USB_OTG_DEVICE_MODE)
  {
    USBx->GUSBCFG |= USB_OTG_GUSBCFG_FDMOD; 
  a2:	f001 51fe 	and.w	r1, r1, #532676608	; 0x1fc00000
  a6:	ea41 0102 	orr.w	r1, r1, r2
  }
  HAL_Delay(50U);
  aa:	f3c3 030a 	ubfx	r3, r3, #0, #11
  ae:	ea43 0201 	orr.w	r2, r3, r1
  
  return HAL_OK;
}
  b2:	ea47 0302 	orr.w	r3, r7, r2
  * @param  cfg  : pointer to a USB_OTG_CfgTypeDef structure that contains
  *         the configuration information for the specified USBx peripheral.
  * @retval HAL status
  */
HAL_StatusTypeDef USB_DevInit (USB_OTG_GlobalTypeDef *USBx, USB_OTG_CfgTypeDef cfg)
{
  b6:	bf0c      	ite	eq
  b8:	f44f 3000 	moveq.w	r0, #131072	; 0x20000
  bc:	2000      	movne	r0, #0
  be:	4333      	orrs	r3, r6
  c0:	4303      	orrs	r3, r0
    /* B-peripheral session valid override enable*/ 
    USBx->GOTGCTL |= USB_OTG_GOTGCTL_BVALOEN;
    USBx->GOTGCTL |= USB_OTG_GOTGCTL_BVALOVAL;
  }
#else
  USBx->GCCFG |= USB_OTG_GCCFG_VBUSBSEN;
  c2:	6023      	str	r3, [r4, #0]
  c4:	2d03      	cmp	r5, #3
  c6:	bf02      	ittt	eq
  c8:	6823      	ldreq	r3, [r4, #0]
  ca:	f043 5300 	orreq.w	r3, r3, #536870912	; 0x20000000
  ce:	6023      	streq	r3, [r4, #0]
  
  if (cfg.vbus_sensing_enable == 0U)
  d0:	2000      	movs	r0, #0
  {
    USBx->GCCFG |= USB_OTG_GCCFG_NOVBUSSENS;
  d2:	bdf0      	pop	{r4, r5, r6, r7, pc}

Disassembly of section .text.USB_HC_StartXfer:

00000000 <USB_HC_StartXfer>:
   0:	b580      	push	{r7, lr}
   2:	b08a      	sub	sp, #40	; 0x28
  * @param  cfg : pointer to a USB_OTG_CfgTypeDef structure that contains
