
SMOK:     file format elf32-littlearm


Disassembly of section .bootloader:

08000000 <resetisr>:
 8000000:	00 10 00 10 95 01 00 08 89 01 00 08 89 01 00 08     ................
 8000010:	89 01 00 08 89 01 00 08 89 01 00 08 89 01 00 08     ................
 8000020:	89 01 00 08 89 01 00 08 89 01 00 08 89 01 00 08     ................
 8000030:	89 01 00 08 89 01 00 08 89 01 00 08 89 01 00 08     ................
 8000040:	89 01 00 08 89 01 00 08 89 01 00 08 89 01 00 08     ................
 8000050:	89 01 00 08 89 01 00 08 89 01 00 08 89 01 00 08     ................
 8000060:	89 01 00 08 89 01 00 08 89 01 00 08 89 01 00 08     ................
 8000070:	89 01 00 08 89 01 00 08 89 01 00 08 89 01 00 08     ................
 8000080:	89 01 00 08 89 01 00 08 89 01 00 08 89 01 00 08     ................
 8000090:	89 01 00 08 89 01 00 08 89 01 00 08 89 01 00 08     ................
 80000a0:	89 01 00 08 89 01 00 08 89 01 00 08 89 01 00 08     ................
 80000b0:	89 01 00 08 89 01 00 08 89 01 00 08 89 01 00 08     ................
 80000c0:	89 01 00 08 89 01 00 08 89 01 00 08 89 01 00 08     ................
 80000d0:	89 01 00 08 89 01 00 08 89 01 00 08 89 01 00 08     ................
 80000e0:	89 01 00 08 89 01 00 08 89 01 00 08 89 01 00 08     ................
 80000f0:	89 01 00 08 89 01 00 08 89 01 00 08 89 01 00 08     ................
 8000100:	89 01 00 08 89 01 00 08 89 01 00 08 89 01 00 08     ................
 8000110:	89 01 00 08 89 01 00 08 89 01 00 08 89 01 00 08     ................
 8000120:	89 01 00 08 89 01 00 08 89 01 00 08 89 01 00 08     ................
 8000130:	89 01 00 08 89 01 00 08 89 01 00 08 89 01 00 08     ................
 8000140:	89 01 00 08 89 01 00 08 89 01 00 08 89 01 00 08     ................
 8000150:	89 01 00 08 89 01 00 08 89 01 00 08 89 01 00 08     ................
 8000160:	89 01 00 08 89 01 00 08 89 01 00 08 89 01 00 08     ................
 8000170:	89 01 00 08 89 01 00 08 89 01 00 08 89 01 00 08     ................
 8000180:	89 01 00 08 89 01 00 08                             ........

08000188 <resetDefaultIRQHandler>:
uint64_t common_stack[STACK_SIZE / 8] __attribute__ ((section(".stack"), aligned(8), used));
#define NVICE(arg_name) (uint32_t)(arg_name)

//////////////////////////////////////////////// BOOTLOADER ////////////////////////////////////////////////
static void __attribute__ ((no_instrument_function, interrupt, optimize("-O3"), section(".bootloader"))) resetDefaultIRQHandler(void)
{
 8000188:	4668      	mov	r0, sp
 800018a:	f020 0107 	bic.w	r1, r0, #7
 800018e:	468d      	mov	sp, r1
 8000190:	b401      	push	{r0}
 8000192:	e7fe      	b.n	8000192 <resetDefaultIRQHandler+0xa>

08000194 <Boot_Reset_Handler>:

extern uint32_t _new_image[2];
static void Boot_Reset_Handler(void)
{
  //Update FW if new one available
  updateFW();
 8000194:	f000 f83c 	bl	8000210 <updateFW>

  //Set new interrupt table
  SCB->VTOR = ((uint32_t)_new_image);
 8000198:	4b06      	ldr	r3, [pc, #24]	; (80001b4 <Boot_Reset_Handler+0x20>)
 800019a:	4a07      	ldr	r2, [pc, #28]	; (80001b8 <Boot_Reset_Handler+0x24>)
 800019c:	609a      	str	r2, [r3, #8]
  //Set new stack
  __set_MSP(_new_image[0]);
 800019e:	4b06      	ldr	r3, [pc, #24]	; (80001b8 <Boot_Reset_Handler+0x24>)
 80001a0:	681b      	ldr	r3, [r3, #0]
 80001a2:	461c      	mov	r4, r3

    \param [in]    topOfMainStack  Main Stack Pointer value to set
 */
__attribute__( ( always_inline ) ) __STATIC_INLINE void __set_MSP(uint32_t topOfMainStack)
{
  __ASM volatile ("MSR msp, %0\n" : : "r" (topOfMainStack) : "sp");
 80001a4:	f384 8808 	msr	MSP, r4

  //Proceed to main image by calling it's reset
  void (*mainImageReset)(void) = (void*)_new_image[1];
 80001a8:	4b03      	ldr	r3, [pc, #12]	; (80001b8 <Boot_Reset_Handler+0x24>)
 80001aa:	685b      	ldr	r3, [r3, #4]
 80001ac:	461c      	mov	r4, r3
  mainImageReset();
 80001ae:	47a0      	blx	r4
  while(1);
 80001b0:	e7fe      	b.n	80001b0 <Boot_Reset_Handler+0x1c>
 80001b2:	bf00      	nop
 80001b4:	e000ed00 	.word	0xe000ed00
 80001b8:	08008000 	.word	0x08008000

080001bc <cfgInit>:
  (void)cfgSizeTest;
  uint8_t *src = (uint8_t*)&cfgnvs;
  uint8_t *dst = (uint8_t*)&cfg;
  int idx;
  for(idx = 0; idx < sizeof(cfg); idx++)
    dst[idx] = src[idx];
 80001bc:	4a04      	ldr	r2, [pc, #16]	; (80001d0 <cfgInit+0x14>)
 80001be:	4805      	ldr	r0, [pc, #20]	; (80001d4 <cfgInit+0x18>)
{
  (void)cfgSizeTest;
  uint8_t *src = (uint8_t*)&cfgnvs;
  uint8_t *dst = (uint8_t*)&cfg;
  int idx;
  for(idx = 0; idx < sizeof(cfg); idx++)
 80001c0:	2300      	movs	r3, #0
    dst[idx] = src[idx];
 80001c2:	5c19      	ldrb	r1, [r3, r0]
 80001c4:	5499      	strb	r1, [r3, r2]
{
  (void)cfgSizeTest;
  uint8_t *src = (uint8_t*)&cfgnvs;
  uint8_t *dst = (uint8_t*)&cfg;
  int idx;
  for(idx = 0; idx < sizeof(cfg); idx++)
 80001c6:	3301      	adds	r3, #1
 80001c8:	f5b3 7f00 	cmp.w	r3, #512	; 0x200
 80001cc:	d1f9      	bne.n	80001c2 <cfgInit+0x6>
    dst[idx] = src[idx];
}
 80001ce:	4770      	bx	lr
 80001d0:	10001000 	.word	0x10001000
 80001d4:	08004000 	.word	0x08004000

080001d8 <cfgFlush>:
void cfgFlush(void)
{
 80001d8:	b5f8      	push	{r3, r4, r5, r6, r7, lr}
  FLASH_ClearFlag(FLASH_FLAG_OPERR | FLASH_FLAG_WRPERR | FLASH_FLAG_PGAERR | FLASH_FLAG_PGPERR | FLASH_FLAG_PGSERR );
 80001da:	20f2      	movs	r0, #242	; 0xf2
 80001dc:	f000 fb9c 	bl	8000918 <FLASH_ClearFlag>
  FLASH_Unlock();
 80001e0:	f000 fb8c 	bl	80008fc <FLASH_Unlock>
  FLASH_EraseSector(FLASH_Sector_1, VoltageRange_3);
 80001e4:	2102      	movs	r1, #2
 80001e6:	2008      	movs	r0, #8
  uint32_t *src = (uint32_t*)&cfg;
  uint32_t addr = (uint32_t)&cfgnvs;
  uint32_t eaddr = (uint32_t)&cfgnvs + sizeof(cfgnvs);
 80001e8:	4d07      	ldr	r5, [pc, #28]	; (8000208 <cfgFlush+0x30>)
 80001ea:	4f08      	ldr	r7, [pc, #32]	; (800020c <cfgFlush+0x34>)
}
void cfgFlush(void)
{
  FLASH_ClearFlag(FLASH_FLAG_OPERR | FLASH_FLAG_WRPERR | FLASH_FLAG_PGAERR | FLASH_FLAG_PGPERR | FLASH_FLAG_PGSERR );
  FLASH_Unlock();
  FLASH_EraseSector(FLASH_Sector_1, VoltageRange_3);
 80001ec:	f000 fbda 	bl	80009a4 <FLASH_EraseSector>
  uint32_t *src = (uint32_t*)&cfg;
  uint32_t addr = (uint32_t)&cfgnvs;
  uint32_t eaddr = (uint32_t)&cfgnvs + sizeof(cfgnvs);
  for(; addr < eaddr; addr+=4)
 80001f0:	2400      	movs	r4, #0
 80001f2:	f5a5 7600 	sub.w	r6, r5, #512	; 0x200
 80001f6:	19a0      	adds	r0, r4, r6
 80001f8:	4285      	cmp	r5, r0
 80001fa:	d904      	bls.n	8000206 <cfgFlush+0x2e>
    FLASH_ProgramWord(addr, *(src++));
 80001fc:	5939      	ldr	r1, [r7, r4]
 80001fe:	f000 fc25 	bl	8000a4c <FLASH_ProgramWord>
 8000202:	3404      	adds	r4, #4
 8000204:	e7f7      	b.n	80001f6 <cfgFlush+0x1e>
}
 8000206:	bdf8      	pop	{r3, r4, r5, r6, r7, pc}
 8000208:	08004200 	.word	0x08004200
 800020c:	10001000 	.word	0x10001000

08000210 <updateFW>:

uint8_t __attribute__((section(".storage")))flashStorage[0];
extern uint8_t _nvs[0];
void updateFW(void)
{
 8000210:	b5f8      	push	{r3, r4, r5, r6, r7, lr}
  cfgInit();
  if(cfg.fSize > 0)
 8000212:	4c23      	ldr	r4, [pc, #140]	; (80002a0 <updateFW+0x90>)

uint8_t __attribute__((section(".storage")))flashStorage[0];
extern uint8_t _nvs[0];
void updateFW(void)
{
  cfgInit();
 8000214:	f7ff ffd2 	bl	80001bc <cfgInit>
  if(cfg.fSize > 0)
 8000218:	6823      	ldr	r3, [r4, #0]
 800021a:	2b00      	cmp	r3, #0
 800021c:	dd3e      	ble.n	800029c <updateFW+0x8c>
    {
      uint32_t crc = crc32(0, flashStorage, cfg.fSize);
 800021e:	6822      	ldr	r2, [r4, #0]
 8000220:	4920      	ldr	r1, [pc, #128]	; (80002a4 <updateFW+0x94>)
 8000222:	2000      	movs	r0, #0
 8000224:	f000 f842 	bl	80002ac <crc32>
      if((int)crc != cfg.fCRC)
 8000228:	6863      	ldr	r3, [r4, #4]
 800022a:	4283      	cmp	r3, r0
 800022c:	d136      	bne.n	800029c <updateFW+0x8c>
        return;

      //Update FW
      FLASH_ClearFlag(FLASH_FLAG_OPERR | FLASH_FLAG_WRPERR | FLASH_FLAG_PGAERR | FLASH_FLAG_PGPERR | FLASH_FLAG_PGSERR );
 800022e:	20f2      	movs	r0, #242	; 0xf2
 8000230:	f000 fb72 	bl	8000918 <FLASH_ClearFlag>
      FLASH_Unlock();
 8000234:	f000 fb62 	bl	80008fc <FLASH_Unlock>
      FLASH_EraseSector(FLASH_Sector_1, VoltageRange_3);
 8000238:	2102      	movs	r1, #2
 800023a:	2008      	movs	r0, #8
 800023c:	f000 fbb2 	bl	80009a4 <FLASH_EraseSector>
      FLASH_EraseSector(FLASH_Sector_2, VoltageRange_3);
 8000240:	2102      	movs	r1, #2
 8000242:	2010      	movs	r0, #16
 8000244:	f000 fbae 	bl	80009a4 <FLASH_EraseSector>
      FLASH_EraseSector(FLASH_Sector_3, VoltageRange_3);
 8000248:	2102      	movs	r1, #2
 800024a:	2018      	movs	r0, #24
 800024c:	f000 fbaa 	bl	80009a4 <FLASH_EraseSector>
      FLASH_EraseSector(FLASH_Sector_4, VoltageRange_3);
 8000250:	2102      	movs	r1, #2
 8000252:	2020      	movs	r0, #32
 8000254:	f000 fba6 	bl	80009a4 <FLASH_EraseSector>
      FLASH_EraseSector(FLASH_Sector_5, VoltageRange_3);
 8000258:	2102      	movs	r1, #2
 800025a:	2028      	movs	r0, #40	; 0x28
 800025c:	f000 fba2 	bl	80009a4 <FLASH_EraseSector>
      FLASH_EraseSector(FLASH_Sector_6, VoltageRange_3);
 8000260:	2102      	movs	r1, #2
 8000262:	2030      	movs	r0, #48	; 0x30
 8000264:	f000 fb9e 	bl	80009a4 <FLASH_EraseSector>
      FLASH_EraseSector(FLASH_Sector_7, VoltageRange_3);
 8000268:	2102      	movs	r1, #2
 800026a:	2038      	movs	r0, #56	; 0x38
 800026c:	f000 fb9a 	bl	80009a4 <FLASH_EraseSector>
      uint32_t *src = (uint32_t*)(&flashStorage[16*1024]);//Omit bootloader
      uint32_t addr = (uint32_t)(&_nvs[0]);
      int num =  (cfg.fSize+3-16*1024)/4;
 8000270:	6823      	ldr	r3, [r4, #0]
 8000272:	4e0d      	ldr	r6, [pc, #52]	; (80002a8 <updateFW+0x98>)
      while(num--)
        {
          FLASH_ProgramWord(addr, *src);
 8000274:	4f0b      	ldr	r7, [pc, #44]	; (80002a4 <updateFW+0x94>)
 8000276:	f5a3 537f 	sub.w	r3, r3, #16320	; 0x3fc0
      FLASH_EraseSector(FLASH_Sector_6, VoltageRange_3);
      FLASH_EraseSector(FLASH_Sector_7, VoltageRange_3);
      uint32_t *src = (uint32_t*)(&flashStorage[16*1024]);//Omit bootloader
      uint32_t addr = (uint32_t)(&_nvs[0]);
      int num =  (cfg.fSize+3-16*1024)/4;
      while(num--)
 800027a:	2500      	movs	r5, #0
 800027c:	3b3d      	subs	r3, #61	; 0x3d
 800027e:	2404      	movs	r4, #4
 8000280:	fb93 f4f4 	sdiv	r4, r3, r4
 8000284:	00ab      	lsls	r3, r5, #2
 8000286:	42a5      	cmp	r5, r4
 8000288:	eb03 0006 	add.w	r0, r3, r6
 800028c:	d006      	beq.n	800029c <updateFW+0x8c>
        {
          FLASH_ProgramWord(addr, *src);
 800028e:	f503 4380 	add.w	r3, r3, #16384	; 0x4000
 8000292:	3501      	adds	r5, #1
 8000294:	58f9      	ldr	r1, [r7, r3]
 8000296:	f000 fbd9 	bl	8000a4c <FLASH_ProgramWord>
 800029a:	e7f3      	b.n	8000284 <updateFW+0x74>
 800029c:	bdf8      	pop	{r3, r4, r5, r6, r7, pc}
 800029e:	bf00      	nop
 80002a0:	10001000 	.word	0x10001000
 80002a4:	08080000 	.word	0x08080000
 80002a8:	08004000 	.word	0x08004000

080002ac <crc32>:
  while (size--) crc = arg_table[(crc ^ *p++) & 0xFF] ^ (crc >> 8);   \
  return (arg_invert)?crc ^ ~0U:crc;                                  \
  }


CRC_FUNC(32, crc32_tab, 1)
 80002ac:	b510      	push	{r4, lr}
 80002ae:	4c08      	ldr	r4, [pc, #32]	; (80002d0 <crc32+0x24>)
 80002b0:	43c0      	mvns	r0, r0
 80002b2:	440a      	add	r2, r1
 80002b4:	4291      	cmp	r1, r2
 80002b6:	d008      	beq.n	80002ca <crc32+0x1e>
 80002b8:	f811 3b01 	ldrb.w	r3, [r1], #1
 80002bc:	4043      	eors	r3, r0
 80002be:	b2db      	uxtb	r3, r3
 80002c0:	f854 3023 	ldr.w	r3, [r4, r3, lsl #2]
 80002c4:	ea83 2010 	eor.w	r0, r3, r0, lsr #8
 80002c8:	e7f4      	b.n	80002b4 <crc32+0x8>
 80002ca:	43c0      	mvns	r0, r0
 80002cc:	bd10      	pop	{r4, pc}
 80002ce:	bf00      	nop
 80002d0:	080002fc 	.word	0x080002fc

080002d4 <crc16>:
CRC_FUNC(16, crc16_tab, 0)
 80002d4:	b510      	push	{r4, lr}
 80002d6:	4c08      	ldr	r4, [pc, #32]	; (80002f8 <crc16+0x24>)
 80002d8:	440a      	add	r2, r1
 80002da:	4291      	cmp	r1, r2
 80002dc:	d00a      	beq.n	80002f4 <crc16+0x20>
 80002de:	f811 3b01 	ldrb.w	r3, [r1], #1
 80002e2:	4043      	eors	r3, r0
 80002e4:	b2db      	uxtb	r3, r3
 80002e6:	eb04 0343 	add.w	r3, r4, r3, lsl #1
 80002ea:	f8b3 3400 	ldrh.w	r3, [r3, #1024]	; 0x400
 80002ee:	ea83 2010 	eor.w	r0, r3, r0, lsr #8
 80002f2:	e7f2      	b.n	80002da <crc16+0x6>
 80002f4:	bd10      	pop	{r4, pc}
 80002f6:	bf00      	nop
 80002f8:	080002fc 	.word	0x080002fc

080002fc <crc32_tab>:
 80002fc:	00000000 77073096 ee0e612c 990951ba     .....0.w,a...Q..
 800030c:	076dc419 706af48f e963a535 9e6495a3     ..m...jp5.c...d.
 800031c:	0edb8832 79dcb8a4 e0d5e91e 97d2d988     2......y........
 800032c:	09b64c2b 7eb17cbd e7b82d07 90bf1d91     +L...|.~.-......
 800033c:	1db71064 6ab020f2 f3b97148 84be41de     d.... .jHq...A..
 800034c:	1adad47d 6ddde4eb f4d4b551 83d385c7     }......mQ.......
 800035c:	136c9856 646ba8c0 fd62f97a 8a65c9ec     V.l...kdz.b...e.
 800036c:	14015c4f 63066cd9 fa0f3d63 8d080df5     O\...l.cc=......
 800037c:	3b6e20c8 4c69105e d56041e4 a2677172     . n;^.iL.A`.rqg.
 800038c:	3c03e4d1 4b04d447 d20d85fd a50ab56b     ...<G..K....k...
 800039c:	35b5a8fa 42b2986c dbbbc9d6 acbcf940     ...5l..B....@...
 80003ac:	32d86ce3 45df5c75 dcd60dcf abd13d59     .l.2u\.E....Y=..
 80003bc:	26d930ac 51de003a c8d75180 bfd06116     .0.&:..Q.Q...a..
 80003cc:	21b4f4b5 56b3c423 cfba9599 b8bda50f     ...!#..V........
 80003dc:	2802b89e 5f058808 c60cd9b2 b10be924     ...(..._....$...
 80003ec:	2f6f7c87 58684c11 c1611dab b6662d3d     .|o/.LhX..a.=-f.
 80003fc:	76dc4190 01db7106 98d220bc efd5102a     .A.v.q... ..*...
 800040c:	71b18589 06b6b51f 9fbfe4a5 e8b8d433     ...q........3...
 800041c:	7807c9a2 0f00f934 9609a88e e10e9818     ...x4...........
 800042c:	7f6a0dbb 086d3d2d 91646c97 e6635c01     ..j.-=m..ld..\c.
 800043c:	6b6b51f4 1c6c6162 856530d8 f262004e     .Qkkbal..0e.N.b.
 800044c:	6c0695ed 1b01a57b 8208f4c1 f50fc457     ...l{.......W...
 800045c:	65b0d9c6 12b7e950 8bbeb8ea fcb9887c     ...eP.......|...
 800046c:	62dd1ddf 15da2d49 8cd37cf3 fbd44c65     ...bI-...|..eL..
 800047c:	4db26158 3ab551ce a3bc0074 d4bb30e2     Xa.M.Q.:t....0..
 800048c:	4adfa541 3dd895d7 a4d1c46d d3d6f4fb     A..J...=m.......
 800049c:	4369e96a 346ed9fc ad678846 da60b8d0     j.iC..n4F.g...`.
 80004ac:	44042d73 33031de5 aa0a4c5f dd0d7cc9     s-.D...3_L...|..
 80004bc:	5005713c 270241aa be0b1010 c90c2086     <q.P.A.'..... ..
 80004cc:	5768b525 206f85b3 b966d409 ce61e49f     %.hW..o ..f...a.
 80004dc:	5edef90e 29d9c998 b0d09822 c7d7a8b4     ...^...)".......
 80004ec:	59b33d17 2eb40d81 b7bd5c3b c0ba6cad     .=.Y....;\...l..
 80004fc:	edb88320 9abfb3b6 03b6e20c 74b1d29a      ..............t
 800050c:	ead54739 9dd277af 04db2615 73dc1683     9G...w...&.....s
 800051c:	e3630b12 94643b84 0d6d6a3e 7a6a5aa8     ..c..;d.>jm..Zjz
 800052c:	e40ecf0b 9309ff9d 0a00ae27 7d079eb1     ........'......}
 800053c:	f00f9344 8708a3d2 1e01f268 6906c2fe     D.......h......i
 800054c:	f762575d 806567cb 196c3671 6e6b06e7     ]Wb..ge.q6l...kn
 800055c:	fed41b76 89d32be0 10da7a5a 67dd4acc     v....+..Zz...J.g
 800056c:	f9b9df6f 8ebeeff9 17b7be43 60b08ed5     o.......C......`
 800057c:	d6d6a3e8 a1d1937e 38d8c2c4 4fdff252     ....~......8R..O
 800058c:	d1bb67f1 a6bc5767 3fb506dd 48b2364b     .g..gW.....?K6.H
 800059c:	d80d2bda af0a1b4c 36034af6 41047a60     .+..L....J.6`z.A
 80005ac:	df60efc3 a867df55 316e8eef 4669be79     ..`.U.g...n1y.iF
 80005bc:	cb61b38c bc66831a 256fd2a0 5268e236     ..a...f...o%6.hR
 80005cc:	cc0c7795 bb0b4703 220216b9 5505262f     .w...G....."/&.U
 80005dc:	c5ba3bbe b2bd0b28 2bb45a92 5cb36a04     .;..(....Z.+.j.\
 80005ec:	c2d7ffa7 b5d0cf31 2cd99e8b 5bdeae1d     ....1......,...[
 80005fc:	9b64c2b0 ec63f226 756aa39c 026d930a     ..d.&.c...ju..m.
 800060c:	9c0906a9 eb0e363f 72076785 05005713     ....?6...g.r.W..
 800061c:	95bf4a82 e2b87a14 7bb12bae 0cb61b38     .J...z...+.{8...
 800062c:	92d28e9b e5d5be0d 7cdcefb7 0bdbdf21     ...........|!...
 800063c:	86d3d2d4 f1d4e242 68ddb3f8 1fda836e     ....B......hn...
 800064c:	81be16cd f6b9265b 6fb077e1 18b74777     ....[&...w.owG..
 800065c:	88085ae6 ff0f6a70 66063bca 11010b5c     .Z..pj...;.f\...
 800066c:	8f659eff f862ae69 616bffd3 166ccf45     ..e.i.b...kaE.l.
 800067c:	a00ae278 d70dd2ee 4e048354 3903b3c2     x.......T..N...9
 800068c:	a7672661 d06016f7 4969474d 3e6e77db     a&g...`.MGiI.wn>
 800069c:	aed16a4a d9d65adc 40df0b66 37d83bf0     Jj...Z..f..@.;.7
 80006ac:	a9bcae53 debb9ec5 47b2cf7f 30b5ffe9     S..........G...0
 80006bc:	bdbdf21c cabac28a 53b39330 24b4a3a6     ........0..S...$
 80006cc:	bad03605 cdd70693 54de5729 23d967bf     .6......)W.T.g.#
 80006dc:	b3667a2e c4614ab8 5d681b02 2a6f2b94     .zf..Ja...h].+o*
 80006ec:	b40bbe37 c30c8ea1 5a05df1b 2d02ef8d     7..........Z...-

080006fc <crc16_tab>:
 80006fc:	c0c10000 0140c181 03c0c301 c2410280     ......@.......A.
 800070c:	06c0c601 c7410780 c5c10500 0440c481     ......A.......@.
 800071c:	0cc0cc01 cd410d80 cfc10f00 0e40ce81     ......A.......@.
 800072c:	cac10a00 0b40cb81 09c0c901 c8410880     ......@.......A.
 800073c:	18c0d801 d9411980 dbc11b00 1a40da81     ......A.......@.
 800074c:	dec11e00 1f40df81 1dc0dd01 dc411c80     ......@.......A.
 800075c:	d4c11400 1540d581 17c0d701 d6411680     ......@.......A.
 800076c:	12c0d201 d3411380 d1c11100 1040d081     ......A.......@.
 800077c:	30c0f001 f1413180 f3c13300 3240f281     ...0.1A..3....@2
 800078c:	f6c13600 3740f781 35c0f501 f4413480     .6....@7...5.4A.
 800079c:	fcc13c00 3d40fd81 3fc0ff01 fe413e80     .<....@=...?.>A.
 80007ac:	3ac0fa01 fb413b80 f9c13900 3840f881     ...:.;A..9....@8
 80007bc:	e8c12800 2940e981 2bc0eb01 ea412a80     .(....@)...+.*A.
 80007cc:	2ec0ee01 ef412f80 edc12d00 2c40ec81     ...../A..-....@,
 80007dc:	24c0e401 e5412580 e7c12700 2640e681     ...$.%A..'....@&
 80007ec:	e2c12200 2340e381 21c0e101 e0412080     ."....@#...!. A.
 80007fc:	60c0a001 a1416180 a3c16300 6240a281     ...`.aA..c....@b
 800080c:	a6c16600 6740a781 65c0a501 a4416480     .f....@g...e.dA.
 800081c:	acc16c00 6d40ad81 6fc0af01 ae416e80     .l....@m...o.nA.
 800082c:	6ac0aa01 ab416b80 a9c16900 6840a881     ...j.kA..i....@h
 800083c:	b8c17800 7940b981 7bc0bb01 ba417a80     .x....@y...{.zA.
 800084c:	7ec0be01 bf417f80 bdc17d00 7c40bc81     ...~..A..}....@|
 800085c:	74c0b401 b5417580 b7c17700 7640b681     ...t.uA..w....@v
 800086c:	b2c17200 7340b381 71c0b101 b0417080     .r....@s...q.pA.
 800087c:	90c15000 51409181 53c09301 92415280     .P....@Q...S.RA.
 800088c:	56c09601 97415780 95c15500 54409481     ...V.WA..U....@T
 800089c:	5cc09c01 9d415d80 9fc15f00 5e409e81     ...\.]A.._....@^
 80008ac:	9ac15a00 5b409b81 59c09901 98415880     .Z....@[...Y.XA.
 80008bc:	48c08801 89414980 8bc14b00 4a408a81     ...H.IA..K....@J
 80008cc:	8ec14e00 4f408f81 4dc08d01 8c414c80     .N....@O...M.LA.
 80008dc:	84c14400 45408581 47c08701 86414680     .D....@E...G.FA.
 80008ec:	42c08201 83414380 81c14100 40408081     ...B.CA..A....@@

080008fc <FLASH_Unlock>:
  * @param  None
  * @retval None
  */
void FLASH_Unlock(void)
{
  if((FLASH->CR & FLASH_CR_LOCK) != RESET)
 80008fc:	4b04      	ldr	r3, [pc, #16]	; (8000910 <FLASH_Unlock+0x14>)
 80008fe:	691a      	ldr	r2, [r3, #16]
 8000900:	2a00      	cmp	r2, #0
  {
    /* Authorize the FLASH Registers access */
    FLASH->KEYR = FLASH_KEY1;
 8000902:	bfbf      	itttt	lt
 8000904:	4a03      	ldrlt	r2, [pc, #12]	; (8000914 <FLASH_Unlock+0x18>)
 8000906:	605a      	strlt	r2, [r3, #4]
    FLASH->KEYR = FLASH_KEY2;
 8000908:	f102 3288 	addlt.w	r2, r2, #2290649224	; 0x88888888
 800090c:	605a      	strlt	r2, [r3, #4]
 800090e:	4770      	bx	lr
 8000910:	40023c00 	.word	0x40023c00
 8000914:	45670123 	.word	0x45670123

08000918 <FLASH_ClearFlag>:
  * @retval None
  */
void FLASH_ClearFlag(uint32_t FLASH_FLAG)
{
  /* Check the parameters */
  assert_param(IS_FLASH_CLEAR_FLAG(FLASH_FLAG));
 8000918:	f420 73f9 	bic.w	r3, r0, #498	; 0x1f2
 800091c:	f023 0301 	bic.w	r3, r3, #1
  *            @arg FLASH_FLAG_PGSERR: FLASH Programming Sequence error flag
  *            @arg FLASH_FLAG_RDERR: FLASH Read Protection error flag (STM32F42/43xxx and STM32F401xx devices)   
  * @retval None
  */
void FLASH_ClearFlag(uint32_t FLASH_FLAG)
{
 8000920:	b082      	sub	sp, #8
  /* Check the parameters */
  assert_param(IS_FLASH_CLEAR_FLAG(FLASH_FLAG));
 8000922:	b923      	cbnz	r3, 800092e <FLASH_ClearFlag+0x16>
 8000924:	b118      	cbz	r0, 800092e <FLASH_ClearFlag+0x16>
  
  /* Clear the flags */
  FLASH->SR = FLASH_FLAG;
 8000926:	4b05      	ldr	r3, [pc, #20]	; (800093c <FLASH_ClearFlag+0x24>)
 8000928:	60d8      	str	r0, [r3, #12]
}
 800092a:	b002      	add	sp, #8
 800092c:	4770      	bx	lr
  * @retval None
  */
void FLASH_ClearFlag(uint32_t FLASH_FLAG)
{
  /* Check the parameters */
  assert_param(IS_FLASH_CLEAR_FLAG(FLASH_FLAG));
 800092e:	2301      	movs	r3, #1
 8000930:	9301      	str	r3, [sp, #4]
 8000932:	9b01      	ldr	r3, [sp, #4]
 8000934:	2b00      	cmp	r3, #0
 8000936:	d1fc      	bne.n	8000932 <FLASH_ClearFlag+0x1a>
 8000938:	e7f5      	b.n	8000926 <FLASH_ClearFlag+0xe>
 800093a:	bf00      	nop
 800093c:	40023c00 	.word	0x40023c00

08000940 <FLASH_GetStatus>:
  */
FLASH_Status FLASH_GetStatus(void)
{
  FLASH_Status flashstatus = FLASH_COMPLETE;
  
  if((FLASH->SR & FLASH_FLAG_BSY) == FLASH_FLAG_BSY) 
 8000940:	4b0e      	ldr	r3, [pc, #56]	; (800097c <FLASH_GetStatus+0x3c>)
 8000942:	68da      	ldr	r2, [r3, #12]
 8000944:	03d2      	lsls	r2, r2, #15
 8000946:	d410      	bmi.n	800096a <FLASH_GetStatus+0x2a>
  {
    flashstatus = FLASH_BUSY;
  }
  else 
  {  
    if((FLASH->SR & FLASH_FLAG_WRPERR) != (uint32_t)0x00)
 8000948:	68da      	ldr	r2, [r3, #12]
 800094a:	06d1      	lsls	r1, r2, #27
 800094c:	d40f      	bmi.n	800096e <FLASH_GetStatus+0x2e>
    { 
      flashstatus = FLASH_ERROR_WRP;
    }
    else
    {
      if((FLASH->SR & FLASH_FLAG_RDERR) != (uint32_t)0x00)
 800094e:	68da      	ldr	r2, [r3, #12]
 8000950:	05d2      	lsls	r2, r2, #23
 8000952:	d40e      	bmi.n	8000972 <FLASH_GetStatus+0x32>
      { 
        flashstatus = FLASH_ERROR_RD;
      } 
      else 
      {
        if((FLASH->SR & (uint32_t)0xEF) != (uint32_t)0x00)
 8000954:	68da      	ldr	r2, [r3, #12]
 8000956:	f012 0fef 	tst.w	r2, #239	; 0xef
 800095a:	d10c      	bne.n	8000976 <FLASH_GetStatus+0x36>
        {
          flashstatus = FLASH_ERROR_PROGRAM; 
        }
        else
        {
          if((FLASH->SR & FLASH_FLAG_OPERR) != (uint32_t)0x00)
 800095c:	68db      	ldr	r3, [r3, #12]
 800095e:	f013 0f02 	tst.w	r3, #2
          {
            flashstatus = FLASH_ERROR_OPERATION;
          }
          else
          {
            flashstatus = FLASH_COMPLETE;
 8000962:	bf14      	ite	ne
 8000964:	2008      	movne	r0, #8
 8000966:	2009      	moveq	r0, #9
 8000968:	4770      	bx	lr
{
  FLASH_Status flashstatus = FLASH_COMPLETE;
  
  if((FLASH->SR & FLASH_FLAG_BSY) == FLASH_FLAG_BSY) 
  {
    flashstatus = FLASH_BUSY;
 800096a:	2001      	movs	r0, #1
 800096c:	4770      	bx	lr
  }
  else 
  {  
    if((FLASH->SR & FLASH_FLAG_WRPERR) != (uint32_t)0x00)
    { 
      flashstatus = FLASH_ERROR_WRP;
 800096e:	2006      	movs	r0, #6
 8000970:	4770      	bx	lr
    }
    else
    {
      if((FLASH->SR & FLASH_FLAG_RDERR) != (uint32_t)0x00)
      { 
        flashstatus = FLASH_ERROR_RD;
 8000972:	2002      	movs	r0, #2
 8000974:	4770      	bx	lr
      } 
      else 
      {
        if((FLASH->SR & (uint32_t)0xEF) != (uint32_t)0x00)
        {
          flashstatus = FLASH_ERROR_PROGRAM; 
 8000976:	2007      	movs	r0, #7
      }
    }
  }
  /* Return the FLASH Status */
  return flashstatus;
}
 8000978:	4770      	bx	lr
 800097a:	bf00      	nop
 800097c:	40023c00 	.word	0x40023c00

08000980 <FLASH_WaitForLastOperation>:
  * @param  None
  * @retval FLASH Status: The returned value can be: FLASH_BUSY, FLASH_ERROR_PROGRAM,
  *                       FLASH_ERROR_WRP, FLASH_ERROR_OPERATION or FLASH_COMPLETE.
  */
FLASH_Status FLASH_WaitForLastOperation(void)
{ 
 8000980:	b507      	push	{r0, r1, r2, lr}
  __IO FLASH_Status status = FLASH_COMPLETE;
 8000982:	2309      	movs	r3, #9
 8000984:	f88d 3007 	strb.w	r3, [sp, #7]
  /* Wait for the FLASH operation to complete by polling on BUSY flag to be reset.
     Even if the FLASH operation fails, the BUSY flag will be reset and an error
     flag will be set */
  while(status == FLASH_BUSY)
  {
    status = FLASH_GetStatus();
 8000988:	f7ff ffda 	bl	8000940 <FLASH_GetStatus>
 800098c:	f88d 0007 	strb.w	r0, [sp, #7]
  status = FLASH_GetStatus();

  /* Wait for the FLASH operation to complete by polling on BUSY flag to be reset.
     Even if the FLASH operation fails, the BUSY flag will be reset and an error
     flag will be set */
  while(status == FLASH_BUSY)
 8000990:	f89d 3007 	ldrb.w	r3, [sp, #7]
 8000994:	2b01      	cmp	r3, #1
 8000996:	d0f7      	beq.n	8000988 <FLASH_WaitForLastOperation+0x8>
  {
    status = FLASH_GetStatus();
  }
  /* Return the operation status */
  return status;
 8000998:	f89d 0007 	ldrb.w	r0, [sp, #7]
}
 800099c:	b003      	add	sp, #12
 800099e:	f85d fb04 	ldr.w	pc, [sp], #4
	...

080009a4 <FLASH_EraseSector>:
{
  uint32_t tmp_psize = 0x0;
  FLASH_Status status = FLASH_COMPLETE;

  /* Check the parameters */
  assert_param(IS_FLASH_SECTOR(FLASH_Sector));
 80009a4:	f030 0318 	bics.w	r3, r0, #24
  *       
  * @retval FLASH Status: The returned value can be: FLASH_BUSY, FLASH_ERROR_PROGRAM,
  *                       FLASH_ERROR_WRP, FLASH_ERROR_OPERATION or FLASH_COMPLETE.
  */
FLASH_Status FLASH_EraseSector(uint32_t FLASH_Sector, uint8_t VoltageRange)
{
 80009a8:	b573      	push	{r0, r1, r4, r5, r6, lr}
 80009aa:	4606      	mov	r6, r0
  uint32_t tmp_psize = 0x0;
  FLASH_Status status = FLASH_COMPLETE;

  /* Check the parameters */
  assert_param(IS_FLASH_SECTOR(FLASH_Sector));
 80009ac:	d104      	bne.n	80009b8 <FLASH_EraseSector+0x14>
  assert_param(IS_VOLTAGERANGE(VoltageRange));
 80009ae:	2903      	cmp	r1, #3
 80009b0:	d916      	bls.n	80009e0 <FLASH_EraseSector+0x3c>
 80009b2:	2301      	movs	r3, #1
 80009b4:	9301      	str	r3, [sp, #4]
 80009b6:	e00f      	b.n	80009d8 <FLASH_EraseSector+0x34>
{
  uint32_t tmp_psize = 0x0;
  FLASH_Status status = FLASH_COMPLETE;

  /* Check the parameters */
  assert_param(IS_FLASH_SECTOR(FLASH_Sector));
 80009b8:	2b20      	cmp	r3, #32
 80009ba:	d0f8      	beq.n	80009ae <FLASH_EraseSector+0xa>
 80009bc:	2b40      	cmp	r3, #64	; 0x40
 80009be:	d0f6      	beq.n	80009ae <FLASH_EraseSector+0xa>
 80009c0:	2b80      	cmp	r3, #128	; 0x80
 80009c2:	d0f4      	beq.n	80009ae <FLASH_EraseSector+0xa>
 80009c4:	2ba0      	cmp	r3, #160	; 0xa0
 80009c6:	d0f2      	beq.n	80009ae <FLASH_EraseSector+0xa>
 80009c8:	2bc0      	cmp	r3, #192	; 0xc0
 80009ca:	d0f0      	beq.n	80009ae <FLASH_EraseSector+0xa>
 80009cc:	2301      	movs	r3, #1
 80009ce:	9300      	str	r3, [sp, #0]
 80009d0:	9b00      	ldr	r3, [sp, #0]
 80009d2:	2b00      	cmp	r3, #0
 80009d4:	d1fc      	bne.n	80009d0 <FLASH_EraseSector+0x2c>
 80009d6:	e7ea      	b.n	80009ae <FLASH_EraseSector+0xa>
  assert_param(IS_VOLTAGERANGE(VoltageRange));
 80009d8:	9b01      	ldr	r3, [sp, #4]
 80009da:	2b00      	cmp	r3, #0
 80009dc:	d1fc      	bne.n	80009d8 <FLASH_EraseSector+0x34>
 80009de:	e002      	b.n	80009e6 <FLASH_EraseSector+0x42>
  
  if(VoltageRange == VoltageRange_1)
 80009e0:	b159      	cbz	r1, 80009fa <FLASH_EraseSector+0x56>
  {
     tmp_psize = FLASH_PSIZE_BYTE;
  }
  else if(VoltageRange == VoltageRange_2)
 80009e2:	2901      	cmp	r1, #1
 80009e4:	d006      	beq.n	80009f4 <FLASH_EraseSector+0x50>
  {
    tmp_psize = FLASH_PSIZE_HALF_WORD;
  }
  else if(VoltageRange == VoltageRange_3)
  {
    tmp_psize = FLASH_PSIZE_WORD;
 80009e6:	2902      	cmp	r1, #2
 80009e8:	bf14      	ite	ne
 80009ea:	f44f 7540 	movne.w	r5, #768	; 0x300
 80009ee:	f44f 7500 	moveq.w	r5, #512	; 0x200
 80009f2:	e003      	b.n	80009fc <FLASH_EraseSector+0x58>
  {
     tmp_psize = FLASH_PSIZE_BYTE;
  }
  else if(VoltageRange == VoltageRange_2)
  {
    tmp_psize = FLASH_PSIZE_HALF_WORD;
 80009f4:	f44f 7580 	mov.w	r5, #256	; 0x100
 80009f8:	e000      	b.n	80009fc <FLASH_EraseSector+0x58>
  assert_param(IS_FLASH_SECTOR(FLASH_Sector));
  assert_param(IS_VOLTAGERANGE(VoltageRange));
  
  if(VoltageRange == VoltageRange_1)
  {
     tmp_psize = FLASH_PSIZE_BYTE;
 80009fa:	460d      	mov	r5, r1
  else
  {
    tmp_psize = FLASH_PSIZE_DOUBLE_WORD;
  }
  /* Wait for last operation to be completed */
  status = FLASH_WaitForLastOperation();
 80009fc:	f7ff ffc0 	bl	8000980 <FLASH_WaitForLastOperation>
  
  if(status == FLASH_COMPLETE)
 8000a00:	2809      	cmp	r0, #9
 8000a02:	d11e      	bne.n	8000a42 <FLASH_EraseSector+0x9e>
  { 
    /* if the previous operation is completed, proceed to erase the sector */
    FLASH->CR &= CR_PSIZE_MASK;
 8000a04:	4c10      	ldr	r4, [pc, #64]	; (8000a48 <FLASH_EraseSector+0xa4>)
 8000a06:	6923      	ldr	r3, [r4, #16]
 8000a08:	f423 7340 	bic.w	r3, r3, #768	; 0x300
 8000a0c:	6123      	str	r3, [r4, #16]
    FLASH->CR |= tmp_psize;
 8000a0e:	6921      	ldr	r1, [r4, #16]
 8000a10:	4329      	orrs	r1, r5
 8000a12:	6121      	str	r1, [r4, #16]
    FLASH->CR &= SECTOR_MASK;
 8000a14:	6923      	ldr	r3, [r4, #16]
 8000a16:	f023 03f8 	bic.w	r3, r3, #248	; 0xf8
 8000a1a:	6123      	str	r3, [r4, #16]
    FLASH->CR |= FLASH_CR_SER | FLASH_Sector;
 8000a1c:	6923      	ldr	r3, [r4, #16]
 8000a1e:	f043 0302 	orr.w	r3, r3, #2
 8000a22:	431e      	orrs	r6, r3
 8000a24:	6126      	str	r6, [r4, #16]
    FLASH->CR |= FLASH_CR_STRT;
 8000a26:	6923      	ldr	r3, [r4, #16]
 8000a28:	f443 3380 	orr.w	r3, r3, #65536	; 0x10000
 8000a2c:	6123      	str	r3, [r4, #16]
    
    /* Wait for last operation to be completed */
    status = FLASH_WaitForLastOperation();
 8000a2e:	f7ff ffa7 	bl	8000980 <FLASH_WaitForLastOperation>
    
    /* if the erase operation is completed, disable the SER Bit */
    FLASH->CR &= (~FLASH_CR_SER);
 8000a32:	6923      	ldr	r3, [r4, #16]
 8000a34:	f023 0302 	bic.w	r3, r3, #2
 8000a38:	6123      	str	r3, [r4, #16]
    FLASH->CR &= SECTOR_MASK; 
 8000a3a:	6923      	ldr	r3, [r4, #16]
 8000a3c:	f023 03f8 	bic.w	r3, r3, #248	; 0xf8
 8000a40:	6123      	str	r3, [r4, #16]
  }
  /* Return the Erase Status */
  return status;
}
 8000a42:	b002      	add	sp, #8
 8000a44:	bd70      	pop	{r4, r5, r6, pc}
 8000a46:	bf00      	nop
 8000a48:	40023c00 	.word	0x40023c00

08000a4c <FLASH_ProgramWord>:
FLASH_Status FLASH_ProgramWord(uint32_t Address, uint32_t Data)
{
  FLASH_Status status = FLASH_COMPLETE;

  /* Check the parameters */
  assert_param(IS_FLASH_ADDRESS(Address));
 8000a4c:	4b18      	ldr	r3, [pc, #96]	; (8000ab0 <FLASH_ProgramWord+0x64>)
 8000a4e:	f100 4278 	add.w	r2, r0, #4160749568	; 0xf8000000
 8000a52:	429a      	cmp	r2, r3
  * @param  Data: specifies the data to be programmed.
  * @retval FLASH Status: The returned value can be: FLASH_BUSY, FLASH_ERROR_PROGRAM,
  *                       FLASH_ERROR_WRP, FLASH_ERROR_OPERATION or FLASH_COMPLETE.
  */
FLASH_Status FLASH_ProgramWord(uint32_t Address, uint32_t Data)
{
 8000a54:	b573      	push	{r0, r1, r4, r5, r6, lr}
 8000a56:	4605      	mov	r5, r0
 8000a58:	460e      	mov	r6, r1
  FLASH_Status status = FLASH_COMPLETE;

  /* Check the parameters */
  assert_param(IS_FLASH_ADDRESS(Address));
 8000a5a:	d818      	bhi.n	8000a8e <FLASH_ProgramWord+0x42>

  /* Wait for last operation to be completed */
  status = FLASH_WaitForLastOperation();
 8000a5c:	f7ff ff90 	bl	8000980 <FLASH_WaitForLastOperation>
  
  if(status == FLASH_COMPLETE)
 8000a60:	2809      	cmp	r0, #9
 8000a62:	d122      	bne.n	8000aaa <FLASH_ProgramWord+0x5e>
  {
    /* if the previous operation is completed, proceed to program the new data */
    FLASH->CR &= CR_PSIZE_MASK;
 8000a64:	4c13      	ldr	r4, [pc, #76]	; (8000ab4 <FLASH_ProgramWord+0x68>)
 8000a66:	6923      	ldr	r3, [r4, #16]
 8000a68:	f423 7340 	bic.w	r3, r3, #768	; 0x300
 8000a6c:	6123      	str	r3, [r4, #16]
    FLASH->CR |= FLASH_PSIZE_WORD;
 8000a6e:	6923      	ldr	r3, [r4, #16]
 8000a70:	f443 7300 	orr.w	r3, r3, #512	; 0x200
 8000a74:	6123      	str	r3, [r4, #16]
    FLASH->CR |= FLASH_CR_PG;
 8000a76:	6923      	ldr	r3, [r4, #16]
 8000a78:	f043 0301 	orr.w	r3, r3, #1
 8000a7c:	6123      	str	r3, [r4, #16]
  
    *(__IO uint32_t*)Address = Data;
 8000a7e:	602e      	str	r6, [r5, #0]
        
    /* Wait for last operation to be completed */
    status = FLASH_WaitForLastOperation();
 8000a80:	f7ff ff7e 	bl	8000980 <FLASH_WaitForLastOperation>

    /* if the program operation is completed, disable the PG Bit */
    FLASH->CR &= (~FLASH_CR_PG);
 8000a84:	6923      	ldr	r3, [r4, #16]
 8000a86:	f023 0301 	bic.w	r3, r3, #1
 8000a8a:	6123      	str	r3, [r4, #16]
 8000a8c:	e00d      	b.n	8000aaa <FLASH_ProgramWord+0x5e>
FLASH_Status FLASH_ProgramWord(uint32_t Address, uint32_t Data)
{
  FLASH_Status status = FLASH_COMPLETE;

  /* Check the parameters */
  assert_param(IS_FLASH_ADDRESS(Address));
 8000a8e:	f100 4360 	add.w	r3, r0, #3758096384	; 0xe0000000
 8000a92:	f503 4308 	add.w	r3, r3, #34816	; 0x8800
 8000a96:	f240 220e 	movw	r2, #526	; 0x20e
 8000a9a:	4293      	cmp	r3, r2
 8000a9c:	d9de      	bls.n	8000a5c <FLASH_ProgramWord+0x10>
 8000a9e:	2301      	movs	r3, #1
 8000aa0:	9301      	str	r3, [sp, #4]
 8000aa2:	9b01      	ldr	r3, [sp, #4]
 8000aa4:	2b00      	cmp	r3, #0
 8000aa6:	d1fc      	bne.n	8000aa2 <FLASH_ProgramWord+0x56>
 8000aa8:	e7d8      	b.n	8000a5c <FLASH_ProgramWord+0x10>
    /* if the program operation is completed, disable the PG Bit */
    FLASH->CR &= (~FLASH_CR_PG);
  } 
  /* Return the Program Status */
  return status;
}
 8000aaa:	b002      	add	sp, #8
 8000aac:	bd70      	pop	{r4, r5, r6, pc}
 8000aae:	bf00      	nop
 8000ab0:	000ffffe 	.word	0x000ffffe
 8000ab4:	40023c00 	.word	0x40023c00

Disassembly of section .text:

08008000 <_new_image>:
 8008000:	10001000 	.word	0x10001000
 8008004:	080081e5 	.word	0x080081e5
 8008008:	08008299 	.word	0x08008299
 800800c:	08008449 	.word	0x08008449
 8008010:	08008299 	.word	0x08008299
 8008014:	08008299 	.word	0x08008299
 8008018:	08008299 	.word	0x08008299
 800801c:	08008259 	.word	0x08008259
 8008020:	08008259 	.word	0x08008259
 8008024:	08008259 	.word	0x08008259
 8008028:	08008259 	.word	0x08008259
 800802c:	0800a0c9 	.word	0x0800a0c9
 8008030:	08008299 	.word	0x08008299
 8008034:	08008259 	.word	0x08008259
 8008038:	0800a16d 	.word	0x0800a16d
 800803c:	08008331 	.word	0x08008331
 8008040:	08008259 	.word	0x08008259
 8008044:	08008259 	.word	0x08008259
 8008048:	08008259 	.word	0x08008259
 800804c:	08008259 	.word	0x08008259
 8008050:	08008259 	.word	0x08008259
 8008054:	08008259 	.word	0x08008259
 8008058:	08008259 	.word	0x08008259
 800805c:	08008259 	.word	0x08008259
 8008060:	08008259 	.word	0x08008259
 8008064:	08008259 	.word	0x08008259
 8008068:	08008259 	.word	0x08008259
 800806c:	08008259 	.word	0x08008259
 8008070:	08008259 	.word	0x08008259
 8008074:	08008259 	.word	0x08008259
 8008078:	08008259 	.word	0x08008259
 800807c:	08008259 	.word	0x08008259
 8008080:	08008259 	.word	0x08008259
 8008084:	08008259 	.word	0x08008259
 8008088:	08008259 	.word	0x08008259
 800808c:	08008259 	.word	0x08008259
 8008090:	08008259 	.word	0x08008259
 8008094:	08008259 	.word	0x08008259
 8008098:	08008259 	.word	0x08008259
 800809c:	08008259 	.word	0x08008259
 80080a0:	08008259 	.word	0x08008259
 80080a4:	08008259 	.word	0x08008259
 80080a8:	08008259 	.word	0x08008259
 80080ac:	08008259 	.word	0x08008259
 80080b0:	08008259 	.word	0x08008259
 80080b4:	08008259 	.word	0x08008259
 80080b8:	08008259 	.word	0x08008259
 80080bc:	08008259 	.word	0x08008259
 80080c0:	08008259 	.word	0x08008259
 80080c4:	08008259 	.word	0x08008259
 80080c8:	08008259 	.word	0x08008259
 80080cc:	08008259 	.word	0x08008259
 80080d0:	08008259 	.word	0x08008259
 80080d4:	08008259 	.word	0x08008259
 80080d8:	08008259 	.word	0x08008259
 80080dc:	08008259 	.word	0x08008259
 80080e0:	08008259 	.word	0x08008259
 80080e4:	08008259 	.word	0x08008259
 80080e8:	08008259 	.word	0x08008259
 80080ec:	08008259 	.word	0x08008259
 80080f0:	08008259 	.word	0x08008259
 80080f4:	08008259 	.word	0x08008259
 80080f8:	08008259 	.word	0x08008259
 80080fc:	08008259 	.word	0x08008259
 8008100:	08008259 	.word	0x08008259
 8008104:	08008259 	.word	0x08008259
 8008108:	08008259 	.word	0x08008259
 800810c:	08008259 	.word	0x08008259
 8008110:	08008259 	.word	0x08008259
 8008114:	08008259 	.word	0x08008259
 8008118:	08008259 	.word	0x08008259
 800811c:	08008259 	.word	0x08008259
 8008120:	08008259 	.word	0x08008259
 8008124:	08008259 	.word	0x08008259
 8008128:	08008259 	.word	0x08008259
 800812c:	08008259 	.word	0x08008259
 8008130:	08008259 	.word	0x08008259
 8008134:	08008259 	.word	0x08008259
 8008138:	08008259 	.word	0x08008259
 800813c:	08008259 	.word	0x08008259
 8008140:	08008259 	.word	0x08008259
 8008144:	08008259 	.word	0x08008259
 8008148:	08008259 	.word	0x08008259
 800814c:	08008259 	.word	0x08008259
 8008150:	08008259 	.word	0x08008259
 8008154:	08008259 	.word	0x08008259
 8008158:	08008259 	.word	0x08008259
 800815c:	08008259 	.word	0x08008259
 8008160:	08008259 	.word	0x08008259
 8008164:	08008259 	.word	0x08008259
 8008168:	08008259 	.word	0x08008259
 800816c:	08008259 	.word	0x08008259
 8008170:	08008259 	.word	0x08008259
 8008174:	08008259 	.word	0x08008259
 8008178:	08008259 	.word	0x08008259
 800817c:	08008259 	.word	0x08008259
 8008180:	08008259 	.word	0x08008259
 8008184:	08008259 	.word	0x08008259

08008188 <_init>:
 8008188:	b5f8      	push	{r3, r4, r5, r6, r7, lr}
 800818a:	bf00      	nop
 800818c:	bcf8      	pop	{r3, r4, r5, r6, r7}
 800818e:	bc08      	pop	{r3}
 8008190:	469e      	mov	lr, r3
 8008192:	4770      	bx	lr

08008194 <_fini>:
 8008194:	b5f8      	push	{r3, r4, r5, r6, r7, lr}
 8008196:	bf00      	nop
 8008198:	bcf8      	pop	{r3, r4, r5, r6, r7}
 800819a:	bc08      	pop	{r3}
 800819c:	469e      	mov	lr, r3
 800819e:	4770      	bx	lr

080081a0 <systemInit>:


///////////////////////////////////////////////////
/*-----------------------------------------------------------*/
void systemInit(void)
{
 80081a0:	b508      	push	{r3, lr}
  hwBoardInit();
 80081a2:	f007 fd41 	bl	800fc28 <hwBoardInit>

  void messageProcessorInit(void);
  messageProcessorInit();
 80081a6:	f000 fb11 	bl	80087cc <messageProcessorInit>

  /* Initialize tasks */
  LEDInit();
 80081aa:	f004 feb9 	bl	800cf20 <LEDInit>
  ADCInit();
 80081ae:	f005 f9db 	bl	800d568 <ADCInit>
  spiHelperInit();
 80081b2:	f003 ffbd 	bl	800c130 <spiHelperInit>
  CommunicatorInit();
 80081b6:	f003 f88b 	bl	800b2d0 <CommunicatorInit>
  HWCommInit();
 80081ba:	f003 fce7 	bl	800bb8c <HWCommInit>
  debugInit();
 80081be:	f006 fde7 	bl	800ed90 <debugInit>
  tasksInitEnd();
}
 80081c2:	e8bd 4008 	ldmia.w	sp!, {r3, lr}
  ADCInit();
  spiHelperInit();
  CommunicatorInit();
  HWCommInit();
  debugInit();
  tasksInitEnd();
 80081c6:	f000 b9c1 	b.w	800854c <tasksInitEnd>

080081ca <main>:
}
int main(void)
{
 80081ca:	b508      	push	{r3, lr}

  /* Set up the clocks and memory interface. */
  /* Initialize HW ports, ADCs. LEDs */
  NVIC_PriorityGroupConfig( NVIC_PriorityGroup_4 );
 80081cc:	f44f 7040 	mov.w	r0, #768	; 0x300
 80081d0:	f008 fdba 	bl	8010d48 <NVIC_PriorityGroupConfig>
  SystemInit();
 80081d4:	f008 fd6a 	bl	8010cac <SystemInit>
  watchdogInit();
 80081d8:	f006 fe5e 	bl	800ee98 <watchdogInit>

  vTaskStartScheduler();
 80081dc:	f002 fa30 	bl	800a640 <vTaskStartScheduler>
 80081e0:	e7fe      	b.n	80081e0 <main+0x16>
	...

080081e4 <Reset_Handler>:


void Reset_Handler(void)
{
#ifdef DEBUG
  CoreDebug->DEMCR |= CoreDebug_DEMCR_TRCENA_Msk;
 80081e4:	4a12      	ldr	r2, [pc, #72]	; (8008230 <Reset_Handler+0x4c>)

  //Move initialization data int RAM
  uint32_t *dst = (uint32_t *) & __sdata;
  uint32_t *src = (uint32_t *) & __etext;

  while (dst < (uint32_t *) & __edata)
 80081e6:	4913      	ldr	r1, [pc, #76]	; (8008234 <Reset_Handler+0x50>)


void Reset_Handler(void)
{
#ifdef DEBUG
  CoreDebug->DEMCR |= CoreDebug_DEMCR_TRCENA_Msk;
 80081e8:	68d3      	ldr	r3, [r2, #12]
 80081ea:	f043 7380 	orr.w	r3, r3, #16777216	; 0x1000000
 80081ee:	60d3      	str	r3, [r2, #12]
 80081f0:	4a11      	ldr	r2, [pc, #68]	; (8008238 <Reset_Handler+0x54>)
 80081f2:	4b12      	ldr	r3, [pc, #72]	; (800823c <Reset_Handler+0x58>)

  //Move initialization data int RAM
  uint32_t *dst = (uint32_t *) & __sdata;
  uint32_t *src = (uint32_t *) & __etext;

  while (dst < (uint32_t *) & __edata)
 80081f4:	428b      	cmp	r3, r1
 80081f6:	d204      	bcs.n	8008202 <Reset_Handler+0x1e>
    *(dst++) = *(src++);
 80081f8:	f852 0f04 	ldr.w	r0, [r2, #4]!
 80081fc:	f843 0b04 	str.w	r0, [r3], #4
 8008200:	e7f8      	b.n	80081f4 <Reset_Handler+0x10>

  int irq;

  for (irq = 0; irq < IRQ_HANDLER_POOL; irq++)
    pool[irq].next = &pool[irq + 1];
 8008202:	490f      	ldr	r1, [pc, #60]	; (8008240 <Reset_Handler+0x5c>)
 8008204:	2300      	movs	r3, #0
 8008206:	f103 0208 	add.w	r2, r3, #8
 800820a:	1888      	adds	r0, r1, r2
  while (dst < (uint32_t *) & __edata)
    *(dst++) = *(src++);

  int irq;

  for (irq = 0; irq < IRQ_HANDLER_POOL; irq++)
 800820c:	f5b2 7f44 	cmp.w	r2, #784	; 0x310
    pool[irq].next = &pool[irq + 1];
 8008210:	5058      	str	r0, [r3, r1]
 8008212:	4613      	mov	r3, r2
 8008214:	4a0b      	ldr	r2, [pc, #44]	; (8008244 <Reset_Handler+0x60>)
  while (dst < (uint32_t *) & __edata)
    *(dst++) = *(src++);

  int irq;

  for (irq = 0; irq < IRQ_HANDLER_POOL; irq++)
 8008216:	d1f6      	bne.n	8008206 <Reset_Handler+0x22>
    pool[irq].next = &pool[irq + 1];
  pool[IRQ_HANDLER_POOL - 1].next = NULL;
 8008218:	2300      	movs	r3, #0
 800821a:	f8c2 3490 	str.w	r3, [r2, #1168]	; 0x490
  for (irq = 0; irq < ISR_SIZE; irq++)
    handlers[irq] = NULL;
 800821e:	4619      	mov	r1, r3
 8008220:	f842 1023 	str.w	r1, [r2, r3, lsl #2]
  int irq;

  for (irq = 0; irq < IRQ_HANDLER_POOL; irq++)
    pool[irq].next = &pool[irq + 1];
  pool[IRQ_HANDLER_POOL - 1].next = NULL;
  for (irq = 0; irq < ISR_SIZE; irq++)
 8008224:	3301      	adds	r3, #1
 8008226:	2b62      	cmp	r3, #98	; 0x62
 8008228:	d1fa      	bne.n	8008220 <Reset_Handler+0x3c>
    handlers[irq] = NULL;

  main();
 800822a:	f7ff bfce 	b.w	80081ca <main>
 800822e:	bf00      	nop
 8008230:	e000edf0 	.word	0xe000edf0
 8008234:	2001af23 	.word	0x2001af23
 8008238:	0801e590 	.word	0x0801e590
 800823c:	2001a1d0 	.word	0x2001a1d0
 8008240:	20018188 	.word	0x20018188
 8008244:	20018000 	.word	0x20018000

08008248 <amIInIRQ>:
}

static int irqRef = 0;
int amIInIRQ(void)
{
  return (irqRef != 0);
 8008248:	4b02      	ldr	r3, [pc, #8]	; (8008254 <amIInIRQ+0xc>)
 800824a:	6818      	ldr	r0, [r3, #0]
}
 800824c:	3000      	adds	r0, #0
 800824e:	bf18      	it	ne
 8008250:	2001      	movne	r0, #1
 8008252:	4770      	bx	lr
 8008254:	2001ac08 	.word	0x2001ac08

08008258 <IRQHandler>:

static void __attribute__ ((no_instrument_function, interrupt, optimize("-O3"))) IRQHandler(void)
{
 8008258:	4668      	mov	r0, sp
 800825a:	f020 0107 	bic.w	r1, r0, #7
 800825e:	468d      	mov	sp, r1
 8008260:	b531      	push	{r0, r4, r5, lr}
  irqRef++;
 8008262:	4d0b      	ldr	r5, [pc, #44]	; (8008290 <IRQHandler+0x38>)
 8008264:	682b      	ldr	r3, [r5, #0]
 8008266:	3301      	adds	r3, #1
 8008268:	602b      	str	r3, [r5, #0]

  irqHandler_t *handle = handlers[getIrqNum()];
 800826a:	f000 f87b 	bl	8008364 <getIrqNum>
 800826e:	4b09      	ldr	r3, [pc, #36]	; (8008294 <IRQHandler+0x3c>)
 8008270:	f853 4020 	ldr.w	r4, [r3, r0, lsl #2]

  while (handle)
 8008274:	b124      	cbz	r4, 8008280 <IRQHandler+0x28>
    {
      handle->handler();
 8008276:	6863      	ldr	r3, [r4, #4]
 8008278:	4798      	blx	r3
      handle = handle->next;
 800827a:	6824      	ldr	r4, [r4, #0]
{
  irqRef++;

  irqHandler_t *handle = handlers[getIrqNum()];

  while (handle)
 800827c:	2c00      	cmp	r4, #0
 800827e:	d1fa      	bne.n	8008276 <IRQHandler+0x1e>
    {
      handle->handler();
      handle = handle->next;
    }
  irqRef--;
 8008280:	682b      	ldr	r3, [r5, #0]
 8008282:	3b01      	subs	r3, #1
 8008284:	602b      	str	r3, [r5, #0]
}
 8008286:	e8bd 4031 	ldmia.w	sp!, {r0, r4, r5, lr}
 800828a:	4685      	mov	sp, r0
 800828c:	4770      	bx	lr
 800828e:	bf00      	nop
 8008290:	2001ac08 	.word	0x2001ac08
 8008294:	20018000 	.word	0x20018000

08008298 <BusFault_Handler>:

static void __attribute__ ((no_instrument_function, interrupt)) Unused_Handler(void)
{
 8008298:	4668      	mov	r0, sp
 800829a:	f020 0107 	bic.w	r1, r0, #7
 800829e:	468d      	mov	sp, r1
 80082a0:	b501      	push	{r0, lr}
}
 80082a2:	e8bd 4001 	ldmia.w	sp!, {r0, lr}
 80082a6:	4685      	mov	sp, r0
 80082a8:	4770      	bx	lr
	...

080082ac <registerIRQ>:


int registerIRQ(int irq, void (*handler) (void))
{
 80082ac:	b538      	push	{r3, r4, r5, lr}
 80082ae:	4604      	mov	r4, r0
 80082b0:	460d      	mov	r5, r1
  taskENTER_CRITICAL();
 80082b2:	f001 ff3f 	bl	800a134 <vPortEnterCritical>
  if (!poolFree)
 80082b6:	4a19      	ldr	r2, [pc, #100]	; (800831c <registerIRQ+0x70>)
 80082b8:	6813      	ldr	r3, [r2, #0]
 80082ba:	b95b      	cbnz	r3, 80082d4 <registerIRQ+0x28>
    {
      taskEXIT_CRITICAL();
 80082bc:	f001 ff4c 	bl	800a158 <vPortExitCritical>
      dprintf(LL_ERROR, "IRQ handlers pool depleted.");
 80082c0:	4b17      	ldr	r3, [pc, #92]	; (8008320 <registerIRQ+0x74>)
 80082c2:	6d1b      	ldr	r3, [r3, #80]	; 0x50
 80082c4:	2b00      	cmp	r3, #0
 80082c6:	db22      	blt.n	800830e <registerIRQ+0x62>
 80082c8:	4816      	ldr	r0, [pc, #88]	; (8008324 <registerIRQ+0x78>)
 80082ca:	f000 fa4b 	bl	8008764 <xprintf>
      return -1;
 80082ce:	f04f 30ff 	mov.w	r0, #4294967295
 80082d2:	bd38      	pop	{r3, r4, r5, pc}
    }
  irq += 16;
 80082d4:	f104 0010 	add.w	r0, r4, #16
  if (irq >= ISR_SIZE)
 80082d8:	2861      	cmp	r0, #97	; 0x61
 80082da:	dd0b      	ble.n	80082f4 <registerIRQ+0x48>
    {
      taskEXIT_CRITICAL();
 80082dc:	f001 ff3c 	bl	800a158 <vPortExitCritical>
      dprintf(LL_ERROR, "IRQ handler index invalid.");
 80082e0:	4b0f      	ldr	r3, [pc, #60]	; (8008320 <registerIRQ+0x74>)
 80082e2:	6d1b      	ldr	r3, [r3, #80]	; 0x50
 80082e4:	2b00      	cmp	r3, #0
 80082e6:	db15      	blt.n	8008314 <registerIRQ+0x68>
 80082e8:	480f      	ldr	r0, [pc, #60]	; (8008328 <registerIRQ+0x7c>)
 80082ea:	f000 fa3b 	bl	8008764 <xprintf>
      return -2;
 80082ee:	f06f 0001 	mvn.w	r0, #1
 80082f2:	bd38      	pop	{r3, r4, r5, pc}
    }
  irqHandler_t *handle = poolFree;

  poolFree = poolFree->next;
 80082f4:	6819      	ldr	r1, [r3, #0]
 80082f6:	6011      	str	r1, [r2, #0]

  handle->next = handlers[irq];
 80082f8:	4a0c      	ldr	r2, [pc, #48]	; (800832c <registerIRQ+0x80>)
 80082fa:	f852 1020 	ldr.w	r1, [r2, r0, lsl #2]
 80082fe:	6019      	str	r1, [r3, #0]
  handlers[irq] = handle;
 8008300:	f842 3020 	str.w	r3, [r2, r0, lsl #2]
  handle->handler = handler;
 8008304:	605d      	str	r5, [r3, #4]
  taskEXIT_CRITICAL();
 8008306:	f001 ff27 	bl	800a158 <vPortExitCritical>
  return 0;
 800830a:	2000      	movs	r0, #0
 800830c:	bd38      	pop	{r3, r4, r5, pc}
  taskENTER_CRITICAL();
  if (!poolFree)
    {
      taskEXIT_CRITICAL();
      dprintf(LL_ERROR, "IRQ handlers pool depleted.");
      return -1;
 800830e:	f04f 30ff 	mov.w	r0, #4294967295
 8008312:	bd38      	pop	{r3, r4, r5, pc}
  irq += 16;
  if (irq >= ISR_SIZE)
    {
      taskEXIT_CRITICAL();
      dprintf(LL_ERROR, "IRQ handler index invalid.");
      return -2;
 8008314:	f06f 0001 	mvn.w	r0, #1
  handle->next = handlers[irq];
  handlers[irq] = handle;
  handle->handler = handler;
  taskEXIT_CRITICAL();
  return 0;
}
 8008318:	bd38      	pop	{r3, r4, r5, pc}
 800831a:	bf00      	nop
 800831c:	2001a1d0 	.word	0x2001a1d0
 8008320:	10001000 	.word	0x10001000
 8008324:	0801471c 	.word	0x0801471c
 8008328:	08014738 	.word	0x08014738
 800832c:	20018000 	.word	0x20018000

08008330 <sysTickHandler>:
void xPortSysTickHandler(void);
static uint64_t uptime = 0;
static uint64_t preciseUptime = 0;

void sysTickHandler(void)
{
 8008330:	4668      	mov	r0, sp
 8008332:	f020 0107 	bic.w	r1, r0, #7
 8008336:	468d      	mov	sp, r1
 8008338:	b531      	push	{r0, r4, r5, lr}
  uptime += 1000000ULL;
 800833a:	4908      	ldr	r1, [pc, #32]	; (800835c <sysTickHandler+0x2c>)
 800833c:	4a08      	ldr	r2, [pc, #32]	; (8008360 <sysTickHandler+0x30>)
 800833e:	e9d1 4500 	ldrd	r4, r5, [r1]
 8008342:	2300      	movs	r3, #0
 8008344:	1912      	adds	r2, r2, r4
 8008346:	416b      	adcs	r3, r5
 8008348:	e9c1 2300 	strd	r2, r3, [r1]
  preciseUptime = uptime;
 800834c:	e9c1 2302 	strd	r2, r3, [r1, #8]
  xPortSysTickHandler();
 8008350:	f001 ff2a 	bl	800a1a8 <xPortSysTickHandler>
}
 8008354:	e8bd 4031 	ldmia.w	sp!, {r0, r4, r5, lr}
 8008358:	4685      	mov	sp, r0
 800835a:	4770      	bx	lr
 800835c:	2001ac10 	.word	0x2001ac10
 8008360:	000f4240 	.word	0x000f4240

08008364 <getIrqNum>:
  return primask & 1;
}
int getIrqNum(void)
{
  uint32_t irqNum;
  asm volatile ("mrs %0, ipsr":"=r" (irqNum));
 8008364:	f3ef 8005 	mrs	r0, IPSR
  return irqNum;
}
 8008368:	4770      	bx	lr

0800836a <vApplicationStackOverflowHook>:
    __asm volatile ("cpsie i");
}
/*-----------------------------------------------------------*/
void vApplicationStackOverflowHook(xTaskHandle pxTask, signed char *pcTaskName);
void vApplicationStackOverflowHook(xTaskHandle pxTask, signed char *pcTaskName)
{
 800836a:	b082      	sub	sp, #8
     parameters are corrupt then inspect pxCurrentTCB to find which was the
     offending task. */
  (void)pxTask;
  (void)pcTaskName;
  {
    volatile int s = 1;
 800836c:	2301      	movs	r3, #1
 800836e:	9301      	str	r3, [sp, #4]
    while (s);
 8008370:	9b01      	ldr	r3, [sp, #4]
 8008372:	2b00      	cmp	r3, #0
 8008374:	d1fc      	bne.n	8008370 <vApplicationStackOverflowHook+0x6>
  }
}
 8008376:	b002      	add	sp, #8
 8008378:	4770      	bx	lr
	...

0800837c <vApplicationMallocFailedHook>:

void vApplicationMallocFailedHook(void);
void vApplicationMallocFailedHook(void)
{
 800837c:	b507      	push	{r0, r1, r2, lr}
  dprintf(LL_ERROR, "Heap depleted\n");
 800837e:	4b07      	ldr	r3, [pc, #28]	; (800839c <vApplicationMallocFailedHook+0x20>)
 8008380:	6d1b      	ldr	r3, [r3, #80]	; 0x50
 8008382:	2b00      	cmp	r3, #0
 8008384:	db02      	blt.n	800838c <vApplicationMallocFailedHook+0x10>
 8008386:	4806      	ldr	r0, [pc, #24]	; (80083a0 <vApplicationMallocFailedHook+0x24>)
 8008388:	f000 f9ec 	bl	8008764 <xprintf>
  {
    volatile int s = 1;
 800838c:	2301      	movs	r3, #1
 800838e:	9301      	str	r3, [sp, #4]
    while (s);
 8008390:	9b01      	ldr	r3, [sp, #4]
 8008392:	2b00      	cmp	r3, #0
 8008394:	d1fc      	bne.n	8008390 <vApplicationMallocFailedHook+0x14>
  }
}
 8008396:	b003      	add	sp, #12
 8008398:	f85d fb04 	ldr.w	pc, [sp], #4
 800839c:	10001000 	.word	0x10001000
 80083a0:	080147bf 	.word	0x080147bf

080083a4 <getRegistersFromStack>:

void HardFault_Handler(void);
#if 1
void  __attribute__ ((optimize("-O0"))) getRegistersFromStack( uint32_t *pulFaultStackAddress );
void  __attribute__ ((optimize("-O0"))) getRegistersFromStack( uint32_t *pulFaultStackAddress )
{
 80083a4:	b580      	push	{r7, lr}
 80083a6:	b086      	sub	sp, #24
 80083a8:	af02      	add	r7, sp, #8
 80083aa:	6078      	str	r0, [r7, #4]
  uint32_t sptr;
  asm("mov %0, sp": "=r" (sptr));
 80083ac:	466b      	mov	r3, sp
 80083ae:	60fb      	str	r3, [r7, #12]
  dprintf(LL_ERROR, "HARDFAULT!!\n");
 80083b0:	4b20      	ldr	r3, [pc, #128]	; (8008434 <getRegistersFromStack+0x90>)
 80083b2:	6d1b      	ldr	r3, [r3, #80]	; 0x50
 80083b4:	2b00      	cmp	r3, #0
 80083b6:	db02      	blt.n	80083be <getRegistersFromStack+0x1a>
 80083b8:	481f      	ldr	r0, [pc, #124]	; (8008438 <getRegistersFromStack+0x94>)
 80083ba:	f000 f9d3 	bl	8008764 <xprintf>
  dprintf(LL_ERROR, "r0   %08x r1  %08x r2  %08x r3  %08x \n", pulFaultStackAddress[0], pulFaultStackAddress[1], pulFaultStackAddress[2], pulFaultStackAddress[3]);
 80083be:	4b1d      	ldr	r3, [pc, #116]	; (8008434 <getRegistersFromStack+0x90>)
 80083c0:	6d1b      	ldr	r3, [r3, #80]	; 0x50
 80083c2:	2b00      	cmp	r3, #0
 80083c4:	db0f      	blt.n	80083e6 <getRegistersFromStack+0x42>
 80083c6:	687b      	ldr	r3, [r7, #4]
 80083c8:	6819      	ldr	r1, [r3, #0]
 80083ca:	687b      	ldr	r3, [r7, #4]
 80083cc:	3304      	adds	r3, #4
 80083ce:	681a      	ldr	r2, [r3, #0]
 80083d0:	687b      	ldr	r3, [r7, #4]
 80083d2:	3308      	adds	r3, #8
 80083d4:	6818      	ldr	r0, [r3, #0]
 80083d6:	687b      	ldr	r3, [r7, #4]
 80083d8:	330c      	adds	r3, #12
 80083da:	681b      	ldr	r3, [r3, #0]
 80083dc:	9300      	str	r3, [sp, #0]
 80083de:	4603      	mov	r3, r0
 80083e0:	4816      	ldr	r0, [pc, #88]	; (800843c <getRegistersFromStack+0x98>)
 80083e2:	f000 f9bf 	bl	8008764 <xprintf>
  dprintf(LL_ERROR, "r12  %08x lr  %08x pc  %08x psr %08x \n", pulFaultStackAddress[4], pulFaultStackAddress[5], pulFaultStackAddress[6], pulFaultStackAddress[7]);
 80083e6:	4b13      	ldr	r3, [pc, #76]	; (8008434 <getRegistersFromStack+0x90>)
 80083e8:	6d1b      	ldr	r3, [r3, #80]	; 0x50
 80083ea:	2b00      	cmp	r3, #0
 80083ec:	db10      	blt.n	8008410 <getRegistersFromStack+0x6c>
 80083ee:	687b      	ldr	r3, [r7, #4]
 80083f0:	3310      	adds	r3, #16
 80083f2:	6819      	ldr	r1, [r3, #0]
 80083f4:	687b      	ldr	r3, [r7, #4]
 80083f6:	3314      	adds	r3, #20
 80083f8:	681a      	ldr	r2, [r3, #0]
 80083fa:	687b      	ldr	r3, [r7, #4]
 80083fc:	3318      	adds	r3, #24
 80083fe:	6818      	ldr	r0, [r3, #0]
 8008400:	687b      	ldr	r3, [r7, #4]
 8008402:	331c      	adds	r3, #28
 8008404:	681b      	ldr	r3, [r3, #0]
 8008406:	9300      	str	r3, [sp, #0]
 8008408:	4603      	mov	r3, r0
 800840a:	480d      	ldr	r0, [pc, #52]	; (8008440 <getRegistersFromStack+0x9c>)
 800840c:	f000 f9aa 	bl	8008764 <xprintf>
  dprintf(LL_ERROR, "sp   %08x\n", sptr);
 8008410:	4b08      	ldr	r3, [pc, #32]	; (8008434 <getRegistersFromStack+0x90>)
 8008412:	6d1b      	ldr	r3, [r3, #80]	; 0x50
 8008414:	2b00      	cmp	r3, #0
 8008416:	db03      	blt.n	8008420 <getRegistersFromStack+0x7c>
 8008418:	68f9      	ldr	r1, [r7, #12]
 800841a:	480a      	ldr	r0, [pc, #40]	; (8008444 <getRegistersFromStack+0xa0>)
 800841c:	f000 f9a2 	bl	8008764 <xprintf>
  {
    volatile int s = 1;
 8008420:	2301      	movs	r3, #1
 8008422:	60bb      	str	r3, [r7, #8]
    while (s);
 8008424:	bf00      	nop
 8008426:	68bb      	ldr	r3, [r7, #8]
 8008428:	2b00      	cmp	r3, #0
 800842a:	d1fc      	bne.n	8008426 <getRegistersFromStack+0x82>
  }
}
 800842c:	bf00      	nop
 800842e:	3710      	adds	r7, #16
 8008430:	46bd      	mov	sp, r7
 8008432:	bd80      	pop	{r7, pc}
 8008434:	10001000 	.word	0x10001000
 8008438:	08014754 	.word	0x08014754
 800843c:	08014764 	.word	0x08014764
 8008440:	0801478c 	.word	0x0801478c
 8008444:	080147b4 	.word	0x080147b4

08008448 <HardFault_Handler>:
void __attribute__ ((optimize("-O0"),no_instrument_function,naked)) HardFault_Handler(void)
{
  __asm volatile
 8008448:	f01e 0f04 	tst.w	lr, #4
 800844c:	bf0c      	ite	eq
 800844e:	f3ef 8008 	mrseq	r0, MSP
 8008452:	f3ef 8009 	mrsne	r0, PSP
 8008456:	6981      	ldr	r1, [r0, #24]
 8008458:	4a00      	ldr	r2, [pc, #0]	; (800845c <handler2_address_const>)
 800845a:	4710      	bx	r2

0800845c <handler2_address_const>:
 800845c:	080083a5 	.word	0x080083a5
    " ldr r1, [r0, #24]\n"
    " ldr r2, handler2_address_const\n"
    " bx r2\n"
    " handler2_address_const: .word getRegistersFromStack \n"
  );
}
 8008460:	bf00      	nop

08008462 <intSafeMalloc>:
  }
}
#endif

void *intSafeMalloc(int size)
{
 8008462:	b538      	push	{r3, r4, r5, lr}
 8008464:	4605      	mov	r5, r0
  int irq = amIInIRQ();
 8008466:	f7ff feef 	bl	8008248 <amIInIRQ>
  if(!irq) taskENTER_CRITICAL();
 800846a:	4604      	mov	r4, r0
 800846c:	b908      	cbnz	r0, 8008472 <intSafeMalloc+0x10>
 800846e:	f001 fe61 	bl	800a134 <vPortEnterCritical>
  void *buf =  pvPortMalloc(size);
 8008472:	4628      	mov	r0, r5
 8008474:	f001 ff50 	bl	800a318 <pvPortMalloc>
 8008478:	4605      	mov	r5, r0
  if(!irq) taskEXIT_CRITICAL();
 800847a:	b90c      	cbnz	r4, 8008480 <intSafeMalloc+0x1e>
 800847c:	f001 fe6c 	bl	800a158 <vPortExitCritical>
  return buf;
}
 8008480:	4628      	mov	r0, r5
 8008482:	bd38      	pop	{r3, r4, r5, pc}

08008484 <intSafeFree>:
void intSafeFree(void *buf)
{
 8008484:	b538      	push	{r3, r4, r5, lr}
 8008486:	4605      	mov	r5, r0
  int irq = amIInIRQ();
 8008488:	f7ff fede 	bl	8008248 <amIInIRQ>
  if(!irq) taskENTER_CRITICAL();
 800848c:	4604      	mov	r4, r0
 800848e:	b908      	cbnz	r0, 8008494 <intSafeFree+0x10>
 8008490:	f001 fe50 	bl	800a134 <vPortEnterCritical>
  vPortFree(buf);
 8008494:	4628      	mov	r0, r5
 8008496:	f001 ffab 	bl	800a3f0 <vPortFree>
  if(!irq) taskEXIT_CRITICAL();
 800849a:	b91c      	cbnz	r4, 80084a4 <intSafeFree+0x20>
}
 800849c:	e8bd 4038 	ldmia.w	sp!, {r3, r4, r5, lr}
void intSafeFree(void *buf)
{
  int irq = amIInIRQ();
  if(!irq) taskENTER_CRITICAL();
  vPortFree(buf);
  if(!irq) taskEXIT_CRITICAL();
 80084a0:	f001 be5a 	b.w	800a158 <vPortExitCritical>
 80084a4:	bd38      	pop	{r3, r4, r5, pc}
	...

080084a8 <consoleLock>:

uint8_t refresh = 0;
#ifdef DEBUG_UART
static int consoleLocked = 0;
void consoleLock(void)
{
 80084a8:	b510      	push	{r4, lr}
  taskENTER_CRITICAL();
 80084aa:	f001 fe43 	bl	800a134 <vPortEnterCritical>
  while(consoleLocked)
 80084ae:	4c09      	ldr	r4, [pc, #36]	; (80084d4 <consoleLock+0x2c>)
 80084b0:	6963      	ldr	r3, [r4, #20]
 80084b2:	b13b      	cbz	r3, 80084c4 <consoleLock+0x1c>
    {
      taskEXIT_CRITICAL();
 80084b4:	f001 fe50 	bl	800a158 <vPortExitCritical>
      mdelay(1);
 80084b8:	2001      	movs	r0, #1
 80084ba:	f002 f9e9 	bl	800a890 <vTaskDelay>
      taskENTER_CRITICAL();
 80084be:	f001 fe39 	bl	800a134 <vPortEnterCritical>
 80084c2:	e7f5      	b.n	80084b0 <consoleLock+0x8>
    }
  consoleLocked = 1;
 80084c4:	4b03      	ldr	r3, [pc, #12]	; (80084d4 <consoleLock+0x2c>)
 80084c6:	2201      	movs	r2, #1
 80084c8:	615a      	str	r2, [r3, #20]
  taskEXIT_CRITICAL();
}
 80084ca:	e8bd 4010 	ldmia.w	sp!, {r4, lr}
      taskEXIT_CRITICAL();
      mdelay(1);
      taskENTER_CRITICAL();
    }
  consoleLocked = 1;
  taskEXIT_CRITICAL();
 80084ce:	f001 be43 	b.w	800a158 <vPortExitCritical>
 80084d2:	bf00      	nop
 80084d4:	2001ac10 	.word	0x2001ac10

080084d8 <consoleUnlock>:
}

void consoleUnlock(void)
{
 80084d8:	b508      	push	{r3, lr}
  taskENTER_CRITICAL();
 80084da:	f001 fe2b 	bl	800a134 <vPortEnterCritical>
  consoleLocked = 0;
 80084de:	4b03      	ldr	r3, [pc, #12]	; (80084ec <consoleUnlock+0x14>)
 80084e0:	2200      	movs	r2, #0
 80084e2:	615a      	str	r2, [r3, #20]
  taskEXIT_CRITICAL();
}
 80084e4:	e8bd 4008 	ldmia.w	sp!, {r3, lr}

void consoleUnlock(void)
{
  taskENTER_CRITICAL();
  consoleLocked = 0;
  taskEXIT_CRITICAL();
 80084e8:	f001 be36 	b.w	800a158 <vPortExitCritical>
 80084ec:	2001ac10 	.word	0x2001ac10

080084f0 <putChar>:
}

void putChar(unsigned char ch)
{
 80084f0:	b510      	push	{r4, lr}
 80084f2:	4604      	mov	r4, r0
  while(!USART_GetFlagStatus(DEBUG_UART, USART_FLAG_TXE));
 80084f4:	2180      	movs	r1, #128	; 0x80
 80084f6:	4805      	ldr	r0, [pc, #20]	; (800850c <putChar+0x1c>)
 80084f8:	f009 f92a 	bl	8011750 <USART_GetFlagStatus>
 80084fc:	2800      	cmp	r0, #0
 80084fe:	d0f9      	beq.n	80084f4 <putChar+0x4>
  USART_SendData(DEBUG_UART, ch);
 8008500:	4621      	mov	r1, r4
 8008502:	4802      	ldr	r0, [pc, #8]	; (800850c <putChar+0x1c>)
}
 8008504:	e8bd 4010 	ldmia.w	sp!, {r4, lr}
}

void putChar(unsigned char ch)
{
  while(!USART_GetFlagStatus(DEBUG_UART, USART_FLAG_TXE));
  USART_SendData(DEBUG_UART, ch);
 8008508:	f009 b822 	b.w	8011550 <USART_SendData>
 800850c:	40005000 	.word	0x40005000

08008510 <sendChar>:
  if(USART_GetFlagStatus(DEBUG_UART, USART_FLAG_RXNE))
    return USART_ReceiveData(DEBUG_UART);
  return -1;
}
void sendChar(unsigned char ch)
{
 8008510:	b510      	push	{r4, lr}
 8008512:	4604      	mov	r4, r0
  consoleLock();
 8008514:	f7ff ffc8 	bl	80084a8 <consoleLock>
  putChar(ch);
 8008518:	4620      	mov	r0, r4
 800851a:	f7ff ffe9 	bl	80084f0 <putChar>
  if(ch == '\n')refresh = 1;
 800851e:	2c0a      	cmp	r4, #10
 8008520:	bf02      	ittt	eq
 8008522:	4b03      	ldreq	r3, [pc, #12]	; (8008530 <sendChar+0x20>)
 8008524:	2201      	moveq	r2, #1
 8008526:	741a      	strbeq	r2, [r3, #16]
  consoleUnlock();

}
 8008528:	e8bd 4010 	ldmia.w	sp!, {r4, lr}
void sendChar(unsigned char ch)
{
  consoleLock();
  putChar(ch);
  if(ch == '\n')refresh = 1;
  consoleUnlock();
 800852c:	f7ff bfd4 	b.w	80084d8 <consoleUnlock>
 8008530:	2001ac10 	.word	0x2001ac10

08008534 <taskWaitInit>:
    }
}

static int taskInitWait = 1;
void taskWaitInit(void)
{
 8008534:	b510      	push	{r4, lr}
  while(taskInitWait)
 8008536:	4c04      	ldr	r4, [pc, #16]	; (8008548 <taskWaitInit+0x14>)
 8008538:	6823      	ldr	r3, [r4, #0]
 800853a:	b11b      	cbz	r3, 8008544 <taskWaitInit+0x10>
    mdelay(1);
 800853c:	2001      	movs	r0, #1
 800853e:	f002 f9a7 	bl	800a890 <vTaskDelay>
 8008542:	e7f9      	b.n	8008538 <taskWaitInit+0x4>
}
 8008544:	bd10      	pop	{r4, pc}
 8008546:	bf00      	nop
 8008548:	2001a1d4 	.word	0x2001a1d4

0800854c <tasksInitEnd>:

void tasksInitEnd(void)
{
  taskInitWait = 0;
 800854c:	4b01      	ldr	r3, [pc, #4]	; (8008554 <tasksInitEnd+0x8>)
 800854e:	2200      	movs	r2, #0
 8008550:	601a      	str	r2, [r3, #0]
 8008552:	4770      	bx	lr
 8008554:	2001a1d4 	.word	0x2001a1d4

08008558 <xprintf_init>:
#if _USE_XFUNC_OUT
#include <stdarg.h>
void (*xfunc_out)(unsigned char);	/* Pointer to the output stream */
static xSemaphoreHandle mutex;
void xprintf_init(void (*xfunc)(unsigned char))
{
 8008558:	b510      	push	{r4, lr}
 800855a:	4604      	mov	r4, r0
  mutex = xSemaphoreCreateMutex();
 800855c:	2001      	movs	r0, #1
 800855e:	f002 fcaa 	bl	800aeb6 <xQueueCreateMutex>
 8008562:	4b02      	ldr	r3, [pc, #8]	; (800856c <xprintf_init+0x14>)
 8008564:	6018      	str	r0, [r3, #0]
  xfunc_out = xfunc;
 8008566:	4b02      	ldr	r3, [pc, #8]	; (8008570 <xprintf_init+0x18>)
 8008568:	601c      	str	r4, [r3, #0]
 800856a:	bd10      	pop	{r4, pc}
 800856c:	2001ac28 	.word	0x2001ac28
 8008570:	2001adc8 	.word	0x2001adc8

08008574 <xputc>:
/* Put a character                              */
/*----------------------------------------------*/

void xputc (char c)
{
  if (_CR_CRLF && c == '\n') xputc('\r');		/* CR -> CRLF */
 8008574:	280a      	cmp	r0, #10
/*----------------------------------------------*/
/* Put a character                              */
/*----------------------------------------------*/

void xputc (char c)
{
 8008576:	b510      	push	{r4, lr}
 8008578:	4604      	mov	r4, r0
  if (_CR_CRLF && c == '\n') xputc('\r');		/* CR -> CRLF */
 800857a:	d102      	bne.n	8008582 <xputc+0xe>
 800857c:	200d      	movs	r0, #13
 800857e:	f7ff fff9 	bl	8008574 <xputc>

  if (outptr)
 8008582:	4a07      	ldr	r2, [pc, #28]	; (80085a0 <xputc+0x2c>)
 8008584:	6853      	ldr	r3, [r2, #4]
 8008586:	b11b      	cbz	r3, 8008590 <xputc+0x1c>
    {
      *outptr++ = (unsigned char)c;
 8008588:	1c59      	adds	r1, r3, #1
 800858a:	6051      	str	r1, [r2, #4]
 800858c:	701c      	strb	r4, [r3, #0]
      return;
 800858e:	bd10      	pop	{r4, pc}
    }

  if (xfunc_out) xfunc_out((unsigned char)c);
 8008590:	4b04      	ldr	r3, [pc, #16]	; (80085a4 <xputc+0x30>)
 8008592:	681b      	ldr	r3, [r3, #0]
 8008594:	b11b      	cbz	r3, 800859e <xputc+0x2a>
 8008596:	4620      	mov	r0, r4
}
 8008598:	e8bd 4010 	ldmia.w	sp!, {r4, lr}
    {
      *outptr++ = (unsigned char)c;
      return;
    }

  if (xfunc_out) xfunc_out((unsigned char)c);
 800859c:	4718      	bx	r3
 800859e:	bd10      	pop	{r4, pc}
 80085a0:	2001ac28 	.word	0x2001ac28
 80085a4:	2001adc8 	.word	0x2001adc8

080085a8 <xputs>:
/*----------------------------------------------*/

void xputs (					/* Put a string to the default device */
  const char* str				/* Pointer to the string */
)
{
 80085a8:	b510      	push	{r4, lr}
 80085aa:	1e44      	subs	r4, r0, #1
  while (*str)
 80085ac:	f814 0f01 	ldrb.w	r0, [r4, #1]!
 80085b0:	b110      	cbz	r0, 80085b8 <xputs+0x10>
    xputc(*str++);
 80085b2:	f7ff ffdf 	bl	8008574 <xputc>
 80085b6:	e7f9      	b.n	80085ac <xputs+0x4>
}
 80085b8:	bd10      	pop	{r4, pc}

080085ba <xvprintf>:
static
void xvprintf (
  const char*	fmt,	/* Pointer to the format string */
  va_list arp			/* Pointer to arguments */
)
{
 80085ba:	e92d 47ff 	stmdb	sp!, {r0, r1, r2, r3, r4, r5, r6, r7, r8, r9, sl, lr}
 80085be:	4602      	mov	r2, r0
 80085c0:	460d      	mov	r5, r1
  char s[16], c, d, *p;


  for (;;)
    {
      c = *fmt++;					/* Get a char */
 80085c2:	7810      	ldrb	r0, [r2, #0]
      if (!c) break;				/* End of format? */
 80085c4:	2800      	cmp	r0, #0
 80085c6:	f000 80c9 	beq.w	800875c <xvprintf+0x1a2>
      if (c != '%')  				/* Pass through it if not a % sequense */
 80085ca:	2825      	cmp	r0, #37	; 0x25
 80085cc:	d001      	beq.n	80085d2 <xvprintf+0x18>
  char s[16], c, d, *p;


  for (;;)
    {
      c = *fmt++;					/* Get a char */
 80085ce:	1c57      	adds	r7, r2, #1
 80085d0:	e06b      	b.n	80086aa <xvprintf+0xf0>
        {
          xputc(c);
          continue;
        }
      f = 0;
      c = *fmt++;					/* Get first char of the sequense */
 80085d2:	7853      	ldrb	r3, [r2, #1]
      if (c == '0')  				/* Flag: '0' padded */
 80085d4:	2b30      	cmp	r3, #48	; 0x30
 80085d6:	d103      	bne.n	80085e0 <xvprintf+0x26>
        {
          f = 1;
          c = *fmt++;
 80085d8:	1cd7      	adds	r7, r2, #3
 80085da:	7893      	ldrb	r3, [r2, #2]
        }
      f = 0;
      c = *fmt++;					/* Get first char of the sequense */
      if (c == '0')  				/* Flag: '0' padded */
        {
          f = 1;
 80085dc:	2601      	movs	r6, #1
 80085de:	e007      	b.n	80085f0 <xvprintf+0x36>
          c = *fmt++;
        }
      else
        {
          if (c == '-')  			/* Flag: left justified */
 80085e0:	2b2d      	cmp	r3, #45	; 0x2d
            {
              f = 2;
              c = *fmt++;
 80085e2:	bf0d      	iteet	eq
 80085e4:	7893      	ldrbeq	r3, [r2, #2]
        {
          xputc(c);
          continue;
        }
      f = 0;
      c = *fmt++;					/* Get first char of the sequense */
 80085e6:	1c97      	addne	r7, r2, #2
      if (c != '%')  				/* Pass through it if not a % sequense */
        {
          xputc(c);
          continue;
        }
      f = 0;
 80085e8:	2600      	movne	r6, #0
      else
        {
          if (c == '-')  			/* Flag: left justified */
            {
              f = 2;
              c = *fmt++;
 80085ea:	1cd7      	addeq	r7, r2, #3
        }
      else
        {
          if (c == '-')  			/* Flag: left justified */
            {
              f = 2;
 80085ec:	bf08      	it	eq
 80085ee:	2602      	moveq	r6, #2
              c = *fmt++;
            }
        }
      for (w = 0; c >= '0' && c <= '9'; c = *fmt++)	/* Minimum width */
 80085f0:	f04f 0800 	mov.w	r8, #0
        w = w * 10 + c - '0';
 80085f4:	210a      	movs	r1, #10
            {
              f = 2;
              c = *fmt++;
            }
        }
      for (w = 0; c >= '0' && c <= '9'; c = *fmt++)	/* Minimum width */
 80085f6:	f1a3 0230 	sub.w	r2, r3, #48	; 0x30
 80085fa:	2a09      	cmp	r2, #9
 80085fc:	d806      	bhi.n	800860c <xvprintf+0x52>
        w = w * 10 + c - '0';
 80085fe:	fb01 3808 	mla	r8, r1, r8, r3
 8008602:	f1a8 0830 	sub.w	r8, r8, #48	; 0x30
            {
              f = 2;
              c = *fmt++;
            }
        }
      for (w = 0; c >= '0' && c <= '9'; c = *fmt++)	/* Minimum width */
 8008606:	f817 3b01 	ldrb.w	r3, [r7], #1
 800860a:	e7f4      	b.n	80085f6 <xvprintf+0x3c>
        w = w * 10 + c - '0';
      if (c == 'l' || c == 'L')  	/* Prefix: Size is long int */
 800860c:	f003 02df 	and.w	r2, r3, #223	; 0xdf
 8008610:	2a4c      	cmp	r2, #76	; 0x4c
        {
          f |= 4;
          c = *fmt++;
 8008612:	bf02      	ittt	eq
 8008614:	783b      	ldrbeq	r3, [r7, #0]
        }
      for (w = 0; c >= '0' && c <= '9'; c = *fmt++)	/* Minimum width */
        w = w * 10 + c - '0';
      if (c == 'l' || c == 'L')  	/* Prefix: Size is long int */
        {
          f |= 4;
 8008616:	f046 0604 	orreq.w	r6, r6, #4
          c = *fmt++;
 800861a:	3701      	addeq	r7, #1
        }
      if (!c) break;				/* End of format? */
 800861c:	2b00      	cmp	r3, #0
 800861e:	f000 809d 	beq.w	800875c <xvprintf+0x1a2>
      d = c;
      if (d >= 'a') d -= 0x20;
 8008622:	2b60      	cmp	r3, #96	; 0x60
 8008624:	bf86      	itte	hi
 8008626:	f1a3 0220 	subhi.w	r2, r3, #32
 800862a:	b2d2      	uxtbhi	r2, r2
 800862c:	461a      	movls	r2, r3
      switch (d)  				/* Type is... */
 800862e:	2a4f      	cmp	r2, #79	; 0x4f
 8008630:	d012      	beq.n	8008658 <xvprintf+0x9e>
 8008632:	d806      	bhi.n	8008642 <xvprintf+0x88>
 8008634:	2a43      	cmp	r2, #67	; 0x43
 8008636:	d030      	beq.n	800869a <xvprintf+0xe0>
 8008638:	2a44      	cmp	r2, #68	; 0x44
 800863a:	d03c      	beq.n	80086b6 <xvprintf+0xfc>
 800863c:	2a42      	cmp	r2, #66	; 0x42
 800863e:	d038      	beq.n	80086b2 <xvprintf+0xf8>
 8008640:	e032      	b.n	80086a8 <xvprintf+0xee>
 8008642:	2a55      	cmp	r2, #85	; 0x55
 8008644:	d037      	beq.n	80086b6 <xvprintf+0xfc>
 8008646:	2a58      	cmp	r2, #88	; 0x58
 8008648:	d02c      	beq.n	80086a4 <xvprintf+0xea>
 800864a:	2a53      	cmp	r2, #83	; 0x53
 800864c:	d12c      	bne.n	80086a8 <xvprintf+0xee>
        {
        case 'S' :					/* String */
          p = va_arg(arp, char*);
 800864e:	f8d5 9000 	ldr.w	r9, [r5]
 8008652:	1d2c      	adds	r4, r5, #4
          for (j = 0; p[j]; j++) ;
 8008654:	464b      	mov	r3, r9
 8008656:	e001      	b.n	800865c <xvprintf+0xa2>
          continue;
        case 'B' :					/* Binary */
          r = 2;
          break;
        case 'O' :					/* Octal */
          r = 8;
 8008658:	2008      	movs	r0, #8
 800865a:	e02d      	b.n	80086b8 <xvprintf+0xfe>
 800865c:	ebc9 0503 	rsb	r5, r9, r3
      if (d >= 'a') d -= 0x20;
      switch (d)  				/* Type is... */
        {
        case 'S' :					/* String */
          p = va_arg(arp, char*);
          for (j = 0; p[j]; j++) ;
 8008660:	f813 2b01 	ldrb.w	r2, [r3], #1
 8008664:	2a00      	cmp	r2, #0
 8008666:	d1f9      	bne.n	800865c <xvprintf+0xa2>
          while (!(f & 2) && j++ < w) xputc(' ');
 8008668:	07b0      	lsls	r0, r6, #30
 800866a:	d409      	bmi.n	8008680 <xvprintf+0xc6>
 800866c:	4545      	cmp	r5, r8
 800866e:	f105 0601 	add.w	r6, r5, #1
 8008672:	d204      	bcs.n	800867e <xvprintf+0xc4>
 8008674:	2020      	movs	r0, #32
 8008676:	f7ff ff7d 	bl	8008574 <xputc>
 800867a:	4635      	mov	r5, r6
 800867c:	e7f6      	b.n	800866c <xvprintf+0xb2>
 800867e:	4635      	mov	r5, r6
          xputs(p);
 8008680:	4648      	mov	r0, r9
 8008682:	f7ff ff91 	bl	80085a8 <xputs>
          while (j++ < w) xputc(' ');
 8008686:	45a8      	cmp	r8, r5
 8008688:	d802      	bhi.n	8008690 <xvprintf+0xd6>
        case 'X' :					/* Hexdecimal */
          r = 16;
          break;
        default:					/* Unknown type (passthrough) */
          xputc(c);
          continue;
 800868a:	4625      	mov	r5, r4
 800868c:	463a      	mov	r2, r7
 800868e:	e798      	b.n	80085c2 <xvprintf+0x8>
        case 'S' :					/* String */
          p = va_arg(arp, char*);
          for (j = 0; p[j]; j++) ;
          while (!(f & 2) && j++ < w) xputc(' ');
          xputs(p);
          while (j++ < w) xputc(' ');
 8008690:	2020      	movs	r0, #32
 8008692:	f7ff ff6f 	bl	8008574 <xputc>
 8008696:	3501      	adds	r5, #1
 8008698:	e7f5      	b.n	8008686 <xvprintf+0xcc>
          continue;
        case 'C' :					/* Character */
          xputc((char)va_arg(arp, int));
 800869a:	7828      	ldrb	r0, [r5, #0]
 800869c:	1d2c      	adds	r4, r5, #4
 800869e:	f7ff ff69 	bl	8008574 <xputc>
          continue;
 80086a2:	e7f2      	b.n	800868a <xvprintf+0xd0>
        case 'D' :					/* Signed decimal */
        case 'U' :					/* Unsigned decimal */
          r = 10;
          break;
        case 'X' :					/* Hexdecimal */
          r = 16;
 80086a4:	2010      	movs	r0, #16
          break;
 80086a6:	e007      	b.n	80086b8 <xvprintf+0xfe>
        default:					/* Unknown type (passthrough) */
          xputc(c);
 80086a8:	4618      	mov	r0, r3
 80086aa:	f7ff ff63 	bl	8008574 <xputc>
          continue;
 80086ae:	462c      	mov	r4, r5
 80086b0:	e7eb      	b.n	800868a <xvprintf+0xd0>
          continue;
        case 'C' :					/* Character */
          xputc((char)va_arg(arp, int));
          continue;
        case 'B' :					/* Binary */
          r = 2;
 80086b2:	2002      	movs	r0, #2
 80086b4:	e000      	b.n	80086b8 <xvprintf+0xfe>
        case 'O' :					/* Octal */
          r = 8;
          break;
        case 'D' :					/* Signed decimal */
        case 'U' :					/* Unsigned decimal */
          r = 10;
 80086b6:	200a      	movs	r0, #10
          xputc(c);
          continue;
        }

      /* Get an argument and put it in numeral */
      v = (f & 4) ? va_arg(arp, long) : ((d == 'D') ? (long)va_arg(arp, int) : (long)va_arg(arp, unsigned int));
 80086b8:	2a44      	cmp	r2, #68	; 0x44
 80086ba:	6829      	ldr	r1, [r5, #0]
 80086bc:	f105 0404 	add.w	r4, r5, #4
 80086c0:	d104      	bne.n	80086cc <xvprintf+0x112>
      if (d == 'D' && (v & 0x80000000))
 80086c2:	2900      	cmp	r1, #0
        {
          v = 0 - v;
 80086c4:	bfbc      	itt	lt
 80086c6:	4249      	neglt	r1, r1
          f |= 8;
 80086c8:	f046 0608 	orrlt.w	r6, r6, #8
 80086cc:	2b78      	cmp	r3, #120	; 0x78
 80086ce:	bf14      	ite	ne
 80086d0:	f04f 0c07 	movne.w	ip, #7
 80086d4:	f04f 0c27 	moveq.w	ip, #39	; 0x27
        }
      i = 0;
 80086d8:	2200      	movs	r2, #0
      do
        {
          d = (char)(v % r);
 80086da:	fbb1 fef0 	udiv	lr, r1, r0
 80086de:	fb00 151e 	mls	r5, r0, lr, r1
 80086e2:	b2eb      	uxtb	r3, r5
          v /= r;
          if (d > 9) d += (c == 'x') ? 0x27 : 0x07;
 80086e4:	2d09      	cmp	r5, #9
 80086e6:	bf84      	itt	hi
 80086e8:	4463      	addhi	r3, ip
 80086ea:	b2db      	uxtbhi	r3, r3
          s[i++] = d + '0';
 80086ec:	3330      	adds	r3, #48	; 0x30
        }
      i = 0;
      do
        {
          d = (char)(v % r);
          v /= r;
 80086ee:	4671      	mov	r1, lr
          if (d > 9) d += (c == 'x') ? 0x27 : 0x07;
          s[i++] = d + '0';
 80086f0:	1c55      	adds	r5, r2, #1
 80086f2:	f80d 3002 	strb.w	r3, [sp, r2]
        }
      while (v && i < sizeof(s));
 80086f6:	f1be 0f00 	cmp.w	lr, #0
 80086fa:	d004      	beq.n	8008706 <xvprintf+0x14c>
 80086fc:	2d10      	cmp	r5, #16
 80086fe:	d001      	beq.n	8008704 <xvprintf+0x14a>
 8008700:	462a      	mov	r2, r5
 8008702:	e7ea      	b.n	80086da <xvprintf+0x120>
 8008704:	220f      	movs	r2, #15
      if (f & 8) s[i++] = '-';
 8008706:	0731      	lsls	r1, r6, #28
 8008708:	d505      	bpl.n	8008716 <xvprintf+0x15c>
 800870a:	ab04      	add	r3, sp, #16
 800870c:	441d      	add	r5, r3
 800870e:	232d      	movs	r3, #45	; 0x2d
 8008710:	f805 3c10 	strb.w	r3, [r5, #-16]
 8008714:	1c95      	adds	r5, r2, #2
      j = i;
      d = (f & 1) ? '0' : ' ';
 8008716:	f016 0f01 	tst.w	r6, #1
 800871a:	bf14      	ite	ne
 800871c:	f04f 0a30 	movne.w	sl, #48	; 0x30
 8008720:	f04f 0a20 	moveq.w	sl, #32
      while (!(f & 2) && j++ < w) xputc(d);
 8008724:	07b3      	lsls	r3, r6, #30
          if (d > 9) d += (c == 'x') ? 0x27 : 0x07;
          s[i++] = d + '0';
        }
      while (v && i < sizeof(s));
      if (f & 8) s[i++] = '-';
      j = i;
 8008726:	46a9      	mov	r9, r5
      d = (f & 1) ? '0' : ' ';
      while (!(f & 2) && j++ < w) xputc(d);
 8008728:	d409      	bmi.n	800873e <xvprintf+0x184>
 800872a:	45c1      	cmp	r9, r8
 800872c:	f109 0601 	add.w	r6, r9, #1
 8008730:	d204      	bcs.n	800873c <xvprintf+0x182>
 8008732:	4650      	mov	r0, sl
 8008734:	f7ff ff1e 	bl	8008574 <xputc>
 8008738:	46b1      	mov	r9, r6
 800873a:	e7f6      	b.n	800872a <xvprintf+0x170>
 800873c:	46b1      	mov	r9, r6
      do xputc(s[--i]);
 800873e:	3d01      	subs	r5, #1
 8008740:	f81d 0005 	ldrb.w	r0, [sp, r5]
 8008744:	f7ff ff16 	bl	8008574 <xputc>
      while(i);
 8008748:	2d00      	cmp	r5, #0
 800874a:	d1f8      	bne.n	800873e <xvprintf+0x184>
      while (j++ < w) xputc(' ');
 800874c:	45c8      	cmp	r8, r9
 800874e:	d99c      	bls.n	800868a <xvprintf+0xd0>
 8008750:	2020      	movs	r0, #32
 8008752:	f7ff ff0f 	bl	8008574 <xputc>
 8008756:	f109 0901 	add.w	r9, r9, #1
 800875a:	e7f7      	b.n	800874c <xvprintf+0x192>
    }
}
 800875c:	b004      	add	sp, #16
 800875e:	e8bd 87f0 	ldmia.w	sp!, {r4, r5, r6, r7, r8, r9, sl, pc}
	...

08008764 <xprintf>:

void xprintf (			/* Put a formatted string to the default device */
  const char*	fmt,	/* Pointer to the format string */
  ...					/* Optional arguments */
)
{
 8008764:	b40f      	push	{r0, r1, r2, r3}
 8008766:	b513      	push	{r0, r1, r4, lr}
  va_list arp;
  if( xSemaphoreTake( mutex, 100 ) == pdTRUE )
 8008768:	4c0c      	ldr	r4, [pc, #48]	; (800879c <xprintf+0x38>)
 800876a:	2300      	movs	r3, #0
 800876c:	2264      	movs	r2, #100	; 0x64
 800876e:	4619      	mov	r1, r3
 8008770:	6820      	ldr	r0, [r4, #0]
 8008772:	f002 fc19 	bl	800afa8 <xQueueGenericReceive>
 8008776:	2801      	cmp	r0, #1
 8008778:	d10a      	bne.n	8008790 <xprintf+0x2c>
    {

      va_start(arp, fmt);
 800877a:	a905      	add	r1, sp, #20
      xvprintf(fmt, arp);
 800877c:	9804      	ldr	r0, [sp, #16]
{
  va_list arp;
  if( xSemaphoreTake( mutex, 100 ) == pdTRUE )
    {

      va_start(arp, fmt);
 800877e:	9101      	str	r1, [sp, #4]
      xvprintf(fmt, arp);
 8008780:	f7ff ff1b 	bl	80085ba <xvprintf>
      va_end(arp);
      xSemaphoreGive(mutex);
 8008784:	2300      	movs	r3, #0
 8008786:	461a      	mov	r2, r3
 8008788:	4619      	mov	r1, r3
 800878a:	6820      	ldr	r0, [r4, #0]
 800878c:	f002 fb09 	bl	800ada2 <xQueueGenericSend>
    }
}
 8008790:	b002      	add	sp, #8
 8008792:	e8bd 4010 	ldmia.w	sp!, {r4, lr}
 8008796:	b004      	add	sp, #16
 8008798:	4770      	bx	lr
 800879a:	bf00      	nop
 800879c:	2001ac28 	.word	0x2001ac28

080087a0 <xsprintf>:
void xsprintf (			/* Put a formatted string to the memory */
  char* buff,			/* Pointer to the output buffer */
  const char*	fmt,	/* Pointer to the format string */
  ...					/* Optional arguments */
)
{
 80087a0:	b40e      	push	{r1, r2, r3}
 80087a2:	b517      	push	{r0, r1, r2, r4, lr}
 80087a4:	a905      	add	r1, sp, #20
  va_list arp;


  outptr = buff;		/* Switch destination for memory */
 80087a6:	4c08      	ldr	r4, [pc, #32]	; (80087c8 <xsprintf+0x28>)
void xsprintf (			/* Put a formatted string to the memory */
  char* buff,			/* Pointer to the output buffer */
  const char*	fmt,	/* Pointer to the format string */
  ...					/* Optional arguments */
)
{
 80087a8:	f851 3b04 	ldr.w	r3, [r1], #4
  va_list arp;


  outptr = buff;		/* Switch destination for memory */
 80087ac:	6060      	str	r0, [r4, #4]

  va_start(arp, fmt);
  xvprintf(fmt, arp);
 80087ae:	4618      	mov	r0, r3
  va_list arp;


  outptr = buff;		/* Switch destination for memory */

  va_start(arp, fmt);
 80087b0:	9101      	str	r1, [sp, #4]
  xvprintf(fmt, arp);
 80087b2:	f7ff ff02 	bl	80085ba <xvprintf>
  va_end(arp);

  *outptr = 0;		/* Terminate output string with a \0 */
 80087b6:	6862      	ldr	r2, [r4, #4]
 80087b8:	2300      	movs	r3, #0
 80087ba:	7013      	strb	r3, [r2, #0]
  outptr = 0;			/* Switch destination for device */
 80087bc:	6063      	str	r3, [r4, #4]
}
 80087be:	b003      	add	sp, #12
 80087c0:	e8bd 4010 	ldmia.w	sp!, {r4, lr}
 80087c4:	b003      	add	sp, #12
 80087c6:	4770      	bx	lr
 80087c8:	2001ac28 	.word	0x2001ac28

080087cc <messageProcessorInit>:
#define LEDBLINK(arg_diode, arg_num) LEDblink(arg_diode, arg_num, 400, 300, 200, 400)


void messageProcessorInit(void);
void messageProcessorInit(void)
{
 80087cc:	4770      	bx	lr
	...

080087d0 <msgTab>:
comm_t *msgTab(uint8_t code)
{
  int i;
  for (i = 0; i < sizeof(MSG_TYPES_TAB) / sizeof(MSG_TYPES_TAB[0]); i++)
    {
      if(MSG_TYPES_TAB[i].size == 0) continue;
 80087d0:	4908      	ldr	r1, [pc, #32]	; (80087f4 <msgTab+0x24>)
{
}

//Get MSG_TYPES_TAB entry from message code
comm_t *msgTab(uint8_t code)
{
 80087d2:	b530      	push	{r4, r5, lr}
  int i;
  for (i = 0; i < sizeof(MSG_TYPES_TAB) / sizeof(MSG_TYPES_TAB[0]); i++)
 80087d4:	2200      	movs	r2, #0
    {
      if(MSG_TYPES_TAB[i].size == 0) continue;
 80087d6:	244c      	movs	r4, #76	; 0x4c
 80087d8:	fb04 1302 	mla	r3, r4, r2, r1
 80087dc:	685d      	ldr	r5, [r3, #4]
 80087de:	b125      	cbz	r5, 80087ea <msgTab+0x1a>
      if (code == MSG_TYPES_TAB[i].code)
 80087e0:	681d      	ldr	r5, [r3, #0]
 80087e2:	42a8      	cmp	r0, r5
 80087e4:	d101      	bne.n	80087ea <msgTab+0x1a>
        return &MSG_TYPES_TAB[i];//Found message in MSG_TYPES_TAB
 80087e6:	4618      	mov	r0, r3
 80087e8:	bd30      	pop	{r4, r5, pc}

//Get MSG_TYPES_TAB entry from message code
comm_t *msgTab(uint8_t code)
{
  int i;
  for (i = 0; i < sizeof(MSG_TYPES_TAB) / sizeof(MSG_TYPES_TAB[0]); i++)
 80087ea:	3201      	adds	r2, #1
 80087ec:	2a16      	cmp	r2, #22
 80087ee:	d1f3      	bne.n	80087d8 <msgTab+0x8>
    {
      if(MSG_TYPES_TAB[i].size == 0) continue;
      if (code == MSG_TYPES_TAB[i].code)
        return &MSG_TYPES_TAB[i];//Found message in MSG_TYPES_TAB
    }
  return NULL;
 80087f0:	2000      	movs	r0, #0
}
 80087f2:	bd30      	pop	{r4, r5, pc}
 80087f4:	2001a1e4 	.word	0x2001a1e4

080087f8 <expectedMsgSize>:

//Get expected message type
int expectedMsgSize(portNum_t portNum, comm_t *msgType)
{
  if (msgType) return (portNum == CEN_PORT)?msgType->size:msgType->size_RX;
 80087f8:	b121      	cbz	r1, 8008804 <expectedMsgSize+0xc>
 80087fa:	b908      	cbnz	r0, 8008800 <expectedMsgSize+0x8>
 80087fc:	6848      	ldr	r0, [r1, #4]
 80087fe:	4770      	bx	lr
 8008800:	6948      	ldr	r0, [r1, #20]
 8008802:	4770      	bx	lr
  return 0;
 8008804:	4608      	mov	r0, r1
}
 8008806:	4770      	bx	lr

08008808 <communicatorRx>:
      bits >>= 1;
    }
}

void communicatorRx(portNum_t portNum, char *buffer, int bufferSize, uint8_t gen)
{
 8008808:	e92d 4ff0 	stmdb	sp!, {r4, r5, r6, r7, r8, r9, sl, fp, lr}

  //Check message type and size
  comm_t *msgType = msgTab(buffer[0]);
 800880c:	460f      	mov	r7, r1
      bits >>= 1;
    }
}

void communicatorRx(portNum_t portNum, char *buffer, int bufferSize, uint8_t gen)
{
 800880e:	b089      	sub	sp, #36	; 0x24

  //Check message type and size
  comm_t *msgType = msgTab(buffer[0]);
 8008810:	f817 a914 	ldrb.w	sl, [r7], #-20
      bits >>= 1;
    }
}

void communicatorRx(portNum_t portNum, char *buffer, int bufferSize, uint8_t gen)
{
 8008814:	4680      	mov	r8, r0

  //Check message type and size
  comm_t *msgType = msgTab(buffer[0]);
 8008816:	4650      	mov	r0, sl
      bits >>= 1;
    }
}

void communicatorRx(portNum_t portNum, char *buffer, int bufferSize, uint8_t gen)
{
 8008818:	460d      	mov	r5, r1
 800881a:	4691      	mov	r9, r2
 800881c:	461c      	mov	r4, r3

  //Check message type and size
  comm_t *msgType = msgTab(buffer[0]);
 800881e:	f7ff ffd7 	bl	80087d0 <msgTab>
  if (!msgType)
 8008822:	4606      	mov	r6, r0
 8008824:	b950      	cbnz	r0, 800883c <communicatorRx+0x34>
    {
      dprintf(LL_WARNING, "Unknown message %x received on port %d\n", buffer[0], portNum);
 8008826:	4ba7      	ldr	r3, [pc, #668]	; (8008ac4 <communicatorRx+0x2bc>)
 8008828:	6d1b      	ldr	r3, [r3, #80]	; 0x50
 800882a:	2b00      	cmp	r3, #0
 800882c:	f340 811c 	ble.w	8008a68 <communicatorRx+0x260>
 8008830:	4642      	mov	r2, r8
 8008832:	4651      	mov	r1, sl
 8008834:	48a4      	ldr	r0, [pc, #656]	; (8008ac8 <communicatorRx+0x2c0>)
 8008836:	f7ff ff95 	bl	8008764 <xprintf>
 800883a:	e115      	b.n	8008a68 <communicatorRx+0x260>
      dFree(buffer);
      return;
    }

  //Check message size
  if (expectedMsgSize(portNum, msgType) > bufferSize)
 800883c:	4601      	mov	r1, r0
 800883e:	4640      	mov	r0, r8
 8008840:	f7ff ffda 	bl	80087f8 <expectedMsgSize>
 8008844:	4548      	cmp	r0, r9
 8008846:	dd0e      	ble.n	8008866 <communicatorRx+0x5e>
    {
      dprintf(LL_WARNING, "Incomplete message %x received on port %d\n", buffer[0], portNum);
 8008848:	4b9e      	ldr	r3, [pc, #632]	; (8008ac4 <communicatorRx+0x2bc>)
 800884a:	6d1b      	ldr	r3, [r3, #80]	; 0x50
 800884c:	2b00      	cmp	r3, #0
 800884e:	dd04      	ble.n	800885a <communicatorRx+0x52>
 8008850:	4642      	mov	r2, r8
 8008852:	4651      	mov	r1, sl
 8008854:	489d      	ldr	r0, [pc, #628]	; (8008acc <communicatorRx+0x2c4>)
 8008856:	f7ff ff85 	bl	8008764 <xprintf>
      //Timeout on receive. Message too short
      Timeout_Data(portNum, buffer, bufferSize);
 800885a:	464a      	mov	r2, r9
 800885c:	4629      	mov	r1, r5
 800885e:	4640      	mov	r0, r8
 8008860:	f000 fdce 	bl	8009400 <Timeout_Data>
 8008864:	e100      	b.n	8008a68 <communicatorRx+0x260>
      dFree(buffer);
      return;
    }

  bBuffer_t *bBuffer = bBufferFromData(buffer);
  bBuffer->size = bufferSize;
 8008866:	f825 9c14 	strh.w	r9, [r5, #-20]
  bBuffer->timestamp = xTaskGetTickCount() + msgType->timeout;
 800886a:	f001 ff1b 	bl	800a6a4 <xTaskGetTickCount>
 800886e:	6a33      	ldr	r3, [r6, #32]
 8008870:	eb06 0288 	add.w	r2, r6, r8, lsl #2
 8008874:	4418      	add	r0, r3
  bBuffer->privateData = 0;
 8008876:	2300      	movs	r3, #0
      return;
    }

  bBuffer_t *bBuffer = bBufferFromData(buffer);
  bBuffer->size = bufferSize;
  bBuffer->timestamp = xTaskGetTickCount() + msgType->timeout;
 8008878:	f845 0c0c 	str.w	r0, [r5, #-12]
  bBuffer->privateData = 0;
 800887c:	f845 3c08 	str.w	r3, [r5, #-8]
  msgType->received[portNum]++;
 8008880:	6a93      	ldr	r3, [r2, #40]	; 0x28
 8008882:	3301      	adds	r3, #1
 8008884:	6293      	str	r3, [r2, #40]	; 0x28

  if(msgType->blocked)
 8008886:	6a73      	ldr	r3, [r6, #36]	; 0x24
 8008888:	2b00      	cmp	r3, #0
 800888a:	f040 80ed 	bne.w	8008a68 <communicatorRx+0x260>
    {
      dFree(buffer);
      return;
    }

  if(cfg.trace_messages)
 800888e:	4b8d      	ldr	r3, [pc, #564]	; (8008ac4 <communicatorRx+0x2bc>)
 8008890:	69da      	ldr	r2, [r3, #28]
 8008892:	4699      	mov	r9, r3
 8008894:	2a00      	cmp	r2, #0
 8008896:	d045      	beq.n	8008924 <communicatorRx+0x11c>
    {
      switch(buffer[0])
 8008898:	782b      	ldrb	r3, [r5, #0]
 800889a:	2bb1      	cmp	r3, #177	; 0xb1
 800889c:	d805      	bhi.n	80088aa <communicatorRx+0xa2>
 800889e:	2bb0      	cmp	r3, #176	; 0xb0
 80088a0:	d209      	bcs.n	80088b6 <communicatorRx+0xae>
 80088a2:	2b55      	cmp	r3, #85	; 0x55
 80088a4:	d003      	beq.n	80088ae <communicatorRx+0xa6>
 80088a6:	2ba2      	cmp	r3, #162	; 0xa2
 80088a8:	e000      	b.n	80088ac <communicatorRx+0xa4>
 80088aa:	2bcc      	cmp	r3, #204	; 0xcc
 80088ac:	d107      	bne.n	80088be <communicatorRx+0xb6>
        {
        case 0xA2:
        case 0xCC:
        case 0x55:
          if(cfg.trace_messages < 3)
 80088ae:	f8d9 201c 	ldr.w	r2, [r9, #28]
 80088b2:	2a02      	cmp	r2, #2
 80088b4:	dd36      	ble.n	8008924 <communicatorRx+0x11c>
            break;
        case 0xB0:
        case 0xB1:
          if(cfg.trace_messages < 2)
 80088b6:	f8d9 201c 	ldr.w	r2, [r9, #28]
 80088ba:	2a01      	cmp	r2, #1
 80088bc:	dd32      	ble.n	8008924 <communicatorRx+0x11c>
            break;
        default:
        {
          if(cfg.trace_messages <= 3 || cfg.trace_messages == buffer[0])
 80088be:	f8d9 201c 	ldr.w	r2, [r9, #28]
 80088c2:	2a03      	cmp	r2, #3
 80088c4:	dd03      	ble.n	80088ce <communicatorRx+0xc6>
 80088c6:	4a7f      	ldr	r2, [pc, #508]	; (8008ac4 <communicatorRx+0x2bc>)
 80088c8:	69d2      	ldr	r2, [r2, #28]
 80088ca:	429a      	cmp	r2, r3
 80088cc:	d12a      	bne.n	8008924 <communicatorRx+0x11c>
            {
              dprintf(LL_INFO, "(%010d)Msg %x %s from %s(size %d): ", xTaskGetTickCount(), buffer[0], gen?"gen":"rcvd", portStr[portNum], bBuffer->size);
 80088ce:	f8d9 3050 	ldr.w	r3, [r9, #80]	; 0x50
 80088d2:	2b01      	cmp	r3, #1
 80088d4:	dd12      	ble.n	80088fc <communicatorRx+0xf4>
 80088d6:	f001 fee5 	bl	800a6a4 <xTaskGetTickCount>
 80088da:	f835 3c14 	ldrh.w	r3, [r5, #-20]
 80088de:	9301      	str	r3, [sp, #4]
 80088e0:	4b7b      	ldr	r3, [pc, #492]	; (8008ad0 <communicatorRx+0x2c8>)
 80088e2:	497c      	ldr	r1, [pc, #496]	; (8008ad4 <communicatorRx+0x2cc>)
 80088e4:	f853 3028 	ldr.w	r3, [r3, r8, lsl #2]
 80088e8:	9300      	str	r3, [sp, #0]
 80088ea:	4b7b      	ldr	r3, [pc, #492]	; (8008ad8 <communicatorRx+0x2d0>)
 80088ec:	782a      	ldrb	r2, [r5, #0]
 80088ee:	2c00      	cmp	r4, #0
 80088f0:	bf18      	it	ne
 80088f2:	460b      	movne	r3, r1
 80088f4:	4601      	mov	r1, r0
 80088f6:	4879      	ldr	r0, [pc, #484]	; (8008adc <communicatorRx+0x2d4>)
 80088f8:	f7ff ff34 	bl	8008764 <xprintf>
 80088fc:	2400      	movs	r4, #0
              int i;
              for(i = 0; i < bBuffer->size; i++)
 80088fe:	f835 3c14 	ldrh.w	r3, [r5, #-20]
 8008902:	429c      	cmp	r4, r3
                dprintf(LL_INFO, "%02x ", buffer[i]);
 8008904:	f8d9 3050 	ldr.w	r3, [r9, #80]	; 0x50
        {
          if(cfg.trace_messages <= 3 || cfg.trace_messages == buffer[0])
            {
              dprintf(LL_INFO, "(%010d)Msg %x %s from %s(size %d): ", xTaskGetTickCount(), buffer[0], gen?"gen":"rcvd", portStr[portNum], bBuffer->size);
              int i;
              for(i = 0; i < bBuffer->size; i++)
 8008908:	da07      	bge.n	800891a <communicatorRx+0x112>
                dprintf(LL_INFO, "%02x ", buffer[i]);
 800890a:	2b01      	cmp	r3, #1
 800890c:	dd03      	ble.n	8008916 <communicatorRx+0x10e>
 800890e:	5d29      	ldrb	r1, [r5, r4]
 8008910:	4873      	ldr	r0, [pc, #460]	; (8008ae0 <communicatorRx+0x2d8>)
 8008912:	f7ff ff27 	bl	8008764 <xprintf>
        {
          if(cfg.trace_messages <= 3 || cfg.trace_messages == buffer[0])
            {
              dprintf(LL_INFO, "(%010d)Msg %x %s from %s(size %d): ", xTaskGetTickCount(), buffer[0], gen?"gen":"rcvd", portStr[portNum], bBuffer->size);
              int i;
              for(i = 0; i < bBuffer->size; i++)
 8008916:	3401      	adds	r4, #1
 8008918:	e7f1      	b.n	80088fe <communicatorRx+0xf6>
                dprintf(LL_INFO, "%02x ", buffer[i]);
              dprintf(LL_INFO, "\n");
 800891a:	2b01      	cmp	r3, #1
 800891c:	dd02      	ble.n	8008924 <communicatorRx+0x11c>
 800891e:	4871      	ldr	r0, [pc, #452]	; (8008ae4 <communicatorRx+0x2dc>)
 8008920:	f7ff ff20 	bl	8008764 <xprintf>
        break;
        }
    }

  int processLocally = 0;
  if (portNum == CEN_PORT)
 8008924:	f1b8 0f00 	cmp.w	r8, #0
 8008928:	d050      	beq.n	80089cc <communicatorRx+0x1c4>
      processLocally = 1;
    }
  else
    {
      //from PER
      if (msgType->type == NEG_CONFIRMATION)
 800892a:	68b4      	ldr	r4, [r6, #8]
 800892c:	2c01      	cmp	r4, #1
 800892e:	d124      	bne.n	800897a <communicatorRx+0x172>
        {
          //Negative confirmation
          //Find a message refered by this nACK
          comm_t *msgACK = msgTab(msgType->nackCode);
 8008930:	68f0      	ldr	r0, [r6, #12]
 8008932:	b2c0      	uxtb	r0, r0
 8008934:	f7ff ff4c 	bl	80087d0 <msgTab>
          bBuffer_t *buf = msgACK->buffers;
 8008938:	4683      	mov	fp, r0
      //from PER
      if (msgType->type == NEG_CONFIRMATION)
        {
          //Negative confirmation
          //Find a message refered by this nACK
          comm_t *msgACK = msgTab(msgType->nackCode);
 800893a:	9003      	str	r0, [sp, #12]
          bBuffer_t *buf = msgACK->buffers;
          while(buf)
            {
              bBuffer_t *next = buf->next;
              if (!memcmp(&buf->data[1], &bBuffer->data[1], msgACK->size_RX-1))
 800893c:	1c6b      	adds	r3, r5, #1
      if (msgType->type == NEG_CONFIRMATION)
        {
          //Negative confirmation
          //Find a message refered by this nACK
          comm_t *msgACK = msgTab(msgType->nackCode);
          bBuffer_t *buf = msgACK->buffers;
 800893e:	f85b af48 	ldr.w	sl, [fp, #72]!
          while(buf)
            {
              bBuffer_t *next = buf->next;
              if (!memcmp(&buf->data[1], &bBuffer->data[1], msgACK->size_RX-1))
 8008942:	9305      	str	r3, [sp, #20]
        }
        break;
        }
    }

  int processLocally = 0;
 8008944:	2400      	movs	r4, #0
        {
          //Negative confirmation
          //Find a message refered by this nACK
          comm_t *msgACK = msgTab(msgType->nackCode);
          bBuffer_t *buf = msgACK->buffers;
          while(buf)
 8008946:	f1ba 0f00 	cmp.w	sl, #0
 800894a:	d042      	beq.n	80089d2 <communicatorRx+0x1ca>
            {
              bBuffer_t *next = buf->next;
 800894c:	f8da 3010 	ldr.w	r3, [sl, #16]
 8008950:	9304      	str	r3, [sp, #16]
              if (!memcmp(&buf->data[1], &bBuffer->data[1], msgACK->size_RX-1))
 8008952:	9b03      	ldr	r3, [sp, #12]
 8008954:	9905      	ldr	r1, [sp, #20]
 8008956:	695a      	ldr	r2, [r3, #20]
 8008958:	f10a 0015 	add.w	r0, sl, #21
 800895c:	3a01      	subs	r2, #1
 800895e:	f00b fd45 	bl	80143ec <memcmp>
 8008962:	b938      	cbnz	r0, 8008974 <communicatorRx+0x16c>
                {
                  //Message found. Delete it
                  bRemove(&(msgACK->buffers), buf);
 8008964:	4651      	mov	r1, sl
 8008966:	4658      	mov	r0, fp
 8008968:	f004 fe4e 	bl	800d608 <bRemove>
                  bFree(buf);
 800896c:	4650      	mov	r0, sl
 800896e:	f005 f8b9 	bl	800dae4 <bFree>
                  processLocally = 1;
 8008972:	2401      	movs	r4, #1
 8008974:	f8dd a010 	ldr.w	sl, [sp, #16]
 8008978:	e7e5      	b.n	8008946 <communicatorRx+0x13e>
 800897a:	2201      	movs	r2, #1
              buf = next;
            }
        }
      else
        {
          if(msgType->type == CONF_TIMEOUT)
 800897c:	bb44      	cbnz	r4, 80089d0 <communicatorRx+0x1c8>
                  bBuffer_t *next = buf->next;
                  if (!memcmp(buf->data, bBuffer->data, msgType->size_RX))
                    {
                      //Message found.
                      //Clear flag
                      buf->privateData &= ~(1<<(portNum - PER1_PORT));
 800897e:	f108 31ff 	add.w	r1, r8, #4294967295
        {
          if(msgType->type == CONF_TIMEOUT)
            {
              //Positive confirmation
              //Find a message refered by this ACK
              bBuffer_t *buf = msgType->buffers;
 8008982:	46b3      	mov	fp, r6
                  bBuffer_t *next = buf->next;
                  if (!memcmp(buf->data, bBuffer->data, msgType->size_RX))
                    {
                      //Message found.
                      //Clear flag
                      buf->privateData &= ~(1<<(portNum - PER1_PORT));
 8008984:	408a      	lsls	r2, r1
 8008986:	43d3      	mvns	r3, r2
        {
          if(msgType->type == CONF_TIMEOUT)
            {
              //Positive confirmation
              //Find a message refered by this ACK
              bBuffer_t *buf = msgType->buffers;
 8008988:	f85b af48 	ldr.w	sl, [fp, #72]!
                  bBuffer_t *next = buf->next;
                  if (!memcmp(buf->data, bBuffer->data, msgType->size_RX))
                    {
                      //Message found.
                      //Clear flag
                      buf->privateData &= ~(1<<(portNum - PER1_PORT));
 800898c:	9304      	str	r3, [sp, #16]
          if(msgType->type == CONF_TIMEOUT)
            {
              //Positive confirmation
              //Find a message refered by this ACK
              bBuffer_t *buf = msgType->buffers;
              while(buf)
 800898e:	f1ba 0f00 	cmp.w	sl, #0
 8008992:	d01e      	beq.n	80089d2 <communicatorRx+0x1ca>
                {
                  bBuffer_t *next = buf->next;
 8008994:	f8da 3010 	ldr.w	r3, [sl, #16]
 8008998:	9303      	str	r3, [sp, #12]
                  if (!memcmp(buf->data, bBuffer->data, msgType->size_RX))
 800899a:	6972      	ldr	r2, [r6, #20]
 800899c:	4629      	mov	r1, r5
 800899e:	f10a 0014 	add.w	r0, sl, #20
 80089a2:	f00b fd23 	bl	80143ec <memcmp>
 80089a6:	b970      	cbnz	r0, 80089c6 <communicatorRx+0x1be>
                    {
                      //Message found.
                      //Clear flag
                      buf->privateData &= ~(1<<(portNum - PER1_PORT));
 80089a8:	f8da 200c 	ldr.w	r2, [sl, #12]
 80089ac:	9b04      	ldr	r3, [sp, #16]
 80089ae:	401a      	ands	r2, r3
 80089b0:	f8ca 200c 	str.w	r2, [sl, #12]
                      if(!buf->privateData)
 80089b4:	b93a      	cbnz	r2, 80089c6 <communicatorRx+0x1be>
                        {
                          //No more confirmations needed
                          bRemove(&(msgType->buffers), buf);
 80089b6:	4651      	mov	r1, sl
 80089b8:	4658      	mov	r0, fp
 80089ba:	f004 fe25 	bl	800d608 <bRemove>
                          bFree(buf);
 80089be:	4650      	mov	r0, sl
 80089c0:	f005 f890 	bl	800dae4 <bFree>

                          processLocally = 1;
 80089c4:	2401      	movs	r4, #1
 80089c6:	f8dd a00c 	ldr.w	sl, [sp, #12]
 80089ca:	e7e0      	b.n	800898e <communicatorRx+0x186>
  if (portNum == CEN_PORT)
    {
      //from CEN

      //Process locally if necessary
      processLocally = 1;
 80089cc:	2401      	movs	r4, #1
 80089ce:	e000      	b.n	80089d2 <communicatorRx+0x1ca>
 80089d0:	4614      	mov	r4, r2
        }
    }

  int send = 0;

  uint8_t forwardMask = msgType->spk_flags;
 80089d2:	6933      	ldr	r3, [r6, #16]
 80089d4:	f88d 301f 	strb.w	r3, [sp, #31]
  if(processLocally)
 80089d8:	b34c      	cbz	r4, 8008a2e <communicatorRx+0x226>
    {
      if(msgType->type == NEG_CONFIRMATION) send |= CB_RET_nACK;
 80089da:	68b4      	ldr	r4, [r6, #8]
      if(msgType->type == CONF_TIMEOUT) send |= CB_RET_ACK;
      if(msgType->callback)
 80089dc:	f8d6 a040 	ldr.w	sl, [r6, #64]	; 0x40
  int send = 0;

  uint8_t forwardMask = msgType->spk_flags;
  if(processLocally)
    {
      if(msgType->type == NEG_CONFIRMATION) send |= CB_RET_nACK;
 80089e0:	2c01      	cmp	r4, #1
              processLocally = 1;
            }
        }
    }

  int send = 0;
 80089e2:	bf1a      	itte	ne
 80089e4:	fab4 f484 	clzne	r4, r4
 80089e8:	0964      	lsrne	r4, r4, #5

  uint8_t forwardMask = msgType->spk_flags;
  if(processLocally)
    {
      if(msgType->type == NEG_CONFIRMATION) send |= CB_RET_nACK;
 80089ea:	2402      	moveq	r4, #2
      if(msgType->type == CONF_TIMEOUT) send |= CB_RET_ACK;
      if(msgType->callback)
 80089ec:	f1ba 0f00 	cmp.w	sl, #0
 80089f0:	d006      	beq.n	8008a00 <communicatorRx+0x1f8>
        send = msgType->callback(portNum, msgType, bBuffer, &forwardMask);
 80089f2:	f10d 031f 	add.w	r3, sp, #31
 80089f6:	463a      	mov	r2, r7
 80089f8:	4631      	mov	r1, r6
 80089fa:	4640      	mov	r0, r8
 80089fc:	47d0      	blx	sl
 80089fe:	4604      	mov	r4, r0

      if(((send & CB_RET_nACK) && msgType->type == CONF_TIMEOUT)
 8008a00:	07a1      	lsls	r1, r4, #30
 8008a02:	d501      	bpl.n	8008a08 <communicatorRx+0x200>
 8008a04:	68b3      	ldr	r3, [r6, #8]
 8008a06:	b123      	cbz	r3, 8008a12 <communicatorRx+0x20a>
          || ((send & CB_RET_ACK) && msgType->type == NEG_CONFIRMATION))
 8008a08:	07e2      	lsls	r2, r4, #31
 8008a0a:	d504      	bpl.n	8008a16 <communicatorRx+0x20e>
 8008a0c:	68b3      	ldr	r3, [r6, #8]
 8008a0e:	2b01      	cmp	r3, #1
 8008a10:	d101      	bne.n	8008a16 <communicatorRx+0x20e>
        bBuffer->data[0] = msgType->nackCode;
 8008a12:	68f3      	ldr	r3, [r6, #12]
 8008a14:	702b      	strb	r3, [r5, #0]

      if(send&(CB_RET_nACK | CB_RET_ACK))
 8008a16:	07a3      	lsls	r3, r4, #30
 8008a18:	d009      	beq.n	8008a2e <communicatorRx+0x226>
        {
          bRef(bBuffer);
 8008a1a:	4638      	mov	r0, r7
 8008a1c:	f005 f9a0 	bl	800dd60 <bRef>
          messageTx(CEN_PORT, (void*)bBuffer->data, bBuffer->size, (uint32_t)bBuffer);
 8008a20:	463b      	mov	r3, r7
 8008a22:	f835 2c14 	ldrh.w	r2, [r5, #-20]
 8008a26:	4629      	mov	r1, r5
 8008a28:	2000      	movs	r0, #0
 8008a2a:	f003 f8bf 	bl	800bbac <messageTx>
        }
    }
#ifdef SMOK
  if(cfg.flags & FLAGS_FAKE_FORWARD_MASK)
 8008a2e:	f8d9 3038 	ldr.w	r3, [r9, #56]	; 0x38
 8008a32:	05d8      	lsls	r0, r3, #23
 8008a34:	d513      	bpl.n	8008a5e <communicatorRx+0x256>
    {
      //Fake forward. Respond with ACK
      if(forwardMask && DIRECTION(portNum) && (send & CB_RET_nACK) == 0)
 8008a36:	f89d 301f 	ldrb.w	r3, [sp, #31]
 8008a3a:	b183      	cbz	r3, 8008a5e <communicatorRx+0x256>
 8008a3c:	f1b8 0f00 	cmp.w	r8, #0
 8008a40:	d10d      	bne.n	8008a5e <communicatorRx+0x256>
 8008a42:	07a1      	lsls	r1, r4, #30
 8008a44:	d40b      	bmi.n	8008a5e <communicatorRx+0x256>
        {
          //Send ACK
          bRef(bBuffer);
 8008a46:	4638      	mov	r0, r7
 8008a48:	f005 f98a 	bl	800dd60 <bRef>
          messageTx(CEN_PORT, (void*)bBuffer->data, bBuffer->size, (uint32_t)bBuffer);
 8008a4c:	463b      	mov	r3, r7
 8008a4e:	f835 2c14 	ldrh.w	r2, [r5, #-20]
 8008a52:	4629      	mov	r1, r5
 8008a54:	4640      	mov	r0, r8
 8008a56:	f003 f8a9 	bl	800bbac <messageTx>
          forwardMask = 0;
 8008a5a:	f88d 801f 	strb.w	r8, [sp, #31]
        }
    }
#endif
  //Send further?
  if(forwardMask && DIRECTION(portNum) && (send & CB_RET_nACK) == 0)
 8008a5e:	f89d 901f 	ldrb.w	r9, [sp, #31]
 8008a62:	f1b9 0f00 	cmp.w	r9, #0
 8008a66:	d105      	bne.n	8008a74 <communicatorRx+0x26c>
    forwardMessage(bBuffer, msgType, forwardMask);


  //Release the incoming buffer
  bFree(bBuffer);
 8008a68:	4638      	mov	r0, r7
 8008a6a:	f005 f83b 	bl	800dae4 <bFree>
}
 8008a6e:	b009      	add	sp, #36	; 0x24
 8008a70:	e8bd 8ff0 	ldmia.w	sp!, {r4, r5, r6, r7, r8, r9, sl, fp, pc}
          forwardMask = 0;
        }
    }
#endif
  //Send further?
  if(forwardMask && DIRECTION(portNum) && (send & CB_RET_nACK) == 0)
 8008a74:	f1b8 0f00 	cmp.w	r8, #0
 8008a78:	d1f6      	bne.n	8008a68 <communicatorRx+0x260>
 8008a7a:	07a2      	lsls	r2, r4, #30
 8008a7c:	d4f4      	bmi.n	8008a68 <communicatorRx+0x260>
}

static void forwardMessage(bBuffer_t *bBuffer, comm_t *msgType, uint8_t forwardMask)
{
  //Store the message
  bBuffer->timestamp = xTaskGetTickCount() + msgType->timeout;
 8008a7e:	f001 fe11 	bl	800a6a4 <xTaskGetTickCount>
 8008a82:	6a33      	ldr	r3, [r6, #32]
  bBuffer->privateData = forwardMask;
 8008a84:	f845 9c08 	str.w	r9, [r5, #-8]
}

static void forwardMessage(bBuffer_t *bBuffer, comm_t *msgType, uint8_t forwardMask)
{
  //Store the message
  bBuffer->timestamp = xTaskGetTickCount() + msgType->timeout;
 8008a88:	4418      	add	r0, r3
 8008a8a:	f845 0c0c 	str.w	r0, [r5, #-12]
  bBuffer->privateData = forwardMask;
  bAdd(&(msgType->buffers), bBuffer);
 8008a8e:	4639      	mov	r1, r7
 8008a90:	f106 0048 	add.w	r0, r6, #72	; 0x48
 8008a94:	f004 fdb4 	bl	800d600 <bAdd>
  bRef(bBuffer);
 8008a98:	4638      	mov	r0, r7
 8008a9a:	f005 f961 	bl	800dd60 <bRef>
  int bits = forwardMask;
 8008a9e:	464c      	mov	r4, r9
  portNum_t sendPort = PER1_PORT;
 8008aa0:	2601      	movs	r6, #1
  while(bits)
    {
      if(bits & 1)
 8008aa2:	07e3      	lsls	r3, r4, #31
 8008aa4:	d509      	bpl.n	8008aba <communicatorRx+0x2b2>
        {
          //Send to the port
          bRef(bBuffer);
 8008aa6:	4638      	mov	r0, r7
 8008aa8:	f005 f95a 	bl	800dd60 <bRef>
          messageTx(sendPort, (void*)bBuffer->data, bBuffer->size, (uint32_t)bBuffer);
 8008aac:	463b      	mov	r3, r7
 8008aae:	f835 2c14 	ldrh.w	r2, [r5, #-20]
 8008ab2:	4629      	mov	r1, r5
 8008ab4:	4630      	mov	r0, r6
 8008ab6:	f003 f879 	bl	800bbac <messageTx>
        }
      sendPort++;
 8008aba:	3601      	adds	r6, #1
  bBuffer->privateData = forwardMask;
  bAdd(&(msgType->buffers), bBuffer);
  bRef(bBuffer);
  int bits = forwardMask;
  portNum_t sendPort = PER1_PORT;
  while(bits)
 8008abc:	1064      	asrs	r4, r4, #1
        {
          //Send to the port
          bRef(bBuffer);
          messageTx(sendPort, (void*)bBuffer->data, bBuffer->size, (uint32_t)bBuffer);
        }
      sendPort++;
 8008abe:	b2f6      	uxtb	r6, r6
  bBuffer->privateData = forwardMask;
  bAdd(&(msgType->buffers), bBuffer);
  bRef(bBuffer);
  int bits = forwardMask;
  portNum_t sendPort = PER1_PORT;
  while(bits)
 8008ac0:	d1ef      	bne.n	8008aa2 <communicatorRx+0x29a>
 8008ac2:	e7d1      	b.n	8008a68 <communicatorRx+0x260>
 8008ac4:	10001000 	.word	0x10001000
 8008ac8:	080147f2 	.word	0x080147f2
 8008acc:	0801481a 	.word	0x0801481a
 8008ad0:	2001abd8 	.word	0x2001abd8
 8008ad4:	080147e9 	.word	0x080147e9
 8008ad8:	080147ed 	.word	0x080147ed
 8008adc:	08014845 	.word	0x08014845
 8008ae0:	08014869 	.word	0x08014869
 8008ae4:	08014a9c 	.word	0x08014a9c

08008ae8 <communicatorTxComplete>:
  //Simulate message receiving from CEN. It will be sent further
  messageRx(CEN_PORT, (void*)msg->data, msg->size, 1);
}

void communicatorTxComplete(portNum_t portNum, int status, uint32_t handle)
{
 8008ae8:	4770      	bx	lr
	...

08008aec <communicatorPeriodic>:
}

void communicatorPeriodic(void)
{
 8008aec:	e92d 4ff8 	stmdb	sp!, {r3, r4, r5, r6, r7, r8, r9, sl, fp, lr}
  communicatorPeriodicPrivate();
 8008af0:	f000 fc92 	bl	8009418 <communicatorPeriodicPrivate>
 8008af4:	4e26      	ldr	r6, [pc, #152]	; (8008b90 <communicatorPeriodic+0xa4>)
  int i;
  for (i = 0; i < sizeof(MSG_TYPES_TAB) / sizeof(MSG_TYPES_TAB[0]); i++)
 8008af6:	f04f 0800 	mov.w	r8, #0
 8008afa:	46b1      	mov	r9, r6
    {
      if(MSG_TYPES_TAB[i].size == 0) continue;
 8008afc:	f04f 0a4c 	mov.w	sl, #76	; 0x4c
 8008b00:	fb0a 9508 	mla	r5, sl, r8, r9
 8008b04:	686b      	ldr	r3, [r5, #4]
 8008b06:	b943      	cbnz	r3, 8008b1a <communicatorPeriodic+0x2e>

void communicatorPeriodic(void)
{
  communicatorPeriodicPrivate();
  int i;
  for (i = 0; i < sizeof(MSG_TYPES_TAB) / sizeof(MSG_TYPES_TAB[0]); i++)
 8008b08:	f108 0801 	add.w	r8, r8, #1
 8008b0c:	f1b8 0f16 	cmp.w	r8, #22
 8008b10:	f106 064c 	add.w	r6, r6, #76	; 0x4c
 8008b14:	d1f4      	bne.n	8008b00 <communicatorPeriodic+0x14>
 8008b16:	e8bd 8ff8 	ldmia.w	sp!, {r3, r4, r5, r6, r7, r8, r9, sl, fp, pc}
    {
      if(MSG_TYPES_TAB[i].size == 0) continue;
      if(MSG_TYPES_TAB[i].type == CONF_TIMEOUT)
 8008b1a:	68ab      	ldr	r3, [r5, #8]
 8008b1c:	2b00      	cmp	r3, #0
 8008b1e:	d1f3      	bne.n	8008b08 <communicatorPeriodic+0x1c>
        {
          bBuffer_t *buf = MSG_TYPES_TAB[i].buffers;
 8008b20:	6cac      	ldr	r4, [r5, #72]	; 0x48
          while(buf)
 8008b22:	2c00      	cmp	r4, #0
 8008b24:	d0f0      	beq.n	8008b08 <communicatorPeriodic+0x1c>
            {
              bBuffer_t *next = buf->next;

              //Now check timeout expiry
              if (buf->timestamp < xTaskGetTickCount())
 8008b26:	68a7      	ldr	r7, [r4, #8]
      if(MSG_TYPES_TAB[i].type == CONF_TIMEOUT)
        {
          bBuffer_t *buf = MSG_TYPES_TAB[i].buffers;
          while(buf)
            {
              bBuffer_t *next = buf->next;
 8008b28:	f8d4 b010 	ldr.w	fp, [r4, #16]

              //Now check timeout expiry
              if (buf->timestamp < xTaskGetTickCount())
 8008b2c:	f001 fdba 	bl	800a6a4 <xTaskGetTickCount>
 8008b30:	4287      	cmp	r7, r0
 8008b32:	d22b      	bcs.n	8008b8c <communicatorPeriodic+0xa0>
                  //Check which speakers did not repond. Restart link.
                  portNum_t portNum;
                  int send = CB_RET_nACK;//assume nACK
                  for(portNum = PER1_PORT; portNum < PORTS_NUM; portNum++)
                    {
                      if((buf->privateData & (1<<(portNum-1))))
 8008b34:	68e3      	ldr	r3, [r4, #12]
 8008b36:	07d8      	lsls	r0, r3, #31
 8008b38:	d506      	bpl.n	8008b48 <communicatorPeriodic+0x5c>
                        {

#ifdef MADO
                          //                          SPIevent(portNum, SPI_EV_TYPE_LINK_ERROR);
#endif
                          if(MSG_TYPES_TAB[i].timeoutCallback)
 8008b3a:	6c6b      	ldr	r3, [r5, #68]	; 0x44
 8008b3c:	b123      	cbz	r3, 8008b48 <communicatorPeriodic+0x5c>
                            send = MSG_TYPES_TAB[i].timeoutCallback(portNum,  &MSG_TYPES_TAB[i]);
 8008b3e:	4631      	mov	r1, r6
 8008b40:	2001      	movs	r0, #1
 8008b42:	4798      	blx	r3
 8008b44:	4607      	mov	r7, r0
 8008b46:	e000      	b.n	8008b4a <communicatorPeriodic+0x5e>
                        {

#ifdef MADO
                          //                          SPIevent(portNum, SPI_EV_TYPE_LINK_ERROR);
#endif
                          if(MSG_TYPES_TAB[i].timeoutCallback)
 8008b48:	2702      	movs	r7, #2
                  //Check which speakers did not repond. Restart link.
                  portNum_t portNum;
                  int send = CB_RET_nACK;//assume nACK
                  for(portNum = PER1_PORT; portNum < PORTS_NUM; portNum++)
                    {
                      if((buf->privateData & (1<<(portNum-1))))
 8008b4a:	68e3      	ldr	r3, [r4, #12]
 8008b4c:	0799      	lsls	r1, r3, #30
 8008b4e:	d505      	bpl.n	8008b5c <communicatorPeriodic+0x70>
                        {

#ifdef MADO
                          //                          SPIevent(portNum, SPI_EV_TYPE_LINK_ERROR);
#endif
                          if(MSG_TYPES_TAB[i].timeoutCallback)
 8008b50:	6c6b      	ldr	r3, [r5, #68]	; 0x44
 8008b52:	b11b      	cbz	r3, 8008b5c <communicatorPeriodic+0x70>
                            send = MSG_TYPES_TAB[i].timeoutCallback(portNum,  &MSG_TYPES_TAB[i]);
 8008b54:	4631      	mov	r1, r6
 8008b56:	2002      	movs	r0, #2
 8008b58:	4798      	blx	r3
 8008b5a:	4607      	mov	r7, r0
                        }
                    }

                  if(buf->privateData)
 8008b5c:	68e3      	ldr	r3, [r4, #12]
 8008b5e:	b1ab      	cbz	r3, 8008b8c <communicatorPeriodic+0xa0>
                    {
                      //No confirmation came
                      //Remove message from table and send it as nACK
                      bRemove(&(MSG_TYPES_TAB[i].buffers), buf);
 8008b60:	4621      	mov	r1, r4
 8008b62:	f106 0048 	add.w	r0, r6, #72	; 0x48
 8008b66:	f004 fd4f 	bl	800d608 <bRemove>

                      if(MSG_TYPES_TAB[i].nackCode && send)
 8008b6a:	68eb      	ldr	r3, [r5, #12]
 8008b6c:	b15b      	cbz	r3, 8008b86 <communicatorPeriodic+0x9a>
 8008b6e:	b157      	cbz	r7, 8008b86 <communicatorPeriodic+0x9a>
                        {
                          //Send nACK/ACK to CEN
                          if(send &CB_RET_nACK)
 8008b70:	07ba      	lsls	r2, r7, #30
                            buf->data[0] = MSG_TYPES_TAB[i].nackCode;
                          messageTx(CEN_PORT, (void*)buf->data, buf->size, (uint32_t)buf);
 8008b72:	4621      	mov	r1, r4

                      if(MSG_TYPES_TAB[i].nackCode && send)
                        {
                          //Send nACK/ACK to CEN
                          if(send &CB_RET_nACK)
                            buf->data[0] = MSG_TYPES_TAB[i].nackCode;
 8008b74:	bf48      	it	mi
 8008b76:	7523      	strbmi	r3, [r4, #20]
                          messageTx(CEN_PORT, (void*)buf->data, buf->size, (uint32_t)buf);
 8008b78:	f831 2b14 	ldrh.w	r2, [r1], #20
 8008b7c:	4623      	mov	r3, r4
 8008b7e:	2000      	movs	r0, #0
 8008b80:	f003 f814 	bl	800bbac <messageTx>
 8008b84:	e002      	b.n	8008b8c <communicatorPeriodic+0xa0>
                        }
                      else
                        bFree(buf);
 8008b86:	4620      	mov	r0, r4
 8008b88:	f004 ffac 	bl	800dae4 <bFree>
                        {

#ifdef MADO
                          //                          SPIevent(portNum, SPI_EV_TYPE_LINK_ERROR);
#endif
                          if(MSG_TYPES_TAB[i].timeoutCallback)
 8008b8c:	465c      	mov	r4, fp
 8008b8e:	e7c8      	b.n	8008b22 <communicatorPeriodic+0x36>
 8008b90:	2001a1e4 	.word	0x2001a1e4

08008b94 <sendKANow>:

void __attribute__((weak))connectionState(netState_e state)
{
}
void __attribute__((weak))sendKANow(portNum_t portNum)
{
 8008b94:	4770      	bx	lr
	...

08008b98 <lockNonFlashMessages>:
void lockNonFlashMessages(uint8_t lock)
{
  int i;
  for (i = 0; i < sizeof(MSG_TYPES_TAB) / sizeof(MSG_TYPES_TAB[0]); i++)
    {
      if(MSG_TYPES_TAB[i].size == 0) continue;
 8008b98:	490d      	ldr	r1, [pc, #52]	; (8008bd0 <lockNonFlashMessages+0x38>)
    }
  return CEN_PORT;
}

void lockNonFlashMessages(uint8_t lock)
{
 8008b9a:	b570      	push	{r4, r5, r6, lr}
  int i;
  for (i = 0; i < sizeof(MSG_TYPES_TAB) / sizeof(MSG_TYPES_TAB[0]); i++)
 8008b9c:	2300      	movs	r3, #0
    {
      if(MSG_TYPES_TAB[i].size == 0) continue;
 8008b9e:	244c      	movs	r4, #76	; 0x4c
 8008ba0:	460d      	mov	r5, r1
 8008ba2:	fb04 1203 	mla	r2, r4, r3, r1
 8008ba6:	6856      	ldr	r6, [r2, #4]
 8008ba8:	b16e      	cbz	r6, 8008bc6 <lockNonFlashMessages+0x2e>
      switch(MSG_TYPES_TAB[i].code)
 8008baa:	6812      	ldr	r2, [r2, #0]
 8008bac:	2ac2      	cmp	r2, #194	; 0xc2
 8008bae:	dc05      	bgt.n	8008bbc <lockNonFlashMessages+0x24>
 8008bb0:	2ac1      	cmp	r2, #193	; 0xc1
 8008bb2:	da08      	bge.n	8008bc6 <lockNonFlashMessages+0x2e>
 8008bb4:	2a55      	cmp	r2, #85	; 0x55
 8008bb6:	d006      	beq.n	8008bc6 <lockNonFlashMessages+0x2e>
 8008bb8:	2aa2      	cmp	r2, #162	; 0xa2
 8008bba:	e000      	b.n	8008bbe <lockNonFlashMessages+0x26>
 8008bbc:	2acc      	cmp	r2, #204	; 0xcc
        case 0xC1:
        case 0xC2:
          //Do not block
          break;
        default:
          MSG_TYPES_TAB[i].blocked = lock;
 8008bbe:	bf1c      	itt	ne
 8008bc0:	fb04 5203 	mlane	r2, r4, r3, r5
 8008bc4:	6250      	strne	r0, [r2, #36]	; 0x24
}

void lockNonFlashMessages(uint8_t lock)
{
  int i;
  for (i = 0; i < sizeof(MSG_TYPES_TAB) / sizeof(MSG_TYPES_TAB[0]); i++)
 8008bc6:	3301      	adds	r3, #1
 8008bc8:	2b16      	cmp	r3, #22
 8008bca:	d1ea      	bne.n	8008ba2 <lockNonFlashMessages+0xa>
          break;

        }
    }

}
 8008bcc:	bd70      	pop	{r4, r5, r6, pc}
 8008bce:	bf00      	nop
 8008bd0:	2001a1e4 	.word	0x2001a1e4

08008bd4 <msgnACK>:
  return CB_RET_ACK;
}

static int msgnACK(portNum_t portNum, comm_t *comm, bBuffer_t *bBuffer, uint8_t *forwardMask)
{
  if(DIRECTION(portNum)) return 0;
 8008bd4:	2800      	cmp	r0, #0
  return CB_RET_nACK;
}
 8008bd6:	bf14      	ite	ne
 8008bd8:	2002      	movne	r0, #2
 8008bda:	2000      	moveq	r0, #0
 8008bdc:	4770      	bx	lr
	...

08008be0 <msgNegOn>:
}

static int msgNegOn(portNum_t portNum, comm_t *comm, bBuffer_t *bBuffer, uint8_t *forwardMask)
{
  //  msg_51_t *data = (void *)bBuffer->data;
  if(cfg.ack50)
 8008be0:	4b03      	ldr	r3, [pc, #12]	; (8008bf0 <msgNegOn+0x10>)
 8008be2:	689b      	ldr	r3, [r3, #8]
 8008be4:	2b00      	cmp	r3, #0
    {
      return CB_RET_nACK;
    }
  //Send ACK instead of nACK
  return CB_RET_ACK;
}
 8008be6:	bf14      	ite	ne
 8008be8:	2002      	movne	r0, #2
 8008bea:	2001      	moveq	r0, #1
 8008bec:	4770      	bx	lr
 8008bee:	bf00      	nop
 8008bf0:	10001000 	.word	0x10001000

08008bf4 <msgFlash>:
    }
  return 0;
}

static int msgFlash(portNum_t portNum, comm_t *comm, bBuffer_t *bBuffer, uint8_t *forwardMask)
{
 8008bf4:	b570      	push	{r4, r5, r6, lr}
 8008bf6:	4614      	mov	r4, r2
  msg_A2_t *data = (void*)bBuffer->data;
  if(DIRECTION(portNum))
 8008bf8:	2800      	cmp	r0, #0
 8008bfa:	f040 80aa 	bne.w	8008d52 <msgFlash+0x15e>
    {
      A2Data_t *buf = (A2Data_t *)data;
      bBuffer->size = sizeof(msg_A2r_t);
 8008bfe:	2206      	movs	r2, #6
 8008c00:	8022      	strh	r2, [r4, #0]
      *forwardMask = 0;
 8008c02:	7018      	strb	r0, [r3, #0]
      switch(buf->subCode)
 8008c04:	7d63      	ldrb	r3, [r4, #21]
 8008c06:	3b01      	subs	r3, #1
 8008c08:	2b03      	cmp	r3, #3
 8008c0a:	f200 80a4 	bhi.w	8008d56 <msgFlash+0x162>
 8008c0e:	e8df f003 	tbb	[pc, r3]
 8008c12:	624d      	.short	0x624d
 8008c14:	022c      	.short	0x022c
        {
        case FILE_INIT:
        {
          dprintf(LL_INFO, "Inicjalizacja flashowania \n");
 8008c16:	4b51      	ldr	r3, [pc, #324]	; (8008d5c <msgFlash+0x168>)
 8008c18:	6d1b      	ldr	r3, [r3, #80]	; 0x50
 8008c1a:	2b01      	cmp	r3, #1
 8008c1c:	dd02      	ble.n	8008c24 <msgFlash+0x30>
 8008c1e:	4850      	ldr	r0, [pc, #320]	; (8008d60 <msgFlash+0x16c>)
 8008c20:	f7ff fda0 	bl	8008764 <xprintf>
          lockNonFlashMessages(1);
 8008c24:	2001      	movs	r0, #1
 8008c26:	f7ff ffb7 	bl	8008b98 <lockNonFlashMessages>

          //Erase FLASH
          FLASH_ClearFlag(FLASH_FLAG_OPERR | FLASH_FLAG_WRPERR | FLASH_FLAG_PGAERR | FLASH_FLAG_PGPERR | FLASH_FLAG_PGSERR );
 8008c2a:	20f2      	movs	r0, #242	; 0xf2
 8008c2c:	f7f7 fe74 	bl	8000918 <FLASH_ClearFlag>
          FLASH_Unlock();
 8008c30:	f7f7 fe64 	bl	80008fc <FLASH_Unlock>
          IWDG_ReloadCounter();
 8008c34:	f00a fb56 	bl	80132e4 <IWDG_ReloadCounter>
          FLASH_EraseSector(FLASH_Sector_8, VoltageRange_3);
 8008c38:	2102      	movs	r1, #2
 8008c3a:	2040      	movs	r0, #64	; 0x40
 8008c3c:	f7f7 feb2 	bl	80009a4 <FLASH_EraseSector>
          IWDG_ReloadCounter();
 8008c40:	f00a fb50 	bl	80132e4 <IWDG_ReloadCounter>
          FLASH_EraseSector(FLASH_Sector_9, VoltageRange_3);
 8008c44:	2102      	movs	r1, #2
 8008c46:	2048      	movs	r0, #72	; 0x48
 8008c48:	f7f7 feac 	bl	80009a4 <FLASH_EraseSector>
          IWDG_ReloadCounter();
 8008c4c:	f00a fb4a 	bl	80132e4 <IWDG_ReloadCounter>
          FLASH_EraseSector(FLASH_Sector_10, VoltageRange_3);
 8008c50:	2102      	movs	r1, #2
 8008c52:	2050      	movs	r0, #80	; 0x50
 8008c54:	f7f7 fea6 	bl	80009a4 <FLASH_EraseSector>
          IWDG_ReloadCounter();
 8008c58:	f00a fb44 	bl	80132e4 <IWDG_ReloadCounter>
          FLASH_EraseSector(FLASH_Sector_11, VoltageRange_3);
 8008c5c:	2102      	movs	r1, #2
 8008c5e:	2058      	movs	r0, #88	; 0x58
 8008c60:	f7f7 fea0 	bl	80009a4 <FLASH_EraseSector>
          IWDG_ReloadCounter();
 8008c64:	f00a fb3e 	bl	80132e4 <IWDG_ReloadCounter>
 8008c68:	e05c      	b.n	8008d24 <msgFlash+0x130>
          return CB_RET_ACK;
        }
        case FILE_BUFFER:
        {
          int crc = buf->cmd_buffer.crc;
          buf->cmd_buffer.crc = 0;
 8008c6a:	2000      	movs	r0, #0
          //Send ACK od nACK
          return CB_RET_ACK;
        }
        case FILE_BUFFER:
        {
          int crc = buf->cmd_buffer.crc;
 8008c6c:	8e65      	ldrh	r5, [r4, #50]	; 0x32
          buf->cmd_buffer.crc = 0;
 8008c6e:	f884 0032 	strb.w	r0, [r4, #50]	; 0x32
 8008c72:	f884 0033 	strb.w	r0, [r4, #51]	; 0x33
          if(crc != crc16(0, buf, sizeof(A2Data_t)))
 8008c76:	2220      	movs	r2, #32
 8008c78:	f104 0114 	add.w	r1, r4, #20
 8008c7c:	f7f7 fb2a 	bl	80002d4 <crc16>
 8008c80:	4285      	cmp	r5, r0
 8008c82:	d168      	bne.n	8008d56 <msgFlash+0x162>
            return CB_RET_nACK;

          //Store in flash
          int offset = buf->cmd_buffer.chunkIdx*sizeof(buf->cmd_buffer.data);
          uint32_t *src = (uint32_t*)buf->cmd_buffer.data;
          uint32_t addr = (uint32_t)(&flashStorage[offset]);
 8008c84:	8b23      	ldrh	r3, [r4, #24]
 8008c86:	4a37      	ldr	r2, [pc, #220]	; (8008d64 <msgFlash+0x170>)
          if(crc != crc16(0, buf, sizeof(A2Data_t)))
            return CB_RET_nACK;

          //Store in flash
          int offset = buf->cmd_buffer.chunkIdx*sizeof(buf->cmd_buffer.data);
          uint32_t *src = (uint32_t*)buf->cmd_buffer.data;
 8008c88:	f104 051a 	add.w	r5, r4, #26
          uint32_t addr = (uint32_t)(&flashStorage[offset]);
 8008c8c:	2418      	movs	r4, #24
 8008c8e:	fb04 2403 	mla	r4, r4, r3, r2
 8008c92:	f104 0618 	add.w	r6, r4, #24
          int num =  sizeof(buf->cmd_buffer.data)/4;
          while(num--)
 8008c96:	42b4      	cmp	r4, r6
 8008c98:	d044      	beq.n	8008d24 <msgFlash+0x130>
            {
              if(FLASH_ProgramWord(addr, *(src++)) != FLASH_COMPLETE)
 8008c9a:	f855 1b04 	ldr.w	r1, [r5], #4
 8008c9e:	4620      	mov	r0, r4
 8008ca0:	f7f7 fed4 	bl	8000a4c <FLASH_ProgramWord>
 8008ca4:	2809      	cmp	r0, #9
 8008ca6:	d156      	bne.n	8008d56 <msgFlash+0x162>
                return CB_RET_nACK;
              addr+=4;
 8008ca8:	3404      	adds	r4, #4
 8008caa:	e7f4      	b.n	8008c96 <msgFlash+0xa2>
          //Send ACK
          return CB_RET_ACK;
        }
        case FILE_STM:
        {
          dprintf(LL_INFO, "Flashowanie STMa \n");
 8008cac:	4d2b      	ldr	r5, [pc, #172]	; (8008d5c <msgFlash+0x168>)
 8008cae:	6d2b      	ldr	r3, [r5, #80]	; 0x50
 8008cb0:	2b01      	cmp	r3, #1
 8008cb2:	dd02      	ble.n	8008cba <msgFlash+0xc6>
 8008cb4:	482c      	ldr	r0, [pc, #176]	; (8008d68 <msgFlash+0x174>)
 8008cb6:	f7ff fd55 	bl	8008764 <xprintf>
          //Calculate checksum and prepare for update
          uint32_t crc = crc32(0, flashStorage, buf->cmd_finish.size);
 8008cba:	69a2      	ldr	r2, [r4, #24]
 8008cbc:	4929      	ldr	r1, [pc, #164]	; (8008d64 <msgFlash+0x170>)
 8008cbe:	2000      	movs	r0, #0
 8008cc0:	f7f7 faf4 	bl	80002ac <crc32>
          if(crc != buf->cmd_finish.crc32)
 8008cc4:	69e3      	ldr	r3, [r4, #28]
 8008cc6:	4298      	cmp	r0, r3
 8008cc8:	d145      	bne.n	8008d56 <msgFlash+0x162>
            return CB_RET_nACK;

          //Update by bootloader
          cfg.fSize = buf->cmd_finish.size;
 8008cca:	69a3      	ldr	r3, [r4, #24]
 8008ccc:	602b      	str	r3, [r5, #0]
          cfg.fCRC = buf->cmd_finish.crc32;
 8008cce:	6068      	str	r0, [r5, #4]
          cfgFlush();
 8008cd0:	f7f7 fa82 	bl	80001d8 <cfgFlush>
 8008cd4:	e024      	b.n	8008d20 <msgFlash+0x12c>
          //Send ACK od nACK
          return CB_RET_ACK;
        }
        case FILE_SHARC:
        {
          dprintf(LL_INFO, "Flashowanie SHARCa\n");
 8008cd6:	4d21      	ldr	r5, [pc, #132]	; (8008d5c <msgFlash+0x168>)
 8008cd8:	6d2b      	ldr	r3, [r5, #80]	; 0x50
 8008cda:	2b01      	cmp	r3, #1
 8008cdc:	dd02      	ble.n	8008ce4 <msgFlash+0xf0>
 8008cde:	4823      	ldr	r0, [pc, #140]	; (8008d6c <msgFlash+0x178>)
 8008ce0:	f7ff fd40 	bl	8008764 <xprintf>

          //Calculate checksum and update SHARC
          uint32_t crc = crc32(0, flashStorage, buf->cmd_finish.size);
 8008ce4:	69a2      	ldr	r2, [r4, #24]
 8008ce6:	491f      	ldr	r1, [pc, #124]	; (8008d64 <msgFlash+0x170>)
 8008ce8:	2000      	movs	r0, #0
 8008cea:	f7f7 fadf 	bl	80002ac <crc32>
          if(crc != buf->cmd_finish.crc32)
 8008cee:	69e3      	ldr	r3, [r4, #28]
 8008cf0:	4298      	cmp	r0, r3
 8008cf2:	d130      	bne.n	8008d56 <msgFlash+0x162>
            return CB_RET_nACK;

          //SPK SW
          GPIO_WriteBit(GPIOA, GPIO_Pin_9, 0);
 8008cf4:	2200      	movs	r2, #0
 8008cf6:	f44f 7100 	mov.w	r1, #512	; 0x200
 8008cfa:	481d      	ldr	r0, [pc, #116]	; (8008d70 <msgFlash+0x17c>)
 8008cfc:	f008 f94a 	bl	8010f94 <GPIO_WriteBit>
          //RST_AMP
          GPIO_WriteBit(GPIOA, GPIO_Pin_11, 0);
 8008d00:	2200      	movs	r2, #0
 8008d02:	f44f 6100 	mov.w	r1, #2048	; 0x800
 8008d06:	481a      	ldr	r0, [pc, #104]	; (8008d70 <msgFlash+0x17c>)
 8008d08:	f008 f944 	bl	8010f94 <GPIO_WriteBit>

          //wait after setting shark
          mdelay(10);
 8008d0c:	200a      	movs	r0, #10
 8008d0e:	f001 fdbf 	bl	800a890 <vTaskDelay>

          //Initialize SPI for sharc
          sharc_spi_init();
 8008d12:	f006 fd51 	bl	800f7b8 <sharc_spi_init>
          mdelay(10);
 8008d16:	200a      	movs	r0, #10
 8008d18:	f001 fdba 	bl	800a890 <vTaskDelay>

          int programRetry = cfg.sharcProgramRetry;
 8008d1c:	6dae      	ldr	r6, [r5, #88]	; 0x58
          while(programRetry--)
 8008d1e:	e00d      	b.n	8008d3c <msgFlash+0x148>
            {
              if(m25p20Program(flashStorage, buf->cmd_finish.size) == 0)
                {
                  watchdogReset();//Delayed reset
 8008d20:	f006 f86c 	bl	800edfc <watchdogReset>
                  //Send ACK
                  return CB_RET_ACK;
 8008d24:	2001      	movs	r0, #1
 8008d26:	bd70      	pop	{r4, r5, r6, pc}
          mdelay(10);

          int programRetry = cfg.sharcProgramRetry;
          while(programRetry--)
            {
              if(m25p20Program(flashStorage, buf->cmd_finish.size) == 0)
 8008d28:	69a1      	ldr	r1, [r4, #24]
 8008d2a:	480e      	ldr	r0, [pc, #56]	; (8008d64 <msgFlash+0x170>)
 8008d2c:	f006 fa6e 	bl	800f20c <m25p20Program>
 8008d30:	3e01      	subs	r6, #1
 8008d32:	2800      	cmp	r0, #0
 8008d34:	d0f4      	beq.n	8008d20 <msgFlash+0x12c>
                  watchdogReset();//Delayed reset
                  //Send ACK
                  return CB_RET_ACK;
                }
#ifdef WATCHDOG_COMM
              wdogFeed(WATCHDOG_COMM(0));
 8008d36:	2008      	movs	r0, #8
 8008d38:	f006 f852 	bl	800ede0 <wdogFeed>
          //Initialize SPI for sharc
          sharc_spi_init();
          mdelay(10);

          int programRetry = cfg.sharcProgramRetry;
          while(programRetry--)
 8008d3c:	2e00      	cmp	r6, #0
 8008d3e:	d1f3      	bne.n	8008d28 <msgFlash+0x134>
                }
#ifdef WATCHDOG_COMM
              wdogFeed(WATCHDOG_COMM(0));
#endif
            }
          dprintf(LL_INFO, "Flashowanie SHARCa zakonczone\n");
 8008d40:	6d2b      	ldr	r3, [r5, #80]	; 0x50
 8008d42:	2b01      	cmp	r3, #1
 8008d44:	dd02      	ble.n	8008d4c <msgFlash+0x158>
 8008d46:	480b      	ldr	r0, [pc, #44]	; (8008d74 <msgFlash+0x180>)
 8008d48:	f7ff fd0c 	bl	8008764 <xprintf>

          watchdogReset();//Delayed reset
 8008d4c:	f006 f856 	bl	800edfc <watchdogReset>
 8008d50:	e001      	b.n	8008d56 <msgFlash+0x162>
        }
        default:
          return CB_RET_nACK;
        }
    }
  return 0;
 8008d52:	2000      	movs	r0, #0
 8008d54:	bd70      	pop	{r4, r5, r6, pc}
          watchdogReset();//Delayed reset
          //Send nACK
          return CB_RET_nACK;
        }
        default:
          return CB_RET_nACK;
 8008d56:	2002      	movs	r0, #2
        }
    }
  return 0;
}
 8008d58:	bd70      	pop	{r4, r5, r6, pc}
 8008d5a:	bf00      	nop
 8008d5c:	10001000 	.word	0x10001000
 8008d60:	0801488e 	.word	0x0801488e
 8008d64:	08080000 	.word	0x08080000
 8008d68:	080148aa 	.word	0x080148aa
 8008d6c:	080148bd 	.word	0x080148bd
 8008d70:	40020000 	.word	0x40020000
 8008d74:	080148d1 	.word	0x080148d1

08008d78 <sendKACC>:
      timestamp = 0xFFFFFFFF;
    }
}

static void sendKACC(void)
{
 8008d78:	b573      	push	{r0, r1, r4, r5, r6, lr}
  //Keep alive to PWM and Sharc
  bBuffer_t *buf = bAlloc(MSG_LEN);
 8008d7a:	2020      	movs	r0, #32
 8008d7c:	f004 fc58 	bl	800d630 <bAlloc>
  massert(buf);
 8008d80:	4604      	mov	r4, r0
 8008d82:	b1d0      	cbz	r0, 8008dba <sendKACC+0x42>
  buf->size = sizeof(msg_CC_t);
 8008d84:	4625      	mov	r5, r4
 8008d86:	2601      	movs	r6, #1
  msg_CC_t *msg = (void*)buf->data;
  memset(msg, 0, sizeof(msg_CC_t));
 8008d88:	2300      	movs	r3, #0
static void sendKACC(void)
{
  //Keep alive to PWM and Sharc
  bBuffer_t *buf = bAlloc(MSG_LEN);
  massert(buf);
  buf->size = sizeof(msg_CC_t);
 8008d8a:	f825 6b14 	strh.w	r6, [r5], #20
  msg_CC_t *msg = (void*)buf->data;
  memset(msg, 0, sizeof(msg_CC_t));
 8008d8e:	7523      	strb	r3, [r4, #20]
  msg->kod = 0xC0 + portData[CEN_PORT].urzadzenie;
 8008d90:	4b10      	ldr	r3, [pc, #64]	; (8008dd4 <sendKACC+0x5c>)
 8008d92:	7e9b      	ldrb	r3, [r3, #26]
 8008d94:	3b40      	subs	r3, #64	; 0x40
 8008d96:	7523      	strb	r3, [r4, #20]

  bRef(buf);
 8008d98:	4620      	mov	r0, r4
 8008d9a:	f004 ffe1 	bl	800dd60 <bRef>
  messageTx(PER1_PORT, (void*)buf->data, buf->size, (uint32_t)buf);
 8008d9e:	4623      	mov	r3, r4
 8008da0:	8822      	ldrh	r2, [r4, #0]
 8008da2:	4629      	mov	r1, r5
 8008da4:	4630      	mov	r0, r6
 8008da6:	f002 ff01 	bl	800bbac <messageTx>
  messageTx(PER2_PORT, (void*)buf->data, buf->size, (uint32_t)buf);
 8008daa:	4623      	mov	r3, r4
 8008dac:	8822      	ldrh	r2, [r4, #0]
 8008dae:	4629      	mov	r1, r5
 8008db0:	2002      	movs	r0, #2
 8008db2:	f002 fefb 	bl	800bbac <messageTx>
}
 8008db6:	b002      	add	sp, #8
 8008db8:	bd70      	pop	{r4, r5, r6, pc}

static void sendKACC(void)
{
  //Keep alive to PWM and Sharc
  bBuffer_t *buf = bAlloc(MSG_LEN);
  massert(buf);
 8008dba:	4b07      	ldr	r3, [pc, #28]	; (8008dd8 <sendKACC+0x60>)
 8008dbc:	4907      	ldr	r1, [pc, #28]	; (8008ddc <sendKACC+0x64>)
 8008dbe:	4808      	ldr	r0, [pc, #32]	; (8008de0 <sendKACC+0x68>)
 8008dc0:	f240 229b 	movw	r2, #667	; 0x29b
 8008dc4:	f7ff fcce 	bl	8008764 <xprintf>
 8008dc8:	2301      	movs	r3, #1
 8008dca:	9301      	str	r3, [sp, #4]
 8008dcc:	9b01      	ldr	r3, [sp, #4]
 8008dce:	2b00      	cmp	r3, #0
 8008dd0:	d1fc      	bne.n	8008dcc <sendKACC+0x54>
 8008dd2:	e7d7      	b.n	8008d84 <sendKACC+0xc>
 8008dd4:	2001aabc 	.word	0x2001aabc
 8008dd8:	080148f0 	.word	0x080148f0
 8008ddc:	0801486f 	.word	0x0801486f
 8008de0:	080148f4 	.word	0x080148f4

08008de4 <msgProgram>:
    }
  return 0;
}

static int msgProgram(portNum_t portNum, comm_t *comm, bBuffer_t *bBuffer, uint8_t *forwardMask)
{
 8008de4:	b508      	push	{r3, lr}
  msg_9C_t *data = (void*)bBuffer->data;
  if(DIRECTION(portNum))
 8008de6:	b9e8      	cbnz	r0, 8008e24 <msgProgram+0x40>
    {
      cfg.manId = (((uint32_t)data->man_id3) << 24) | (((uint32_t)data->man_id2) << 16) | (((uint32_t)data->man_id1) << 8);
 8008de8:	7dd3      	ldrb	r3, [r2, #23]
 8008dea:	7d91      	ldrb	r1, [r2, #22]
 8008dec:	041b      	lsls	r3, r3, #16
 8008dee:	ea43 6301 	orr.w	r3, r3, r1, lsl #24
 8008df2:	7e11      	ldrb	r1, [r2, #24]
 8008df4:	ea43 2301 	orr.w	r3, r3, r1, lsl #8
 8008df8:	490b      	ldr	r1, [pc, #44]	; (8008e28 <msgProgram+0x44>)
 8008dfa:	630b      	str	r3, [r1, #48]	; 0x30
      cfg.kondPom = data->kondPom;
 8008dfc:	7d53      	ldrb	r3, [r2, #21]
 8008dfe:	634b      	str	r3, [r1, #52]	; 0x34
      cfg.flags = (((data->flags&MSG9C_FLAGS_PIPE_MASK)?1:0)<<2) | (((data->flags&MSG9C_FLAGS_LEFT_MASK)?1:0)<<0) | (1<<1);
 8008e00:	7e53      	ldrb	r3, [r2, #25]
 8008e02:	f013 0f01 	tst.w	r3, #1
 8008e06:	f3c3 0340 	ubfx	r3, r3, #1, #1
 8008e0a:	bf14      	ite	ne
 8008e0c:	2204      	movne	r2, #4
 8008e0e:	2200      	moveq	r2, #0
 8008e10:	f043 0302 	orr.w	r3, r3, #2
 8008e14:	4313      	orrs	r3, r2
 8008e16:	638b      	str	r3, [r1, #56]	; 0x38
      //Program master
      cfgFlush();
 8008e18:	f7f7 f9de 	bl	80001d8 <cfgFlush>
      watchdogReset();//Delayed reset
 8008e1c:	f005 ffee 	bl	800edfc <watchdogReset>
 8008e20:	2001      	movs	r0, #1
 8008e22:	bd08      	pop	{r3, pc}
      return CB_RET_ACK;
    }
  return 0;
 8008e24:	2000      	movs	r0, #0
}
 8008e26:	bd08      	pop	{r3, pc}
 8008e28:	10001000 	.word	0x10001000

08008e2c <kaOk>:
  messageTx(CEN_PORT, (void*)bBuffer->data, bBuffer->size, (uint32_t)bBuffer);
  return 0;
}

static int kaOk(portNum_t portNum, comm_t *comm, bBuffer_t *bBuffer, uint8_t *forwardMask)
{
 8008e2c:	b510      	push	{r4, lr}
  if(!DIRECTION(portNum))
 8008e2e:	4604      	mov	r4, r0
 8008e30:	b140      	cbz	r0, 8008e44 <kaOk+0x18>
    {
      uitOk(portNum);
 8008e32:	f000 fcbf 	bl	80097b4 <uitOk>
      portData[portNum].keepAlive = xTaskGetTickCount();
 8008e36:	f001 fc35 	bl	800a6a4 <xTaskGetTickCount>
 8008e3a:	4b03      	ldr	r3, [pc, #12]	; (8008e48 <kaOk+0x1c>)
 8008e3c:	2250      	movs	r2, #80	; 0x50
 8008e3e:	fb02 3404 	mla	r4, r2, r4, r3
 8008e42:	6260      	str	r0, [r4, #36]	; 0x24
    }
  return 0;
}
 8008e44:	2000      	movs	r0, #0
 8008e46:	bd10      	pop	{r4, pc}
 8008e48:	2001aabc 	.word	0x2001aabc

08008e4c <msgVolume>:
  return 0;
}


static int msgVolume(portNum_t portNum, comm_t *comm, bBuffer_t *bBuffer, uint8_t *forwardMask)
{
 8008e4c:	b538      	push	{r3, r4, r5, lr}
 8008e4e:	461d      	mov	r5, r3
  msg_80_t *data = (void *)bBuffer->data;
  if(DIRECTION(portNum))
 8008e50:	4604      	mov	r4, r0
 8008e52:	b930      	cbnz	r0, 8008e62 <msgVolume+0x16>
    {
      spkSet.volume = data->volume;
 8008e54:	4b05      	ldr	r3, [pc, #20]	; (8008e6c <msgVolume+0x20>)
 8008e56:	7dd2      	ldrb	r2, [r2, #23]
 8008e58:	701a      	strb	r2, [r3, #0]
      if(!isOn())
 8008e5a:	f000 fc0b 	bl	8009674 <isOn>
 8008e5e:	b910      	cbnz	r0, 8008e66 <msgVolume+0x1a>
        {
          //If not ON state then respond on the message for PWM and SHARC
          *forwardMask = 0;
 8008e60:	7028      	strb	r0, [r5, #0]
          return CB_RET_ACK;
        }
      return 0;
    }
  return CB_RET_ACK;
 8008e62:	2001      	movs	r0, #1
 8008e64:	bd38      	pop	{r3, r4, r5, pc}
        {
          //If not ON state then respond on the message for PWM and SHARC
          *forwardMask = 0;
          return CB_RET_ACK;
        }
      return 0;
 8008e66:	4620      	mov	r0, r4
    }
  return CB_RET_ACK;
}
 8008e68:	bd38      	pop	{r3, r4, r5, pc}
 8008e6a:	bf00      	nop
 8008e6c:	2001ac30 	.word	0x2001ac30

08008e70 <msgACK>:
static int outputType = -1;
int myPipeNum = 0;
int amIStereo = 0;
#define isHD (signalType >= 0xA)
static int msgACK(portNum_t portNum, comm_t *comm, bBuffer_t *bBuffer, uint8_t *forwardMask)
{
 8008e70:	b538      	push	{r3, r4, r5, lr}
 8008e72:	461d      	mov	r5, r3
  if(DIRECTION(portNum))
 8008e74:	4604      	mov	r4, r0
 8008e76:	b918      	cbnz	r0, 8008e80 <msgACK+0x10>
    {
      if(!isOn())
 8008e78:	f000 fbfc 	bl	8009674 <isOn>
 8008e7c:	b910      	cbnz	r0, 8008e84 <msgACK+0x14>
        {
          //If not ON state then respond on the message for PWM and SHARC
          *forwardMask = 0;
 8008e7e:	7028      	strb	r0, [r5, #0]
          return CB_RET_ACK;
        }
      return 0;
    }
  return CB_RET_ACK;
 8008e80:	2001      	movs	r0, #1
 8008e82:	bd38      	pop	{r3, r4, r5, pc}
        {
          //If not ON state then respond on the message for PWM and SHARC
          *forwardMask = 0;
          return CB_RET_ACK;
        }
      return 0;
 8008e84:	4620      	mov	r0, r4
    }
  return CB_RET_ACK;
}
 8008e86:	bd38      	pop	{r3, r4, r5, pc}

08008e88 <msgnACKamp>:
    }
  return CB_RET_ACK;
}

static int msgnACKamp(portNum_t portNum, comm_t *comm, bBuffer_t *bBuffer, uint8_t *forwardMask)
{
 8008e88:	b508      	push	{r3, lr}
  if(DIRECTION(portNum)) return 0;
 8008e8a:	b158      	cbz	r0, 8008ea4 <msgnACKamp+0x1c>
  if(isOn())
 8008e8c:	f000 fbf2 	bl	8009674 <isOn>
 8008e90:	b138      	cbz	r0, 8008ea2 <msgnACKamp+0x1a>
    {
      mdelay(cfg.ampEnableDelay58);
 8008e92:	4b05      	ldr	r3, [pc, #20]	; (8008ea8 <msgnACKamp+0x20>)
 8008e94:	f8d3 00d4 	ldr.w	r0, [r3, #212]	; 0xd4
 8008e98:	f001 fcfa 	bl	800a890 <vTaskDelay>
      ampEnable(1);
 8008e9c:	2001      	movs	r0, #1
 8008e9e:	f006 fe77 	bl	800fb90 <ampEnable>
    }
  return CB_RET_nACK;
 8008ea2:	2002      	movs	r0, #2
}
 8008ea4:	bd08      	pop	{r3, pc}
 8008ea6:	bf00      	nop
 8008ea8:	10001000 	.word	0x10001000

08008eac <msg585Atimeout>:

static int msg585Atimeout(portNum_t portNum, comm_t *comm)
{
 8008eac:	b508      	push	{r3, lr}
  if(isOn())
 8008eae:	f000 fbe1 	bl	8009674 <isOn>
 8008eb2:	b138      	cbz	r0, 8008ec4 <msg585Atimeout+0x18>
    {
      mdelay(cfg.ampEnableDelay58);
 8008eb4:	4b04      	ldr	r3, [pc, #16]	; (8008ec8 <msg585Atimeout+0x1c>)
 8008eb6:	f8d3 00d4 	ldr.w	r0, [r3, #212]	; 0xd4
 8008eba:	f001 fce9 	bl	800a890 <vTaskDelay>
      ampEnable(1);
 8008ebe:	2001      	movs	r0, #1
 8008ec0:	f006 fe66 	bl	800fb90 <ampEnable>
    }
  return CB_RET_nACK;
}
 8008ec4:	2002      	movs	r0, #2
 8008ec6:	bd08      	pop	{r3, pc}
 8008ec8:	10001000 	.word	0x10001000

08008ecc <msgACKamp58>:
  if(DIRECTION(portNum)) return 0;
  return CB_RET_nACK;
}

static int msgACKamp58(portNum_t portNum, comm_t *comm, bBuffer_t *bBuffer, uint8_t *forwardMask)
{
 8008ecc:	b570      	push	{r4, r5, r6, lr}
 8008ece:	4615      	mov	r5, r2
 8008ed0:	461e      	mov	r6, r3
  msg_58_t *data = (void*)bBuffer->data;
  if(DIRECTION(portNum))
 8008ed2:	4604      	mov	r4, r0
 8008ed4:	b958      	cbnz	r0, 8008eee <msgACKamp58+0x22>
    {
      if(!isOn())
 8008ed6:	f000 fbcd 	bl	8009674 <isOn>
 8008eda:	b908      	cbnz	r0, 8008ee0 <msgACKamp58+0x14>
        {
          //If not ON state then respond on the message for PWM and SHARC
          *forwardMask = 0;
 8008edc:	7030      	strb	r0, [r6, #0]
 8008ede:	e013      	b.n	8008f08 <msgACKamp58+0x3c>
          return CB_RET_ACK;
        }
      if(data->guiTp != 0)
 8008ee0:	7e68      	ldrb	r0, [r5, #25]
 8008ee2:	b190      	cbz	r0, 8008f0a <msgACKamp58+0x3e>
        ampEnable(0);
 8008ee4:	4620      	mov	r0, r4
 8008ee6:	f006 fe53 	bl	800fb90 <ampEnable>
      return 0;
 8008eea:	4620      	mov	r0, r4
 8008eec:	bd70      	pop	{r4, r5, r6, pc}
    }
  if(isOn() && data->guiTp != 0)
 8008eee:	f000 fbc1 	bl	8009674 <isOn>
 8008ef2:	b148      	cbz	r0, 8008f08 <msgACKamp58+0x3c>
 8008ef4:	7e6b      	ldrb	r3, [r5, #25]
 8008ef6:	b13b      	cbz	r3, 8008f08 <msgACKamp58+0x3c>
    {
      mdelay(cfg.ampEnableDelay58);
 8008ef8:	4b04      	ldr	r3, [pc, #16]	; (8008f0c <msgACKamp58+0x40>)
 8008efa:	f8d3 00d4 	ldr.w	r0, [r3, #212]	; 0xd4
 8008efe:	f001 fcc7 	bl	800a890 <vTaskDelay>
      ampEnable(1);
 8008f02:	2001      	movs	r0, #1
 8008f04:	f006 fe44 	bl	800fb90 <ampEnable>
    }
  return CB_RET_ACK;
 8008f08:	2001      	movs	r0, #1
}
 8008f0a:	bd70      	pop	{r4, r5, r6, pc}
 8008f0c:	10001000 	.word	0x10001000

08008f10 <msgReconnect>:
    }
  return 0;
}

static int msgReconnect(portNum_t portNum, comm_t *comm, bBuffer_t *bBuffer, uint8_t *forwardMask)
{
 8008f10:	b570      	push	{r4, r5, r6, lr}
 8008f12:	4d1f      	ldr	r5, [pc, #124]	; (8008f90 <msgReconnect+0x80>)
 8008f14:	4614      	mov	r4, r2
 8008f16:	461e      	mov	r6, r3
 8008f18:	7d93      	ldrb	r3, [r2, #22]
  msg_92_t *data = (void*)bBuffer->data;
  if(!DIRECTION(portNum))
    {
      if(signalType != data->signalType || outputType != data->outputType)
 8008f1a:	682a      	ldr	r2, [r5, #0]
}

static int msgReconnect(portNum_t portNum, comm_t *comm, bBuffer_t *bBuffer, uint8_t *forwardMask)
{
  msg_92_t *data = (void*)bBuffer->data;
  if(!DIRECTION(portNum))
 8008f1c:	b308      	cbz	r0, 8008f62 <msgReconnect+0x52>
    {
      if(signalType != data->signalType || outputType != data->outputType)
 8008f1e:	4293      	cmp	r3, r2
 8008f20:	d103      	bne.n	8008f2a <msgReconnect+0x1a>
 8008f22:	7de2      	ldrb	r2, [r4, #23]
 8008f24:	686b      	ldr	r3, [r5, #4]
 8008f26:	429a      	cmp	r2, r3
 8008f28:	d004      	beq.n	8008f34 <msgReconnect+0x24>
        mdelay(cfg.ampEnableDelay92);
 8008f2a:	4b1a      	ldr	r3, [pc, #104]	; (8008f94 <msgReconnect+0x84>)
 8008f2c:	f8d3 00d0 	ldr.w	r0, [r3, #208]	; 0xd0
 8008f30:	f001 fcae 	bl	800a890 <vTaskDelay>
      ampEnable(1);
 8008f34:	2001      	movs	r0, #1
 8008f36:	f006 fe2b 	bl	800fb90 <ampEnable>
      //Remenber signal and output types
      signalType = data->signalType;
 8008f3a:	7da3      	ldrb	r3, [r4, #22]
 8008f3c:	602b      	str	r3, [r5, #0]
      outputType = data->outputType;
 8008f3e:	7de3      	ldrb	r3, [r4, #23]
 8008f40:	606b      	str	r3, [r5, #4]
      if(isOn())
 8008f42:	f000 fb97 	bl	8009674 <isOn>
 8008f46:	b300      	cbz	r0, 8008f8a <msgReconnect+0x7a>
        SmokLEDsState(1, -1, SET_OTHER, isHD);
 8008f48:	4b11      	ldr	r3, [pc, #68]	; (8008f90 <msgReconnect+0x80>)
 8008f4a:	681b      	ldr	r3, [r3, #0]
 8008f4c:	2b09      	cmp	r3, #9
 8008f4e:	bfd4      	ite	le
 8008f50:	2300      	movle	r3, #0
 8008f52:	2301      	movgt	r3, #1
 8008f54:	2203      	movs	r2, #3
 8008f56:	f04f 31ff 	mov.w	r1, #4294967295
 8008f5a:	2001      	movs	r0, #1
 8008f5c:	f000 fc98 	bl	8009890 <SmokLEDsState>
 8008f60:	e013      	b.n	8008f8a <msgReconnect+0x7a>

      return CB_RET_ACK;
    }

  if(signalType != data->signalType || outputType != data->outputType)
 8008f62:	4293      	cmp	r3, r2
 8008f64:	d103      	bne.n	8008f6e <msgReconnect+0x5e>
 8008f66:	7de2      	ldrb	r2, [r4, #23]
 8008f68:	686b      	ldr	r3, [r5, #4]
 8008f6a:	429a      	cmp	r2, r3
 8008f6c:	d002      	beq.n	8008f74 <msgReconnect+0x64>
    ampEnable(0);
 8008f6e:	2000      	movs	r0, #0
 8008f70:	f006 fe0e 	bl	800fb90 <ampEnable>

  if(isOn())
 8008f74:	f000 fb7e 	bl	8009674 <isOn>
 8008f78:	b130      	cbz	r0, 8008f88 <msgReconnect+0x78>
    {
      //set PLL (only when ON)
      pll_set_retry(data->signalType, 0, 2);
 8008f7a:	2202      	movs	r2, #2
 8008f7c:	2100      	movs	r1, #0
 8008f7e:	7da0      	ldrb	r0, [r4, #22]
 8008f80:	f006 fde4 	bl	800fb4c <pll_set_retry>
    {
      //If not ON state then respond on the message for PWM and SHARC
      *forwardMask = 0;
      return CB_RET_ACK;
    }
  return 0;
 8008f84:	2000      	movs	r0, #0
 8008f86:	bd70      	pop	{r4, r5, r6, pc}
      pll_set_retry(data->signalType, 0, 2);
    }
  else
    {
      //If not ON state then respond on the message for PWM and SHARC
      *forwardMask = 0;
 8008f88:	7030      	strb	r0, [r6, #0]
        mdelay(cfg.ampEnableDelay92);
      ampEnable(1);
      //Remenber signal and output types
      signalType = data->signalType;
      outputType = data->outputType;
      if(isOn())
 8008f8a:	2001      	movs	r0, #1
      //If not ON state then respond on the message for PWM and SHARC
      *forwardMask = 0;
      return CB_RET_ACK;
    }
  return 0;
}
 8008f8c:	bd70      	pop	{r4, r5, r6, pc}
 8008f8e:	bf00      	nop
 8008f90:	2001a1d8 	.word	0x2001a1d8
 8008f94:	10001000 	.word	0x10001000

08008f98 <msgOff>:
    }
  return CB_RET_nACK;
}

static int msgOff(portNum_t portNum, comm_t *comm, bBuffer_t *bBuffer, uint8_t *forwardMask)
{
 8008f98:	b538      	push	{r3, r4, r5, lr}
  if(DIRECTION(portNum))
 8008f9a:	4604      	mov	r4, r0
 8008f9c:	b108      	cbz	r0, 8008fa2 <msgOff+0xa>
          return CB_RET_ACK;
        }
      return CB_RET_nACK;
    }

  return CB_RET_nACK;
 8008f9e:	2002      	movs	r0, #2
 8008fa0:	bd38      	pop	{r3, r4, r5, pc}
static int msgOff(portNum_t portNum, comm_t *comm, bBuffer_t *bBuffer, uint8_t *forwardMask)
{
  if(DIRECTION(portNum))
    {
      //Already OFF?
      if(!isOn())
 8008fa2:	f000 fb67 	bl	8009674 <isOn>
 8008fa6:	b1a0      	cbz	r0, 8008fd2 <msgOff+0x3a>
        return CB_RET_ACK;

      int ret = SmokChangeState(Smok_OFF, "52 received");
 8008fa8:	490b      	ldr	r1, [pc, #44]	; (8008fd8 <msgOff+0x40>)
 8008faa:	2001      	movs	r0, #1
 8008fac:	f000 fc4c 	bl	8009848 <SmokChangeState>
      SmokLEDsState(0, -1, SET_NONE, -1);
 8008fb0:	f04f 33ff 	mov.w	r3, #4294967295
    {
      //Already OFF?
      if(!isOn())
        return CB_RET_ACK;

      int ret = SmokChangeState(Smok_OFF, "52 received");
 8008fb4:	4605      	mov	r5, r0
      SmokLEDsState(0, -1, SET_NONE, -1);
 8008fb6:	4622      	mov	r2, r4
 8008fb8:	4619      	mov	r1, r3
 8008fba:	4620      	mov	r0, r4
 8008fbc:	f000 fc68 	bl	8009890 <SmokLEDsState>
      /* LEDset(0, ~0, 0); */
      /* LEDset(0, LED_GREEN, 1); */

      if(ret >= 0)
 8008fc0:	2d00      	cmp	r5, #0
 8008fc2:	dbec      	blt.n	8008f9e <msgOff+0x6>
        {
          dprintf(LL_INFO, "Wylaczam zasilanie\n");
 8008fc4:	4b05      	ldr	r3, [pc, #20]	; (8008fdc <msgOff+0x44>)
 8008fc6:	6d1b      	ldr	r3, [r3, #80]	; 0x50
 8008fc8:	2b01      	cmp	r3, #1
 8008fca:	dd02      	ble.n	8008fd2 <msgOff+0x3a>
 8008fcc:	4804      	ldr	r0, [pc, #16]	; (8008fe0 <msgOff+0x48>)
 8008fce:	f7ff fbc9 	bl	8008764 <xprintf>
 8008fd2:	2001      	movs	r0, #1
        }
      return CB_RET_nACK;
    }

  return CB_RET_nACK;
}
 8008fd4:	bd38      	pop	{r3, r4, r5, pc}
 8008fd6:	bf00      	nop
 8008fd8:	0801490a 	.word	0x0801490a
 8008fdc:	10001000 	.word	0x10001000
 8008fe0:	08014916 	.word	0x08014916

08008fe4 <msgKeepAlive>:

static int msgKeepAlive(portNum_t portNum, comm_t *comm, bBuffer_t *bBuffer, uint8_t *forwardMask)
{
 8008fe4:	b5f7      	push	{r0, r1, r2, r4, r5, r6, r7, lr}
 8008fe6:	4614      	mov	r4, r2
  if(!DIRECTION(portNum)) return 0;
 8008fe8:	4606      	mov	r6, r0
 8008fea:	2800      	cmp	r0, #0
 8008fec:	f040 809b 	bne.w	8009126 <msgKeepAlive+0x142>
  msg_55_t *data = (void*)bBuffer->data;
  portData[portNum].tsLastSeen = xTaskGetTickCount();
 8008ff0:	f001 fb58 	bl	800a6a4 <xTaskGetTickCount>
 8008ff4:	4d4d      	ldr	r5, [pc, #308]	; (800912c <msgKeepAlive+0x148>)
 8008ff6:	63a8      	str	r0, [r5, #56]	; 0x38
  portData[portNum].keepAlive = xTaskGetTickCount();
 8008ff8:	f001 fb54 	bl	800a6a4 <xTaskGetTickCount>
  portData[portNum].ka++;
 8008ffc:	f895 3028 	ldrb.w	r3, [r5, #40]	; 0x28
static int msgKeepAlive(portNum_t portNum, comm_t *comm, bBuffer_t *bBuffer, uint8_t *forwardMask)
{
  if(!DIRECTION(portNum)) return 0;
  msg_55_t *data = (void*)bBuffer->data;
  portData[portNum].tsLastSeen = xTaskGetTickCount();
  portData[portNum].keepAlive = xTaskGetTickCount();
 8009000:	6268      	str	r0, [r5, #36]	; 0x24
  portData[portNum].ka++;
 8009002:	3301      	adds	r3, #1
 8009004:	f885 3028 	strb.w	r3, [r5, #40]	; 0x28
  if(data->flags55&FLAGS55_CONNECTION_ACTIVE)
 8009008:	7de3      	ldrb	r3, [r4, #23]
 800900a:	f003 0310 	and.w	r3, r3, #16
 800900e:	f003 00ff 	and.w	r0, r3, #255	; 0xff
 8009012:	b113      	cbz	r3, 800901a <msgKeepAlive+0x36>
    SPIevent(portNum, SPI_EV_TYPE_LINK_ESTABLISHED);
 8009014:	2103      	movs	r1, #3
 8009016:	4630      	mov	r0, r6
 8009018:	e000      	b.n	800901c <msgKeepAlive+0x38>
  else
    SPIevent(portNum, SPI_EV_TYPE_DLINK_ERROR);
 800901a:	2102      	movs	r1, #2
 800901c:	f003 f81e 	bl	800c05c <SPIevent>

  //Get peer uptime
  uint32_t upTime;
  uint8_t *upTime8 = (uint8_t*) &upTime;
  upTime8[3] = data->uptime3;
 8009020:	7e23      	ldrb	r3, [r4, #24]
 8009022:	f88d 3007 	strb.w	r3, [sp, #7]
  upTime8[2] = data->uptime2;
 8009026:	7e63      	ldrb	r3, [r4, #25]
 8009028:	f88d 3006 	strb.w	r3, [sp, #6]
  upTime8[1] = data->uptime1;
 800902c:	7ea3      	ldrb	r3, [r4, #26]
 800902e:	f88d 3005 	strb.w	r3, [sp, #5]
  upTime8[0] = data->uptime0;
 8009032:	7ee3      	ldrb	r3, [r4, #27]
 8009034:	f88d 3004 	strb.w	r3, [sp, #4]
  portData[portNum].uptime = upTime;
 8009038:	9b01      	ldr	r3, [sp, #4]
 800903a:	636b      	str	r3, [r5, #52]	; 0x34

  upTime = xTaskGetTickCount();
 800903c:	f001 fb32 	bl	800a6a4 <xTaskGetTickCount>
  data->uptime3 = upTime8[3];
 8009040:	0e03      	lsrs	r3, r0, #24
 8009042:	7623      	strb	r3, [r4, #24]
  data->uptime2 = upTime8[2];
 8009044:	f3c0 4307 	ubfx	r3, r0, #16, #8
 8009048:	7663      	strb	r3, [r4, #25]
  data->uptime1 = upTime8[1];
 800904a:	f3c0 2307 	ubfx	r3, r0, #8, #8
 800904e:	76a3      	strb	r3, [r4, #26]
  data->uptime0 = upTime8[0];
 8009050:	76e0      	strb	r0, [r4, #27]
  upTime8[2] = data->uptime2;
  upTime8[1] = data->uptime1;
  upTime8[0] = data->uptime0;
  portData[portNum].uptime = upTime;

  upTime = xTaskGetTickCount();
 8009052:	9001      	str	r0, [sp, #4]
  data->uptime3 = upTime8[3];
  data->uptime2 = upTime8[2];
  data->uptime1 = upTime8[1];
  data->uptime0 = upTime8[0];
  if(isOn())
 8009054:	f000 fb0e 	bl	8009674 <isOn>
 8009058:	4e35      	ldr	r6, [pc, #212]	; (8009130 <msgKeepAlive+0x14c>)
 800905a:	7de3      	ldrb	r3, [r4, #23]
 800905c:	b1b8      	cbz	r0, 800908e <msgKeepAlive+0xaa>
    {
      if((data->flags55&FLAGS55_SMOK_ON) == 0)
 800905e:	f003 0104 	and.w	r1, r3, #4
 8009062:	f001 07ff 	and.w	r7, r1, #255	; 0xff
 8009066:	b971      	cbnz	r1, 8009086 <msgKeepAlive+0xa2>
        {
          //Off request
          SmokChangeState(Smok_OFF, "0x55 reqOn=0 - MADO ordered all SMOK's off");
 8009068:	4932      	ldr	r1, [pc, #200]	; (8009134 <msgKeepAlive+0x150>)
 800906a:	2001      	movs	r0, #1
 800906c:	f000 fbec 	bl	8009848 <SmokChangeState>
          SmokLEDsState(0, -1, SET_NONE, -1);
 8009070:	f04f 33ff 	mov.w	r3, #4294967295
 8009074:	4619      	mov	r1, r3
 8009076:	463a      	mov	r2, r7
 8009078:	4638      	mov	r0, r7
 800907a:	f000 fc09 	bl	8009890 <SmokLEDsState>
          data->flags55 &= ~FLAGS55_SMOK_ON;
 800907e:	7de3      	ldrb	r3, [r4, #23]
 8009080:	f023 0304 	bic.w	r3, r3, #4
 8009084:	e001      	b.n	800908a <msgKeepAlive+0xa6>
        }
      else
        data->flags55 |= FLAGS55_SMOK_ON;
 8009086:	f043 0304 	orr.w	r3, r3, #4
 800908a:	75e3      	strb	r3, [r4, #23]
 800908c:	e003      	b.n	8009096 <msgKeepAlive+0xb2>
    }
  else
    {
      data->flags55 &= ~FLAGS55_SMOK_ON;
 800908e:	f023 0304 	bic.w	r3, r3, #4
 8009092:	75e3      	strb	r3, [r4, #23]
      if(cfg.flags & FLAGS_AUTO_ON_MASK)
 8009094:	6bb3      	ldr	r3, [r6, #56]	; 0x38
          else
            data->flags55 &= ~FLAGS55_SMOK_ON;
        }
    }

  if(cfg.flags&FLAGS_PRIMARY_STREAM_MASK)
 8009096:	6bb3      	ldr	r3, [r6, #56]	; 0x38
 8009098:	f013 0f04 	tst.w	r3, #4
 800909c:	7de3      	ldrb	r3, [r4, #23]
    data->flags55 |= FLAGS55_DEFAULT_PIPE;
 800909e:	bf14      	ite	ne
 80090a0:	f043 0308 	orrne.w	r3, r3, #8
  else
    data->flags55 &= ~FLAGS55_DEFAULT_PIPE;
 80090a4:	f023 0308 	biceq.w	r3, r3, #8
 80090a8:	75e3      	strb	r3, [r4, #23]

  data->cSharc     = spkSet.cSharc;
 80090aa:	4b23      	ldr	r3, [pc, #140]	; (8009138 <msgKeepAlive+0x154>)
 80090ac:	785a      	ldrb	r2, [r3, #1]
 80090ae:	7722      	strb	r2, [r4, #28]
  data->cPWM       = spkSet.cPWM;
 80090b0:	789a      	ldrb	r2, [r3, #2]
 80090b2:	7762      	strb	r2, [r4, #29]
  data->signalType = signalType;
 80090b4:	4a21      	ldr	r2, [pc, #132]	; (800913c <msgKeepAlive+0x158>)
 80090b6:	6811      	ldr	r1, [r2, #0]
  data->outputType = outputType;
 80090b8:	6852      	ldr	r2, [r2, #4]
 80090ba:	77e2      	strb	r2, [r4, #31]
  data->volume     = spkSet.volume;
 80090bc:	781a      	ldrb	r2, [r3, #0]
 80090be:	f884 2020 	strb.w	r2, [r4, #32]


  //  if(data->pipeNum != 0xFF)
  {
    if(portData[portNum].portType == PORT_TYPE_SPI)
 80090c2:	7e2a      	ldrb	r2, [r5, #24]
  else
    data->flags55 &= ~FLAGS55_DEFAULT_PIPE;

  data->cSharc     = spkSet.cSharc;
  data->cPWM       = spkSet.cPWM;
  data->signalType = signalType;
 80090c4:	77a1      	strb	r1, [r4, #30]
  data->volume     = spkSet.volume;


  //  if(data->pipeNum != 0xFF)
  {
    if(portData[portNum].portType == PORT_TYPE_SPI)
 80090c6:	2a01      	cmp	r2, #1
 80090c8:	461f      	mov	r7, r3
 80090ca:	d12a      	bne.n	8009122 <msgKeepAlive+0x13e>
      {
        int pipeNum = data->pipeNum?1:0;
 80090cc:	7da5      	ldrb	r5, [r4, #22]
        int twoOutputs =   ((data->flags55&FLAGS55_IS_TWO_OUTPUS) != 0);
        int channel = (cfg.flags & FLAGS_RIGHT_CHANNEL_MASK)?1:0;
 80090ce:	6bb3      	ldr	r3, [r6, #56]	; 0x38
  //  if(data->pipeNum != 0xFF)
  {
    if(portData[portNum].portType == PORT_TYPE_SPI)
      {
        int pipeNum = data->pipeNum?1:0;
        int twoOutputs =   ((data->flags55&FLAGS55_IS_TWO_OUTPUS) != 0);
 80090d0:	7de2      	ldrb	r2, [r4, #23]
        int channel = (cfg.flags & FLAGS_RIGHT_CHANNEL_MASK)?1:0;
        spiHelper_t *helper = (spiHelper_t *)portData[portNum].SPIhelper;
        int remoteNum = (int)masterMap[channel][pipeNum][twoOutputs];
 80090d2:	4e1b      	ldr	r6, [pc, #108]	; (8009140 <msgKeepAlive+0x15c>)
    if(portData[portNum].portType == PORT_TYPE_SPI)
      {
        int pipeNum = data->pipeNum?1:0;
        int twoOutputs =   ((data->flags55&FLAGS55_IS_TWO_OUTPUS) != 0);
        int channel = (cfg.flags & FLAGS_RIGHT_CHANNEL_MASK)?1:0;
        spiHelper_t *helper = (spiHelper_t *)portData[portNum].SPIhelper;
 80090d4:	4915      	ldr	r1, [pc, #84]	; (800912c <msgKeepAlive+0x148>)

  //  if(data->pipeNum != 0xFF)
  {
    if(portData[portNum].portType == PORT_TYPE_SPI)
      {
        int pipeNum = data->pipeNum?1:0;
 80090d6:	3500      	adds	r5, #0
 80090d8:	bf18      	it	ne
 80090da:	2501      	movne	r5, #1
        int twoOutputs =   ((data->flags55&FLAGS55_IS_TWO_OUTPUS) != 0);
        int channel = (cfg.flags & FLAGS_RIGHT_CHANNEL_MASK)?1:0;
        spiHelper_t *helper = (spiHelper_t *)portData[portNum].SPIhelper;
        int remoteNum = (int)masterMap[channel][pipeNum][twoOutputs];
 80090dc:	f003 0301 	and.w	r3, r3, #1
 80090e0:	eb05 0343 	add.w	r3, r5, r3, lsl #1
 80090e4:	f002 0001 	and.w	r0, r2, #1
 80090e8:	eb06 0343 	add.w	r3, r6, r3, lsl #1
 80090ec:	4403      	add	r3, r0
    if(portData[portNum].portType == PORT_TYPE_SPI)
      {
        int pipeNum = data->pipeNum?1:0;
        int twoOutputs =   ((data->flags55&FLAGS55_IS_TWO_OUTPUS) != 0);
        int channel = (cfg.flags & FLAGS_RIGHT_CHANNEL_MASK)?1:0;
        spiHelper_t *helper = (spiHelper_t *)portData[portNum].SPIhelper;
 80090ee:	6909      	ldr	r1, [r1, #16]
        int remoteNum = (int)masterMap[channel][pipeNum][twoOutputs];
 80090f0:	7a5b      	ldrb	r3, [r3, #9]

        if(helper->currentRemote != remoteNum || amIStereo != ((data->flags55&FLAGS55_AM_I_STEREO) != 0))
 80090f2:	f8d1 013f 	ldr.w	r0, [r1, #319]	; 0x13f
 80090f6:	4283      	cmp	r3, r0
 80090f8:	d104      	bne.n	8009104 <msgKeepAlive+0x120>
 80090fa:	6878      	ldr	r0, [r7, #4]
 80090fc:	f3c2 0240 	ubfx	r2, r2, #1, #1
 8009100:	4282      	cmp	r2, r0
 8009102:	d00e      	beq.n	8009122 <msgKeepAlive+0x13e>
          {
            helper->currentRemote = remoteNum;
 8009104:	f8c1 313f 	str.w	r3, [r1, #319]	; 0x13f
            ehifStart(&(helper->radioModule->spi));
 8009108:	f8d1 010c 	ldr.w	r0, [r1, #268]	; 0x10c
 800910c:	f003 f836 	bl	800c17c <ehifStart>
            slaveDisconnect();
 8009110:	f003 f948 	bl	800c3a4 <slaveDisconnect>
            myPipeNum = pipeNum;
            amIStereo = ((data->flags55&FLAGS55_AM_I_STEREO) != 0);
 8009114:	7de3      	ldrb	r3, [r4, #23]
        if(helper->currentRemote != remoteNum || amIStereo != ((data->flags55&FLAGS55_AM_I_STEREO) != 0))
          {
            helper->currentRemote = remoteNum;
            ehifStart(&(helper->radioModule->spi));
            slaveDisconnect();
            myPipeNum = pipeNum;
 8009116:	60bd      	str	r5, [r7, #8]
            amIStereo = ((data->flags55&FLAGS55_AM_I_STEREO) != 0);
 8009118:	f3c3 0340 	ubfx	r3, r3, #1, #1
 800911c:	607b      	str	r3, [r7, #4]
            ehifStop();
 800911e:	f003 f857 	bl	800c1d0 <ehifStop>
 8009122:	2001      	movs	r0, #1
 8009124:	e000      	b.n	8009128 <msgKeepAlive+0x144>
  return CB_RET_nACK;
}

static int msgKeepAlive(portNum_t portNum, comm_t *comm, bBuffer_t *bBuffer, uint8_t *forwardMask)
{
  if(!DIRECTION(portNum)) return 0;
 8009126:	2000      	movs	r0, #0
          }
      }
  }

  return CB_RET_ACK;
}
 8009128:	b003      	add	sp, #12
 800912a:	bdf0      	pop	{r4, r5, r6, r7, pc}
 800912c:	2001aabc 	.word	0x2001aabc
 8009130:	10001000 	.word	0x10001000
 8009134:	0801492a 	.word	0x0801492a
 8009138:	2001ac30 	.word	0x2001ac30
 800913c:	2001a1d8 	.word	0x2001a1d8
 8009140:	0801486f 	.word	0x0801486f

08009144 <kaCCEnable.part.11>:
{
}


static uint32_t timestamp = 0xFFFFFFFF;
void kaCCEnable(int enable)
 8009144:	b510      	push	{r4, lr}
{
  if(enable)
    {
      timestamp = xTaskGetTickCount() ;
 8009146:	f001 faad 	bl	800a6a4 <xTaskGetTickCount>
 800914a:	4b05      	ldr	r3, [pc, #20]	; (8009160 <kaCCEnable.part.11+0x1c>)
      portData[PER1_PORT].keepAlive = xTaskGetTickCount();
 800914c:	4c05      	ldr	r4, [pc, #20]	; (8009164 <kaCCEnable.part.11+0x20>)
static uint32_t timestamp = 0xFFFFFFFF;
void kaCCEnable(int enable)
{
  if(enable)
    {
      timestamp = xTaskGetTickCount() ;
 800914e:	6098      	str	r0, [r3, #8]
      portData[PER1_PORT].keepAlive = xTaskGetTickCount();
 8009150:	f001 faa8 	bl	800a6a4 <xTaskGetTickCount>
 8009154:	6760      	str	r0, [r4, #116]	; 0x74
      portData[PER2_PORT].keepAlive = xTaskGetTickCount();
 8009156:	f001 faa5 	bl	800a6a4 <xTaskGetTickCount>
 800915a:	f8c4 00c4 	str.w	r0, [r4, #196]	; 0xc4
 800915e:	bd10      	pop	{r4, pc}
 8009160:	2001a1d8 	.word	0x2001a1d8
 8009164:	2001aabc 	.word	0x2001aabc

08009168 <onFailed>:

}


static int onFailed(portNum_t portNum, comm_t *comm)
{
 8009168:	b538      	push	{r3, r4, r5, lr}
  //Power off when Shark or PWM did not respond or responded with nACK
  if(cfg.ack50)
 800916a:	4b13      	ldr	r3, [pc, #76]	; (80091b8 <onFailed+0x50>)
 800916c:	4d13      	ldr	r5, [pc, #76]	; (80091bc <onFailed+0x54>)
 800916e:	689c      	ldr	r4, [r3, #8]
 8009170:	b134      	cbz	r4, 8009180 <onFailed+0x18>
      portData[PER1_PORT].keepAlive = xTaskGetTickCount();
      portData[PER2_PORT].keepAlive = xTaskGetTickCount();
    }
  else
    {
      timestamp = 0xFFFFFFFF;
 8009172:	f04f 33ff 	mov.w	r3, #4294967295
 8009176:	60ab      	str	r3, [r5, #8]
{
  //Power off when Shark or PWM did not respond or responded with nACK
  if(cfg.ack50)
    {
      kaCCEnable(0);
      poweroffSeq();
 8009178:	f000 fb2a 	bl	80097d0 <poweroffSeq>
      Check_power4();
      SmokChangeState(Smok_ON, "0x50 timeout - ack50=0");
      SmokLEDsState(1, -1, SET_NONE, isHD);
      return CB_RET_ACK;//Send ACK emulating proper poweron
    }
  return CB_RET_nACK;
 800917c:	2002      	movs	r0, #2
 800917e:	bd38      	pop	{r3, r4, r5, pc}
      kaCCEnable(0);
      poweroffSeq();
    }
  else
    {
      powerON4();
 8009180:	f006 fd38 	bl	800fbf4 <powerON4>
      sendKACC();
 8009184:	f7ff fdf8 	bl	8008d78 <sendKACC>
      mdelay(300);
 8009188:	f44f 7096 	mov.w	r0, #300	; 0x12c
 800918c:	f001 fb80 	bl	800a890 <vTaskDelay>
      Check_power4();
 8009190:	f000 fbb4 	bl	80098fc <Check_power4>
      SmokChangeState(Smok_ON, "0x50 timeout - ack50=0");
 8009194:	490a      	ldr	r1, [pc, #40]	; (80091c0 <onFailed+0x58>)
 8009196:	2002      	movs	r0, #2
 8009198:	f000 fb56 	bl	8009848 <SmokChangeState>
      SmokLEDsState(1, -1, SET_NONE, isHD);
 800919c:	682b      	ldr	r3, [r5, #0]
 800919e:	2b09      	cmp	r3, #9
 80091a0:	bfd4      	ite	le
 80091a2:	2300      	movle	r3, #0
 80091a4:	2301      	movgt	r3, #1
 80091a6:	4622      	mov	r2, r4
 80091a8:	f04f 31ff 	mov.w	r1, #4294967295
 80091ac:	2001      	movs	r0, #1
 80091ae:	f000 fb6f 	bl	8009890 <SmokLEDsState>
 80091b2:	2001      	movs	r0, #1
      return CB_RET_ACK;//Send ACK emulating proper poweron
    }
  return CB_RET_nACK;
}
 80091b4:	bd38      	pop	{r3, r4, r5, pc}
 80091b6:	bf00      	nop
 80091b8:	10001000 	.word	0x10001000
 80091bc:	2001a1d8 	.word	0x2001a1d8
 80091c0:	08014955 	.word	0x08014955

080091c4 <msgOn>:
  return CB_RET_nACK;
}


static int msgOn(portNum_t portNum, comm_t *comm, bBuffer_t *bBuffer, uint8_t *forwardMask)
{
 80091c4:	b570      	push	{r4, r5, r6, lr}
 80091c6:	4616      	mov	r6, r2
  msg_50_t *data = (void*)bBuffer->data;
  if(DIRECTION(portNum))
 80091c8:	2800      	cmp	r0, #0
 80091ca:	d140      	bne.n	800924e <msgOn+0x8a>
    {
      //Already ON?
      if(isOn())
 80091cc:	f000 fa52 	bl	8009674 <isOn>
 80091d0:	4604      	mov	r4, r0
 80091d2:	2800      	cmp	r0, #0
 80091d4:	d167      	bne.n	80092a6 <msgOn+0xe2>
        return CB_RET_ACK;

      signalType = -1;
 80091d6:	4b36      	ldr	r3, [pc, #216]	; (80092b0 <msgOn+0xec>)
      outputType = -1;
      dprintf(LL_INFO, "Wlaczam zasilanie kond %x shark %x PWM %x\n", data->kondPom, data->cSharc, data->cPWM);
 80091d8:	4d36      	ldr	r5, [pc, #216]	; (80092b4 <msgOn+0xf0>)
    {
      //Already ON?
      if(isOn())
        return CB_RET_ACK;

      signalType = -1;
 80091da:	f04f 32ff 	mov.w	r2, #4294967295
 80091de:	601a      	str	r2, [r3, #0]
      outputType = -1;
 80091e0:	605a      	str	r2, [r3, #4]
      dprintf(LL_INFO, "Wlaczam zasilanie kond %x shark %x PWM %x\n", data->kondPom, data->cSharc, data->cPWM);
 80091e2:	6d2b      	ldr	r3, [r5, #80]	; 0x50
 80091e4:	2b01      	cmp	r3, #1
 80091e6:	dd05      	ble.n	80091f4 <msgOn+0x30>
 80091e8:	7df3      	ldrb	r3, [r6, #23]
 80091ea:	7db2      	ldrb	r2, [r6, #22]
 80091ec:	7d71      	ldrb	r1, [r6, #21]
 80091ee:	4832      	ldr	r0, [pc, #200]	; (80092b8 <msgOn+0xf4>)
 80091f0:	f7ff fab8 	bl	8008764 <xprintf>
      spkSet.cSharc = data->cSharc;
 80091f4:	4b31      	ldr	r3, [pc, #196]	; (80092bc <msgOn+0xf8>)
 80091f6:	7db2      	ldrb	r2, [r6, #22]
 80091f8:	705a      	strb	r2, [r3, #1]
      spkSet.cPWM = data->cPWM;
 80091fa:	7df2      	ldrb	r2, [r6, #23]
 80091fc:	709a      	strb	r2, [r3, #2]

      powerON1();
 80091fe:	f006 fcd5 	bl	800fbac <powerON1>
      powerON2();
 8009202:	f006 fcd9 	bl	800fbb8 <powerON2>
      if(!Check_power2())
 8009206:	f000 fa73 	bl	80096f0 <Check_power2>
 800920a:	2800      	cmp	r0, #0
 800920c:	d04d      	beq.n	80092aa <msgOn+0xe6>
        return CB_RET_nACK;

      //Wait before power on
      mdelay(100);
 800920e:	2064      	movs	r0, #100	; 0x64
 8009210:	f001 fb3e 	bl	800a890 <vTaskDelay>
      powerON3();
 8009214:	f006 fcd8 	bl	800fbc8 <powerON3>

      mdelay(200);
 8009218:	20c8      	movs	r0, #200	; 0xc8
 800921a:	f001 fb39 	bl	800a890 <vTaskDelay>
      if(!Check_power1())
 800921e:	f000 fa31 	bl	8009684 <Check_power1>
 8009222:	b340      	cbz	r0, 8009276 <msgOn+0xb2>
        {
          poweroffSeq();
          return CB_RET_nACK;
        }

      mdelay(cfg.powerOnDelay);
 8009224:	f8d5 00c8 	ldr.w	r0, [r5, #200]	; 0xc8
 8009228:	f001 fb32 	bl	800a890 <vTaskDelay>

      if(pll_set_retry(0x01, 1, cfg.pllRetryNum) <= 0 && !(cfg.disable_alerts&0x1000))
 800922c:	2101      	movs	r1, #1
 800922e:	f8d5 20dc 	ldr.w	r2, [r5, #220]	; 0xdc
 8009232:	4608      	mov	r0, r1
 8009234:	f006 fc8a 	bl	800fb4c <pll_set_retry>
 8009238:	2800      	cmp	r0, #0
 800923a:	dc03      	bgt.n	8009244 <msgOn+0x80>
 800923c:	4b1d      	ldr	r3, [pc, #116]	; (80092b4 <msgOn+0xf0>)
 800923e:	695b      	ldr	r3, [r3, #20]
 8009240:	04db      	lsls	r3, r3, #19
 8009242:	d518      	bpl.n	8009276 <msgOn+0xb2>
 8009244:	f7ff ff7e 	bl	8009144 <kaCCEnable.part.11>

      /* if(!Check_power3()) */
      /* 	return CB_RET_nACK; */

      kaCCEnable(1);
      sendKACC();
 8009248:	f7ff fd96 	bl	8008d78 <sendKACC>
 800924c:	e02e      	b.n	80092ac <msgOn+0xe8>

      //Przekaz komende dalej i czekaj na potwierdzenia
      return 0;
    }
  //  LEDset(0, ~0, 0);
  mdelay(cfg.ampEnableDelay50);
 800924e:	4b19      	ldr	r3, [pc, #100]	; (80092b4 <msgOn+0xf0>)
 8009250:	4c17      	ldr	r4, [pc, #92]	; (80092b0 <msgOn+0xec>)
 8009252:	f8d3 00cc 	ldr.w	r0, [r3, #204]	; 0xcc
 8009256:	f001 fb1b 	bl	800a890 <vTaskDelay>
  powerON4();
 800925a:	f006 fccb 	bl	800fbf4 <powerON4>
  sendKACC();
 800925e:	f7ff fd8b 	bl	8008d78 <sendKACC>
  mdelay(300);
 8009262:	f44f 7096 	mov.w	r0, #300	; 0x12c
 8009266:	f001 fb13 	bl	800a890 <vTaskDelay>
  if(!Check_power4())
 800926a:	f000 fb47 	bl	80098fc <Check_power4>
 800926e:	b928      	cbnz	r0, 800927c <msgOn+0xb8>
      portData[PER1_PORT].keepAlive = xTaskGetTickCount();
      portData[PER2_PORT].keepAlive = xTaskGetTickCount();
    }
  else
    {
      timestamp = 0xFFFFFFFF;
 8009270:	f04f 33ff 	mov.w	r3, #4294967295
 8009274:	60a3      	str	r3, [r4, #8]
  sendKACC();
  mdelay(300);
  if(!Check_power4())
    {
      kaCCEnable(0);
      poweroffSeq();
 8009276:	f000 faab 	bl	80097d0 <poweroffSeq>
 800927a:	e016      	b.n	80092aa <msgOn+0xe6>
      return CB_RET_nACK;
    }

  if(SmokChangeState(Smok_ON, "0x50 ACK")<0)
 800927c:	4910      	ldr	r1, [pc, #64]	; (80092c0 <msgOn+0xfc>)
 800927e:	2002      	movs	r0, #2
 8009280:	f000 fae2 	bl	8009848 <SmokChangeState>
 8009284:	2800      	cmp	r0, #0
 8009286:	da03      	bge.n	8009290 <msgOn+0xcc>
      portData[PER1_PORT].keepAlive = xTaskGetTickCount();
      portData[PER2_PORT].keepAlive = xTaskGetTickCount();
    }
  else
    {
      timestamp = 0xFFFFFFFF;
 8009288:	f04f 33ff 	mov.w	r3, #4294967295
 800928c:	60a3      	str	r3, [r4, #8]
 800928e:	e00c      	b.n	80092aa <msgOn+0xe6>
    {
      kaCCEnable(0);
      return CB_RET_nACK;
    }

  SmokLEDsState(1, -1, SET_NONE, isHD);
 8009290:	6823      	ldr	r3, [r4, #0]
 8009292:	2b09      	cmp	r3, #9
 8009294:	bfd4      	ite	le
 8009296:	2300      	movle	r3, #0
 8009298:	2301      	movgt	r3, #1
 800929a:	2200      	movs	r2, #0
 800929c:	f04f 31ff 	mov.w	r1, #4294967295
 80092a0:	2001      	movs	r0, #1
 80092a2:	f000 faf5 	bl	8009890 <SmokLEDsState>
  msg_50_t *data = (void*)bBuffer->data;
  if(DIRECTION(portNum))
    {
      //Already ON?
      if(isOn())
        return CB_RET_ACK;
 80092a6:	2401      	movs	r4, #1
 80092a8:	e000      	b.n	80092ac <msgOn+0xe8>
      spkSet.cPWM = data->cPWM;

      powerON1();
      powerON2();
      if(!Check_power2())
        return CB_RET_nACK;
 80092aa:	2402      	movs	r4, #2
      return CB_RET_nACK;
    }

  SmokLEDsState(1, -1, SET_NONE, isHD);
  return CB_RET_ACK;
}
 80092ac:	4620      	mov	r0, r4
 80092ae:	bd70      	pop	{r4, r5, r6, pc}
 80092b0:	2001a1d8 	.word	0x2001a1d8
 80092b4:	10001000 	.word	0x10001000
 80092b8:	0801496c 	.word	0x0801496c
 80092bc:	2001ac30 	.word	0x2001ac30
 80092c0:	08014997 	.word	0x08014997

080092c4 <msgACKamp5A>:
    }
  return CB_RET_ACK;
}

static int msgACKamp5A(portNum_t portNum, comm_t *comm, bBuffer_t *bBuffer, uint8_t *forwardMask)
{
 80092c4:	b538      	push	{r3, r4, r5, lr}
 80092c6:	461d      	mov	r5, r3
  if(DIRECTION(portNum))
 80092c8:	4604      	mov	r4, r0
 80092ca:	b948      	cbnz	r0, 80092e0 <msgACKamp5A+0x1c>
    {
      if(!isOn())
 80092cc:	f000 f9d2 	bl	8009674 <isOn>
 80092d0:	b908      	cbnz	r0, 80092d6 <msgACKamp5A+0x12>
        {
          //If not ON state then respond on the message for PWM and SHARC
          *forwardMask = 0;
 80092d2:	7028      	strb	r0, [r5, #0]
 80092d4:	e00f      	b.n	80092f6 <msgACKamp5A+0x32>
          return CB_RET_ACK;
        }
      ampEnable(0);
 80092d6:	4620      	mov	r0, r4
 80092d8:	f006 fc5a 	bl	800fb90 <ampEnable>
      return 0;
 80092dc:	4620      	mov	r0, r4
 80092de:	bd38      	pop	{r3, r4, r5, pc}
    }
  if(isOn())
 80092e0:	f000 f9c8 	bl	8009674 <isOn>
 80092e4:	b138      	cbz	r0, 80092f6 <msgACKamp5A+0x32>
        ampEnable(0);
      return 0;
    }
  if(isOn() && data->guiTp != 0)
    {
      mdelay(cfg.ampEnableDelay58);
 80092e6:	4b05      	ldr	r3, [pc, #20]	; (80092fc <msgACKamp5A+0x38>)
 80092e8:	f8d3 00d4 	ldr.w	r0, [r3, #212]	; 0xd4
 80092ec:	f001 fad0 	bl	800a890 <vTaskDelay>
      ampEnable(1);
 80092f0:	2001      	movs	r0, #1
 80092f2:	f006 fc4d 	bl	800fb90 <ampEnable>
  if(isOn())
    {
      mdelay(cfg.ampEnableDelay58);
      ampEnable(1);
    }
  return CB_RET_ACK;
 80092f6:	2001      	movs	r0, #1
}
 80092f8:	bd38      	pop	{r3, r4, r5, pc}
 80092fa:	bf00      	nop
 80092fc:	10001000 	.word	0x10001000

08009300 <sendPWMoffMsg>:
  //Send ACK instead of nACK
  return CB_RET_ACK;
}

void sendPWMoffMsg(void)
{
 8009300:	b513      	push	{r0, r1, r4, lr}

  bBuffer_t *buf = bAlloc(MSG_LEN);
 8009302:	2020      	movs	r0, #32
 8009304:	f004 f994 	bl	800d630 <bAlloc>
  massert(buf);
 8009308:	4604      	mov	r4, r0
 800930a:	b158      	cbz	r0, 8009324 <sendPWMoffMsg+0x24>
  buf->size = sizeof(msg_56_t);
  msg_56_t *msg = (void*)buf->data;
  memset(msg, 0, sizeof(msg_56_t));
  msg->kod = 0x56;
 800930c:	4621      	mov	r1, r4
void sendPWMoffMsg(void)
{

  bBuffer_t *buf = bAlloc(MSG_LEN);
  massert(buf);
  buf->size = sizeof(msg_56_t);
 800930e:	2201      	movs	r2, #1
  msg_56_t *msg = (void*)buf->data;
  memset(msg, 0, sizeof(msg_56_t));
  msg->kod = 0x56;
 8009310:	2356      	movs	r3, #86	; 0x56
void sendPWMoffMsg(void)
{

  bBuffer_t *buf = bAlloc(MSG_LEN);
  massert(buf);
  buf->size = sizeof(msg_56_t);
 8009312:	8022      	strh	r2, [r4, #0]
  msg_56_t *msg = (void*)buf->data;
  memset(msg, 0, sizeof(msg_56_t));
  msg->kod = 0x56;

  messageTx(PER2_PORT, (void*)buf->data, buf->size, (uint32_t)buf);
 8009314:	2002      	movs	r0, #2
  bBuffer_t *buf = bAlloc(MSG_LEN);
  massert(buf);
  buf->size = sizeof(msg_56_t);
  msg_56_t *msg = (void*)buf->data;
  memset(msg, 0, sizeof(msg_56_t));
  msg->kod = 0x56;
 8009316:	f801 3f14 	strb.w	r3, [r1, #20]!

  messageTx(PER2_PORT, (void*)buf->data, buf->size, (uint32_t)buf);
 800931a:	4623      	mov	r3, r4
 800931c:	f002 fc46 	bl	800bbac <messageTx>

}
 8009320:	b002      	add	sp, #8
 8009322:	bd10      	pop	{r4, pc}

void sendPWMoffMsg(void)
{

  bBuffer_t *buf = bAlloc(MSG_LEN);
  massert(buf);
 8009324:	4b05      	ldr	r3, [pc, #20]	; (800933c <sendPWMoffMsg+0x3c>)
 8009326:	4906      	ldr	r1, [pc, #24]	; (8009340 <sendPWMoffMsg+0x40>)
 8009328:	4806      	ldr	r0, [pc, #24]	; (8009344 <sendPWMoffMsg+0x44>)
 800932a:	22eb      	movs	r2, #235	; 0xeb
 800932c:	f7ff fa1a 	bl	8008764 <xprintf>
 8009330:	2301      	movs	r3, #1
 8009332:	9301      	str	r3, [sp, #4]
 8009334:	9b01      	ldr	r3, [sp, #4]
 8009336:	2b00      	cmp	r3, #0
 8009338:	d1fc      	bne.n	8009334 <sendPWMoffMsg+0x34>
 800933a:	e7e7      	b.n	800930c <sendPWMoffMsg+0xc>
 800933c:	080148f0 	.word	0x080148f0
 8009340:	08014880 	.word	0x08014880
 8009344:	080148f4 	.word	0x080148f4

08009348 <sendStatus>:

  return CB_RET_ACK;
}

int sendStatus(int MsgCode, int val1, int val2)
{
 8009348:	b570      	push	{r4, r5, r6, lr}
  if(cfg.do_not_send_status == 1)
 800934a:	4b12      	ldr	r3, [pc, #72]	; (8009394 <sendStatus+0x4c>)

  return CB_RET_ACK;
}

int sendStatus(int MsgCode, int val1, int val2)
{
 800934c:	4615      	mov	r5, r2
  if(cfg.do_not_send_status == 1)
 800934e:	6a9a      	ldr	r2, [r3, #40]	; 0x28
 8009350:	2a01      	cmp	r2, #1

  return CB_RET_ACK;
}

int sendStatus(int MsgCode, int val1, int val2)
{
 8009352:	4604      	mov	r4, r0
 8009354:	460e      	mov	r6, r1
  if(cfg.do_not_send_status == 1)
 8009356:	d01b      	beq.n	8009390 <sendStatus+0x48>
    return 0;
  if(cfg.do_not_send_status != 0 && (cfg.do_not_send_status & 0xF0) != (MsgCode & 0xF0))
 8009358:	6a9a      	ldr	r2, [r3, #40]	; 0x28
 800935a:	b122      	cbz	r2, 8009366 <sendStatus+0x1e>
 800935c:	6a9b      	ldr	r3, [r3, #40]	; 0x28
 800935e:	4043      	eors	r3, r0
 8009360:	f013 0ff0 	tst.w	r3, #240	; 0xf0
 8009364:	d114      	bne.n	8009390 <sendStatus+0x48>
    return 0;
  bBuffer_t *bBuffer = bAlloc(MSG_LEN);
 8009366:	2020      	movs	r0, #32
 8009368:	f004 f962 	bl	800d630 <bAlloc>
  bBuffer->size = sizeof(msg_B0_t);
  msg_B0_t *data = (void*)bBuffer->data;
  data->kod = 0xB0;
 800936c:	21b0      	movs	r1, #176	; 0xb0
  if(cfg.do_not_send_status == 1)
    return 0;
  if(cfg.do_not_send_status != 0 && (cfg.do_not_send_status & 0xF0) != (MsgCode & 0xF0))
    return 0;
  bBuffer_t *bBuffer = bAlloc(MSG_LEN);
  bBuffer->size = sizeof(msg_B0_t);
 800936e:	2206      	movs	r2, #6
{
  if(cfg.do_not_send_status == 1)
    return 0;
  if(cfg.do_not_send_status != 0 && (cfg.do_not_send_status & 0xF0) != (MsgCode & 0xF0))
    return 0;
  bBuffer_t *bBuffer = bAlloc(MSG_LEN);
 8009370:	4603      	mov	r3, r0
  bBuffer->size = sizeof(msg_B0_t);
  msg_B0_t *data = (void*)bBuffer->data;
  data->kod = 0xB0;
 8009372:	7501      	strb	r1, [r0, #20]
  if(cfg.do_not_send_status == 1)
    return 0;
  if(cfg.do_not_send_status != 0 && (cfg.do_not_send_status & 0xF0) != (MsgCode & 0xF0))
    return 0;
  bBuffer_t *bBuffer = bAlloc(MSG_LEN);
  bBuffer->size = sizeof(msg_B0_t);
 8009374:	8002      	strh	r2, [r0, #0]
  msg_B0_t *data = (void*)bBuffer->data;
  data->kod = 0xB0;
  data->kondPom = portData[CEN_PORT].kond_pom;
 8009376:	4808      	ldr	r0, [pc, #32]	; (8009398 <sendStatus+0x50>)
 8009378:	7e41      	ldrb	r1, [r0, #25]
 800937a:	7559      	strb	r1, [r3, #21]
  data->urzadzenie = portData[CEN_PORT].urzadzenie;
 800937c:	7e81      	ldrb	r1, [r0, #26]
 800937e:	7599      	strb	r1, [r3, #22]
  data->Smok_msgType = MsgCode;
 8009380:	75dc      	strb	r4, [r3, #23]
  data->Smok_msg1 = val1;
 8009382:	761e      	strb	r6, [r3, #24]
  data->Smok_msg2 = val2;
 8009384:	765d      	strb	r5, [r3, #25]
  messageTx(CEN_PORT, (void*)bBuffer->data, bBuffer->size, (uint32_t)bBuffer);
 8009386:	f103 0114 	add.w	r1, r3, #20
 800938a:	2000      	movs	r0, #0
 800938c:	f002 fc0e 	bl	800bbac <messageTx>
  return 0;
}
 8009390:	2000      	movs	r0, #0
 8009392:	bd70      	pop	{r4, r5, r6, pc}
 8009394:	10001000 	.word	0x10001000
 8009398:	2001aabc 	.word	0x2001aabc

0800939c <sendStatusLong>:

int sendStatusLong(int MsgCode, int val1, int val2, int val3, int val4)
{
 800939c:	e92d 41f0 	stmdb	sp!, {r4, r5, r6, r7, r8, lr}
 80093a0:	4604      	mov	r4, r0
  if(cfg.do_not_send_status == 1)
 80093a2:	4815      	ldr	r0, [pc, #84]	; (80093f8 <sendStatusLong+0x5c>)
  messageTx(CEN_PORT, (void*)bBuffer->data, bBuffer->size, (uint32_t)bBuffer);
  return 0;
}

int sendStatusLong(int MsgCode, int val1, int val2, int val3, int val4)
{
 80093a4:	461e      	mov	r6, r3
  if(cfg.do_not_send_status == 1)
 80093a6:	6a83      	ldr	r3, [r0, #40]	; 0x28
 80093a8:	2b01      	cmp	r3, #1
  messageTx(CEN_PORT, (void*)bBuffer->data, bBuffer->size, (uint32_t)bBuffer);
  return 0;
}

int sendStatusLong(int MsgCode, int val1, int val2, int val3, int val4)
{
 80093aa:	460f      	mov	r7, r1
 80093ac:	4690      	mov	r8, r2
  if(cfg.do_not_send_status == 1)
 80093ae:	d01f      	beq.n	80093f0 <sendStatusLong+0x54>
    return 0;
  if(cfg.do_not_send_status != 0 && (cfg.do_not_send_status & 0xF0) != (MsgCode & 0xF0))
 80093b0:	6a83      	ldr	r3, [r0, #40]	; 0x28
 80093b2:	b123      	cbz	r3, 80093be <sendStatusLong+0x22>
 80093b4:	6a80      	ldr	r0, [r0, #40]	; 0x28
 80093b6:	4060      	eors	r0, r4
 80093b8:	f010 0ff0 	tst.w	r0, #240	; 0xf0
 80093bc:	d118      	bne.n	80093f0 <sendStatusLong+0x54>
    return 0;
  bBuffer_t *bBuffer = bAlloc(MSG_LEN);
 80093be:	2020      	movs	r0, #32
 80093c0:	f004 f936 	bl	800d630 <bAlloc>
  bBuffer->size = sizeof(msg_B1_t);
  msg_B1_t *data = (void*)bBuffer->data;
  data->kod = 0xB1;
  data->kondPom = portData[CEN_PORT].kond_pom;
 80093c4:	4d0d      	ldr	r5, [pc, #52]	; (80093fc <sendStatusLong+0x60>)
  if(cfg.do_not_send_status != 0 && (cfg.do_not_send_status & 0xF0) != (MsgCode & 0xF0))
    return 0;
  bBuffer_t *bBuffer = bAlloc(MSG_LEN);
  bBuffer->size = sizeof(msg_B1_t);
  msg_B1_t *data = (void*)bBuffer->data;
  data->kod = 0xB1;
 80093c6:	23b1      	movs	r3, #177	; 0xb1
  if(cfg.do_not_send_status == 1)
    return 0;
  if(cfg.do_not_send_status != 0 && (cfg.do_not_send_status & 0xF0) != (MsgCode & 0xF0))
    return 0;
  bBuffer_t *bBuffer = bAlloc(MSG_LEN);
  bBuffer->size = sizeof(msg_B1_t);
 80093c8:	2208      	movs	r2, #8
 80093ca:	8002      	strh	r2, [r0, #0]
  msg_B1_t *data = (void*)bBuffer->data;
  data->kod = 0xB1;
 80093cc:	7503      	strb	r3, [r0, #20]
  data->kondPom = portData[CEN_PORT].kond_pom;
 80093ce:	7e6b      	ldrb	r3, [r5, #25]
 80093d0:	7543      	strb	r3, [r0, #21]
  data->urzadzenie = portData[CEN_PORT].urzadzenie;
 80093d2:	7eab      	ldrb	r3, [r5, #26]
 80093d4:	7583      	strb	r3, [r0, #22]
  data->Smok_msgType = MsgCode;
  data->Smok_msgA1 = val1;
  data->Smok_msgA2 = val2;
  data->Smok_msgB1 = val3;
  data->Smok_msgB2 = val4;
 80093d6:	9b06      	ldr	r3, [sp, #24]
 80093d8:	76c3      	strb	r3, [r0, #27]
  bBuffer->size = sizeof(msg_B1_t);
  msg_B1_t *data = (void*)bBuffer->data;
  data->kod = 0xB1;
  data->kondPom = portData[CEN_PORT].kond_pom;
  data->urzadzenie = portData[CEN_PORT].urzadzenie;
  data->Smok_msgType = MsgCode;
 80093da:	75c4      	strb	r4, [r0, #23]
  data->Smok_msgA1 = val1;
 80093dc:	7607      	strb	r7, [r0, #24]
  data->Smok_msgA2 = val2;
 80093de:	f880 8019 	strb.w	r8, [r0, #25]
  data->Smok_msgB1 = val3;
 80093e2:	7686      	strb	r6, [r0, #26]
  data->Smok_msgB2 = val4;
  messageTx(CEN_PORT, (void*)bBuffer->data, bBuffer->size, (uint32_t)bBuffer);
 80093e4:	4603      	mov	r3, r0
 80093e6:	f100 0114 	add.w	r1, r0, #20
 80093ea:	2000      	movs	r0, #0
 80093ec:	f002 fbde 	bl	800bbac <messageTx>
  return 0;
}
 80093f0:	2000      	movs	r0, #0
 80093f2:	e8bd 81f0 	ldmia.w	sp!, {r4, r5, r6, r7, r8, pc}
 80093f6:	bf00      	nop
 80093f8:	10001000 	.word	0x10001000
 80093fc:	2001aabc 	.word	0x2001aabc

08009400 <Timeout_Data>:
  COMM_TBL_SET(B1, 00, SMOK_GEN,         0,    0, msgACK,       NULL),
};


void Timeout_Data(portNum_t portNum, char *buffer, int bufferSize)
{
 8009400:	4770      	bx	lr
	...

08009404 <kaCCEnable>:


static uint32_t timestamp = 0xFFFFFFFF;
void kaCCEnable(int enable)
{
  if(enable)
 8009404:	b108      	cbz	r0, 800940a <kaCCEnable+0x6>
 8009406:	f7ff be9d 	b.w	8009144 <kaCCEnable.part.11>
      portData[PER1_PORT].keepAlive = xTaskGetTickCount();
      portData[PER2_PORT].keepAlive = xTaskGetTickCount();
    }
  else
    {
      timestamp = 0xFFFFFFFF;
 800940a:	4b02      	ldr	r3, [pc, #8]	; (8009414 <kaCCEnable+0x10>)
 800940c:	f04f 32ff 	mov.w	r2, #4294967295
 8009410:	609a      	str	r2, [r3, #8]
 8009412:	4770      	bx	lr
 8009414:	2001a1d8 	.word	0x2001a1d8

08009418 <communicatorPeriodicPrivate>:
  messageTx(PER1_PORT, (void*)buf->data, buf->size, (uint32_t)buf);
  messageTx(PER2_PORT, (void*)buf->data, buf->size, (uint32_t)buf);
}

void communicatorPeriodicPrivate(void)
{
 8009418:	e92d 41f0 	stmdb	sp!, {r4, r5, r6, r7, r8, lr}
  if(timestamp < xTaskGetTickCount())
 800941c:	4c22      	ldr	r4, [pc, #136]	; (80094a8 <communicatorPeriodicPrivate+0x90>)
 800941e:	4e23      	ldr	r6, [pc, #140]	; (80094ac <communicatorPeriodicPrivate+0x94>)
 8009420:	f001 f940 	bl	800a6a4 <xTaskGetTickCount>
 8009424:	68a3      	ldr	r3, [r4, #8]
 8009426:	4298      	cmp	r0, r3
 8009428:	d906      	bls.n	8009438 <communicatorPeriodicPrivate+0x20>
    {
      sendKACC();
 800942a:	f7ff fca5 	bl	8008d78 <sendKACC>
      timestamp = xTaskGetTickCount() + cfg.ka_period;
 800942e:	f001 f939 	bl	800a6a4 <xTaskGetTickCount>
 8009432:	6a33      	ldr	r3, [r6, #32]
 8009434:	4418      	add	r0, r3
 8009436:	60a0      	str	r0, [r4, #8]
 8009438:	4d1d      	ldr	r5, [pc, #116]	; (80094b0 <communicatorPeriodicPrivate+0x98>)
    }

  portNum_t portNum;
  for(portNum = PER1_PORT; portNum <= PER2_PORT; portNum++)
    if((int)xTaskGetTickCount() - (int)portData[portNum].keepAlive > cfg.ka_timeout)
 800943a:	f8df 8070 	ldr.w	r8, [pc, #112]	; 80094ac <communicatorPeriodicPrivate+0x94>
  messageTx(PER1_PORT, (void*)buf->data, buf->size, (uint32_t)buf);
  messageTx(PER2_PORT, (void*)buf->data, buf->size, (uint32_t)buf);
}

void communicatorPeriodicPrivate(void)
{
 800943e:	2401      	movs	r4, #1
 8009440:	462f      	mov	r7, r5
      timestamp = xTaskGetTickCount() + cfg.ka_period;
    }

  portNum_t portNum;
  for(portNum = PER1_PORT; portNum <= PER2_PORT; portNum++)
    if((int)xTaskGetTickCount() - (int)portData[portNum].keepAlive > cfg.ka_timeout)
 8009442:	f001 f92f 	bl	800a6a4 <xTaskGetTickCount>
 8009446:	6f6b      	ldr	r3, [r5, #116]	; 0x74
 8009448:	6a72      	ldr	r2, [r6, #36]	; 0x24
 800944a:	1ac0      	subs	r0, r0, r3
 800944c:	4290      	cmp	r0, r2
 800944e:	dd08      	ble.n	8009462 <communicatorPeriodicPrivate+0x4a>
      {
        uitTimeout(portNum);
 8009450:	4620      	mov	r0, r4
 8009452:	f000 f983 	bl	800975c <uitTimeout>
        portData[portNum].keepAlive = xTaskGetTickCount() + cfg.ka_period;
 8009456:	f001 f925 	bl	800a6a4 <xTaskGetTickCount>
 800945a:	f8d8 3020 	ldr.w	r3, [r8, #32]
 800945e:	4418      	add	r0, r3
 8009460:	6768      	str	r0, [r5, #116]	; 0x74
      sendKACC();
      timestamp = xTaskGetTickCount() + cfg.ka_period;
    }

  portNum_t portNum;
  for(portNum = PER1_PORT; portNum <= PER2_PORT; portNum++)
 8009462:	3401      	adds	r4, #1
 8009464:	b2e4      	uxtb	r4, r4
 8009466:	2c03      	cmp	r4, #3
 8009468:	f105 0550 	add.w	r5, r5, #80	; 0x50
 800946c:	d1e9      	bne.n	8009442 <communicatorPeriodicPrivate+0x2a>
      {
        uitTimeout(portNum);
        portData[portNum].keepAlive = xTaskGetTickCount() + cfg.ka_period;
      }

  if(abs(portData[CEN_PORT].keepAlive - xTaskGetTickCount()) > cfg.ka_timeout)
 800946e:	6a7c      	ldr	r4, [r7, #36]	; 0x24
 8009470:	4d0f      	ldr	r5, [pc, #60]	; (80094b0 <communicatorPeriodicPrivate+0x98>)
 8009472:	f001 f917 	bl	800a6a4 <xTaskGetTickCount>
 8009476:	1a20      	subs	r0, r4, r0
 8009478:	2800      	cmp	r0, #0
 800947a:	6a6c      	ldr	r4, [r5, #36]	; 0x24
 800947c:	da03      	bge.n	8009486 <communicatorPeriodicPrivate+0x6e>
 800947e:	f001 f911 	bl	800a6a4 <xTaskGetTickCount>
 8009482:	1b00      	subs	r0, r0, r4
 8009484:	e002      	b.n	800948c <communicatorPeriodicPrivate+0x74>
 8009486:	f001 f90d 	bl	800a6a4 <xTaskGetTickCount>
 800948a:	1a20      	subs	r0, r4, r0
 800948c:	6a73      	ldr	r3, [r6, #36]	; 0x24
 800948e:	4298      	cmp	r0, r3
 8009490:	dd08      	ble.n	80094a4 <communicatorPeriodicPrivate+0x8c>
    {
      portData[CEN_PORT].keepAlive = xTaskGetTickCount();
 8009492:	f001 f907 	bl	800a6a4 <xTaskGetTickCount>
 8009496:	6278      	str	r0, [r7, #36]	; 0x24
              slaveDisconnect();
              ehifStop();
            }
        }
#else
      SPIevent(CEN_PORT, SPI_EV_TYPE_DLINK_ERROR);
 8009498:	2102      	movs	r1, #2
 800949a:	2000      	movs	r0, #0
#endif
    }
}
 800949c:	e8bd 41f0 	ldmia.w	sp!, {r4, r5, r6, r7, r8, lr}
              slaveDisconnect();
              ehifStop();
            }
        }
#else
      SPIevent(CEN_PORT, SPI_EV_TYPE_DLINK_ERROR);
 80094a0:	f002 bddc 	b.w	800c05c <SPIevent>
 80094a4:	e8bd 81f0 	ldmia.w	sp!, {r4, r5, r6, r7, r8, pc}
 80094a8:	2001a1d8 	.word	0x2001a1d8
 80094ac:	10001000 	.word	0x10001000
 80094b0:	2001aabc 	.word	0x2001aabc

080094b4 <connectionState>:
    }
}

static netState_e prevState = NET_NC;
void connectionState(netState_e state)
{
 80094b4:	b570      	push	{r4, r5, r6, lr}
  if(state == prevState) return;//No change
 80094b6:	4b1e      	ldr	r3, [pc, #120]	; (8009530 <connectionState+0x7c>)
 80094b8:	7b1a      	ldrb	r2, [r3, #12]
 80094ba:	4282      	cmp	r2, r0
    }
}

static netState_e prevState = NET_NC;
void connectionState(netState_e state)
{
 80094bc:	4604      	mov	r4, r0
 80094be:	461e      	mov	r6, r3
  if(state == prevState) return;//No change
 80094c0:	d034      	beq.n	800952c <connectionState+0x78>
  signalType = -1;
 80094c2:	4b1c      	ldr	r3, [pc, #112]	; (8009534 <connectionState+0x80>)
 80094c4:	f04f 35ff 	mov.w	r5, #4294967295
  outputType = -1;
  switch(state)
 80094c8:	2801      	cmp	r0, #1

static netState_e prevState = NET_NC;
void connectionState(netState_e state)
{
  if(state == prevState) return;//No change
  signalType = -1;
 80094ca:	601d      	str	r5, [r3, #0]
  outputType = -1;
 80094cc:	605d      	str	r5, [r3, #4]
  switch(state)
 80094ce:	d00d      	beq.n	80094ec <connectionState+0x38>
 80094d0:	d31b      	bcc.n	800950a <connectionState+0x56>
 80094d2:	2802      	cmp	r0, #2
 80094d4:	d129      	bne.n	800952a <connectionState+0x76>
    {
    case NET_DATAGRAM:
      SmokChangeState(Smok_OFF, "acquired datagram connection");
 80094d6:	4918      	ldr	r1, [pc, #96]	; (8009538 <connectionState+0x84>)
 80094d8:	2001      	movs	r0, #1
 80094da:	f000 f9b5 	bl	8009848 <SmokChangeState>
      SmokLEDsState(-1, 1, SET_NONE, -1);
 80094de:	462b      	mov	r3, r5
 80094e0:	2200      	movs	r2, #0
 80094e2:	2101      	movs	r1, #1
 80094e4:	4628      	mov	r0, r5
 80094e6:	f000 f9d3 	bl	8009890 <SmokLEDsState>
      break;
 80094ea:	e01e      	b.n	800952a <connectionState+0x76>
    case NET_PARTIAL:
      if(isOn())
 80094ec:	f000 f8c2 	bl	8009674 <isOn>
 80094f0:	b128      	cbz	r0, 80094fe <connectionState+0x4a>
        SmokLEDsState(0, 0, SET_CONN, -1);
 80094f2:	2100      	movs	r1, #0
 80094f4:	462b      	mov	r3, r5
 80094f6:	4622      	mov	r2, r4
 80094f8:	4608      	mov	r0, r1
 80094fa:	f000 f9c9 	bl	8009890 <SmokLEDsState>
      SmokChangeState(Smok_NC, "lost datagram connection");
 80094fe:	490f      	ldr	r1, [pc, #60]	; (800953c <connectionState+0x88>)
 8009500:	2000      	movs	r0, #0
 8009502:	f000 f9a1 	bl	8009848 <SmokChangeState>
      power_SHD_ERR_P(DATAGRAM_CONN_LOST);
 8009506:	2091      	movs	r0, #145	; 0x91
 8009508:	e00d      	b.n	8009526 <connectionState+0x72>
      break;
    case NET_NC:
      if(isOn())
 800950a:	f000 f8b3 	bl	8009674 <isOn>
 800950e:	b128      	cbz	r0, 800951c <connectionState+0x68>
        SmokLEDsState(0, 0, SET_CONN, -1);
 8009510:	2100      	movs	r1, #0
 8009512:	462b      	mov	r3, r5
 8009514:	2201      	movs	r2, #1
 8009516:	4608      	mov	r0, r1
 8009518:	f000 f9ba 	bl	8009890 <SmokLEDsState>
      SmokChangeState(Smok_NC, "lost radio connection");
 800951c:	4908      	ldr	r1, [pc, #32]	; (8009540 <connectionState+0x8c>)
 800951e:	2000      	movs	r0, #0
 8009520:	f000 f992 	bl	8009848 <SmokChangeState>
      power_SHD_ERR_P(CONN_LOST);
 8009524:	2092      	movs	r0, #146	; 0x92
 8009526:	f000 f893 	bl	8009650 <power_SHD_ERR_P>
      break;
    }
  prevState = state;
 800952a:	7334      	strb	r4, [r6, #12]
 800952c:	bd70      	pop	{r4, r5, r6, pc}
 800952e:	bf00      	nop
 8009530:	2001ac30 	.word	0x2001ac30
 8009534:	2001a1d8 	.word	0x2001a1d8
 8009538:	080149a0 	.word	0x080149a0
 800953c:	080149bd 	.word	0x080149bd
 8009540:	080149d6 	.word	0x080149d6

08009544 <stateChangeOFF2NC>:
  kaCCEnable(1);
  return 0;
}

static int stateChangeOFF2NC(smokState_e oldState, smokState_e newState)
{
 8009544:	b508      	push	{r3, lr}
  dprintf(LL_INFO, "OFF->NC\n");
 8009546:	4b04      	ldr	r3, [pc, #16]	; (8009558 <stateChangeOFF2NC+0x14>)
 8009548:	6d1b      	ldr	r3, [r3, #80]	; 0x50
 800954a:	2b01      	cmp	r3, #1
 800954c:	dd02      	ble.n	8009554 <stateChangeOFF2NC+0x10>
 800954e:	4803      	ldr	r0, [pc, #12]	; (800955c <stateChangeOFF2NC+0x18>)
 8009550:	f7ff f908 	bl	8008764 <xprintf>
  return 0;
}
 8009554:	2000      	movs	r0, #0
 8009556:	bd08      	pop	{r3, pc}
 8009558:	10001000 	.word	0x10001000
 800955c:	08014a10 	.word	0x08014a10

08009560 <stateChangeInvalid>:
}

typedef int (*changeState_t)(smokState_e oldState, smokState_e newState);

static int stateChangeInvalid(smokState_e oldState, smokState_e newState)
{
 8009560:	b508      	push	{r3, lr}
  dprintf(LL_WARNING, "Invalid state requested.\n");
 8009562:	4b05      	ldr	r3, [pc, #20]	; (8009578 <stateChangeInvalid+0x18>)
 8009564:	6d1b      	ldr	r3, [r3, #80]	; 0x50
 8009566:	2b00      	cmp	r3, #0
 8009568:	dd02      	ble.n	8009570 <stateChangeInvalid+0x10>
 800956a:	4804      	ldr	r0, [pc, #16]	; (800957c <stateChangeInvalid+0x1c>)
 800956c:	f7ff f8fa 	bl	8008764 <xprintf>
  return -1;
}
 8009570:	f04f 30ff 	mov.w	r0, #4294967295
 8009574:	bd08      	pop	{r3, pc}
 8009576:	bf00      	nop
 8009578:	10001000 	.word	0x10001000
 800957c:	08014a19 	.word	0x08014a19

08009580 <stateChangeNC2OFF>:
  dprintf(LL_WARNING, "Already in requested state.\n");
  return 1;
}

static int stateChangeNC2OFF(smokState_e oldState, smokState_e newState)
{
 8009580:	b508      	push	{r3, lr}
  //  LEDset(0, ~0, 0);
  //  LEDset(0, LED_GREEN, 1);
  dprintf(LL_INFO, "NC->OFF\n");
 8009582:	4b04      	ldr	r3, [pc, #16]	; (8009594 <stateChangeNC2OFF+0x14>)
 8009584:	6d1b      	ldr	r3, [r3, #80]	; 0x50
 8009586:	2b01      	cmp	r3, #1
 8009588:	dd02      	ble.n	8009590 <stateChangeNC2OFF+0x10>
 800958a:	4803      	ldr	r0, [pc, #12]	; (8009598 <stateChangeNC2OFF+0x18>)
 800958c:	f7ff f8ea 	bl	8008764 <xprintf>
  return 0;
}
 8009590:	2000      	movs	r0, #0
 8009592:	bd08      	pop	{r3, pc}
 8009594:	10001000 	.word	0x10001000
 8009598:	08014a33 	.word	0x08014a33

0800959c <stateChangeAlreadyThere>:
  dprintf(LL_WARNING, "Invalid state requested.\n");
  return -1;
}

static int stateChangeAlreadyThere(smokState_e oldState, smokState_e newState)
{
 800959c:	b508      	push	{r3, lr}
  dprintf(LL_WARNING, "Already in requested state.\n");
 800959e:	4b04      	ldr	r3, [pc, #16]	; (80095b0 <stateChangeAlreadyThere+0x14>)
 80095a0:	6d1b      	ldr	r3, [r3, #80]	; 0x50
 80095a2:	2b00      	cmp	r3, #0
 80095a4:	dd02      	ble.n	80095ac <stateChangeAlreadyThere+0x10>
 80095a6:	4803      	ldr	r0, [pc, #12]	; (80095b4 <stateChangeAlreadyThere+0x18>)
 80095a8:	f7ff f8dc 	bl	8008764 <xprintf>
  return 1;
}
 80095ac:	2001      	movs	r0, #1
 80095ae:	bd08      	pop	{r3, pc}
 80095b0:	10001000 	.word	0x10001000
 80095b4:	08014a3c 	.word	0x08014a3c

080095b8 <stateChangeOFF2ON>:
  poweroffSeq();
  return 0;
}

static int stateChangeOFF2ON(smokState_e oldState, smokState_e newState)
{
 80095b8:	b508      	push	{r3, lr}
  dprintf(LL_INFO, "OFF->ON\n");
 80095ba:	4b06      	ldr	r3, [pc, #24]	; (80095d4 <stateChangeOFF2ON+0x1c>)
 80095bc:	6d1b      	ldr	r3, [r3, #80]	; 0x50
 80095be:	2b01      	cmp	r3, #1
 80095c0:	dd02      	ble.n	80095c8 <stateChangeOFF2ON+0x10>
 80095c2:	4805      	ldr	r0, [pc, #20]	; (80095d8 <stateChangeOFF2ON+0x20>)
 80095c4:	f7ff f8ce 	bl	8008764 <xprintf>
  kaCCEnable(1);
 80095c8:	2001      	movs	r0, #1
 80095ca:	f7ff ff1b 	bl	8009404 <kaCCEnable>
  return 0;
}
 80095ce:	2000      	movs	r0, #0
 80095d0:	bd08      	pop	{r3, pc}
 80095d2:	bf00      	nop
 80095d4:	10001000 	.word	0x10001000
 80095d8:	08014a59 	.word	0x08014a59

080095dc <getVoltages>:
{
  return (smokState == Smok_ON);
}

static void getVoltages(void)
{
 80095dc:	b5f8      	push	{r3, r4, r5, r6, r7, lr}
  //clear measures
  CLRADC(Uwe_val);
 80095de:	f000 fda9 	bl	800a134 <vPortEnterCritical>
 80095e2:	4d15      	ldr	r5, [pc, #84]	; (8009638 <getVoltages+0x5c>)
 80095e4:	4b15      	ldr	r3, [pc, #84]	; (800963c <getVoltages+0x60>)
 80095e6:	2600      	movs	r6, #0
 80095e8:	2400      	movs	r4, #0
 80095ea:	2700      	movs	r7, #0
 80095ec:	e9c3 6700 	strd	r6, r7, [r3]
 80095f0:	602c      	str	r4, [r5, #0]
 80095f2:	f000 fdb1 	bl	800a158 <vPortExitCritical>
  CLRADC(Uwy_val);
 80095f6:	f000 fd9d 	bl	800a134 <vPortEnterCritical>
 80095fa:	4b11      	ldr	r3, [pc, #68]	; (8009640 <getVoltages+0x64>)
 80095fc:	e9c3 6700 	strd	r6, r7, [r3]
 8009600:	4e10      	ldr	r6, [pc, #64]	; (8009644 <getVoltages+0x68>)
 8009602:	6034      	str	r4, [r6, #0]
 8009604:	f000 fda8 	bl	800a158 <vPortExitCritical>

  //Wait until at least one measure is done
  int retry = 100;
 8009608:	2464      	movs	r4, #100	; 0x64
  while((Uwe_val_smpl == 0 || Uwy_val_smpl == 0) && retry--)
 800960a:	682b      	ldr	r3, [r5, #0]
 800960c:	b10b      	cbz	r3, 8009612 <getVoltages+0x36>
 800960e:	6833      	ldr	r3, [r6, #0]
 8009610:	b933      	cbnz	r3, 8009620 <getVoltages+0x44>
 8009612:	f114 34ff 	adds.w	r4, r4, #4294967295
 8009616:	d304      	bcc.n	8009622 <getVoltages+0x46>
    mdelay(1);
 8009618:	2001      	movs	r0, #1
 800961a:	f001 f939 	bl	800a890 <vTaskDelay>
 800961e:	e7f4      	b.n	800960a <getVoltages+0x2e>

  if(retry <= 0)
 8009620:	b944      	cbnz	r4, 8009634 <getVoltages+0x58>
    dprintf(LL_ERROR, "Uwy or Uwe measure failed!!!\n");
 8009622:	4b09      	ldr	r3, [pc, #36]	; (8009648 <getVoltages+0x6c>)
 8009624:	6d1b      	ldr	r3, [r3, #80]	; 0x50
 8009626:	2b00      	cmp	r3, #0
 8009628:	db04      	blt.n	8009634 <getVoltages+0x58>
 800962a:	4808      	ldr	r0, [pc, #32]	; (800964c <getVoltages+0x70>)
}
 800962c:	e8bd 40f8 	ldmia.w	sp!, {r3, r4, r5, r6, r7, lr}
  int retry = 100;
  while((Uwe_val_smpl == 0 || Uwy_val_smpl == 0) && retry--)
    mdelay(1);

  if(retry <= 0)
    dprintf(LL_ERROR, "Uwy or Uwe measure failed!!!\n");
 8009630:	f7ff b898 	b.w	8008764 <xprintf>
 8009634:	bdf8      	pop	{r3, r4, r5, r6, r7, pc}
 8009636:	bf00      	nop
 8009638:	2001ae38 	.word	0x2001ae38
 800963c:	2001ae40 	.word	0x2001ae40
 8009640:	2001ae70 	.word	0x2001ae70
 8009644:	2001ae60 	.word	0x2001ae60
 8009648:	10001000 	.word	0x10001000
 800964c:	08014a62 	.word	0x08014a62

08009650 <power_SHD_ERR_P>:

// Wartosci pradu/napiecia wyliczane w odpowiedniej funkcji
int temp1, temp2;
#define TEMP2C(arg) ((arg)>>7)
void power_SHD_ERR_P(uint8_t errorCode)
{
 8009650:	4770      	bx	lr
	...

08009654 <wdogFail>:
      break;
    }
}

void wdogFail(void)
{
 8009654:	b508      	push	{r3, lr}
  if(!(cfg.disable_alerts&0x02))
 8009656:	4b06      	ldr	r3, [pc, #24]	; (8009670 <wdogFail+0x1c>)
 8009658:	695b      	ldr	r3, [r3, #20]
 800965a:	079b      	lsls	r3, r3, #30
 800965c:	d406      	bmi.n	800966c <wdogFail+0x18>
    {
      powerOFF1();
 800965e:	f006 fad1 	bl	800fc04 <powerOFF1>
      mdelay(200);
 8009662:	20c8      	movs	r0, #200	; 0xc8
 8009664:	f001 f914 	bl	800a890 <vTaskDelay>
      powerOFF2();
 8009668:	f006 fad0 	bl	800fc0c <powerOFF2>
 800966c:	e7fe      	b.n	800966c <wdogFail+0x18>
 800966e:	bf00      	nop
 8009670:	10001000 	.word	0x10001000

08009674 <isOn>:
  while(1);
}

int isOn(void)
{
  return (smokState == Smok_ON);
 8009674:	4b02      	ldr	r3, [pc, #8]	; (8009680 <isOn+0xc>)
 8009676:	7818      	ldrb	r0, [r3, #0]
}
 8009678:	1e83      	subs	r3, r0, #2
 800967a:	4258      	negs	r0, r3
 800967c:	4158      	adcs	r0, r3
 800967e:	4770      	bx	lr
 8009680:	2001ac40 	.word	0x2001ac40

08009684 <Check_power1>:
  if(retry <= 0)
    dprintf(LL_ERROR, "Uwy or Uwe measure failed!!!\n");
}

int Check_power1(void)
{
 8009684:	b538      	push	{r3, r4, r5, lr}
  int ok = 1;
  getVoltages();
  //Check Uve
  dprintf(LL_INFO, "Check Uwe_val %d (alarm %d) \n", Uwe_val, cfg.uwe_alarm);
 8009686:	4c16      	ldr	r4, [pc, #88]	; (80096e0 <Check_power1+0x5c>)
 8009688:	4d16      	ldr	r5, [pc, #88]	; (80096e4 <Check_power1+0x60>)
}

int Check_power1(void)
{
  int ok = 1;
  getVoltages();
 800968a:	f7ff ffa7 	bl	80095dc <getVoltages>
  //Check Uve
  dprintf(LL_INFO, "Check Uwe_val %d (alarm %d) \n", Uwe_val, cfg.uwe_alarm);
 800968e:	6d23      	ldr	r3, [r4, #80]	; 0x50
 8009690:	2b01      	cmp	r3, #1
 8009692:	dd05      	ble.n	80096a0 <Check_power1+0x1c>
 8009694:	f8d4 20b0 	ldr.w	r2, [r4, #176]	; 0xb0
 8009698:	6829      	ldr	r1, [r5, #0]
 800969a:	4813      	ldr	r0, [pc, #76]	; (80096e8 <Check_power1+0x64>)
 800969c:	f7ff f862 	bl	8008764 <xprintf>
  if(Uwe_val >= cfg.uwe_alarm)
 80096a0:	f8d4 20b0 	ldr.w	r2, [r4, #176]	; 0xb0
 80096a4:	6829      	ldr	r1, [r5, #0]
 80096a6:	4b0e      	ldr	r3, [pc, #56]	; (80096e0 <Check_power1+0x5c>)
 80096a8:	428a      	cmp	r2, r1
 80096aa:	dd01      	ble.n	80096b0 <Check_power1+0x2c>
    dprintf(LL_ERROR, "Uwy or Uwe measure failed!!!\n");
}

int Check_power1(void)
{
  int ok = 1;
 80096ac:	2001      	movs	r0, #1
 80096ae:	bd38      	pop	{r3, r4, r5, pc}
  getVoltages();
  //Check Uve
  dprintf(LL_INFO, "Check Uwe_val %d (alarm %d) \n", Uwe_val, cfg.uwe_alarm);
  if(Uwe_val >= cfg.uwe_alarm)
    {
      dprintf(LL_WARNING, "Uwe_val to high %d >= %d \n", Uwe_val, cfg.uwe_alarm);
 80096b0:	6d1a      	ldr	r2, [r3, #80]	; 0x50
 80096b2:	2a00      	cmp	r2, #0
 80096b4:	dd04      	ble.n	80096c0 <Check_power1+0x3c>
 80096b6:	f8d3 20b0 	ldr.w	r2, [r3, #176]	; 0xb0
 80096ba:	480c      	ldr	r0, [pc, #48]	; (80096ec <Check_power1+0x68>)
 80096bc:	f7ff f852 	bl	8008764 <xprintf>
      power_SHD_ERR_P(UWE_H_ERROR);
      if(!(cfg.disable_alerts&0x04))
 80096c0:	6962      	ldr	r2, [r4, #20]
 80096c2:	f012 0204 	ands.w	r2, r2, #4
 80096c6:	d1f1      	bne.n	80096ac <Check_power1+0x28>
        {
          sendStatus(Uwe_High_MsgCode, SNDROUND(Uwe_val));
 80096c8:	682b      	ldr	r3, [r5, #0]
 80096ca:	2b00      	cmp	r3, #0
 80096cc:	bfa6      	itte	ge
 80096ce:	f3c3 2107 	ubfxge	r1, r3, #8, #8
 80096d2:	b2da      	uxtbge	r2, r3
 80096d4:	4611      	movlt	r1, r2
 80096d6:	20b4      	movs	r0, #180	; 0xb4
 80096d8:	f7ff fe36 	bl	8009348 <sendStatus>
 80096dc:	2000      	movs	r0, #0
          ok = 0;
          //SmokChangeState(Smok_OFF);
        }
    }
  return ok;
}
 80096de:	bd38      	pop	{r3, r4, r5, pc}
 80096e0:	10001000 	.word	0x10001000
 80096e4:	2001ae68 	.word	0x2001ae68
 80096e8:	08014a80 	.word	0x08014a80
 80096ec:	08014a9e 	.word	0x08014a9e

080096f0 <Check_power2>:

int Check_power2(void)
{
 80096f0:	b538      	push	{r3, r4, r5, lr}
  int ok = 1;
  getVoltages();
  //Check Uvy
  dprintf(LL_INFO, "Check Uwy_val %d (alarm %d) \n", Uwy_val, cfg.uwy_alarm);
 80096f2:	4c16      	ldr	r4, [pc, #88]	; (800974c <Check_power2+0x5c>)
 80096f4:	4d16      	ldr	r5, [pc, #88]	; (8009750 <Check_power2+0x60>)
}

int Check_power2(void)
{
  int ok = 1;
  getVoltages();
 80096f6:	f7ff ff71 	bl	80095dc <getVoltages>
  //Check Uvy
  dprintf(LL_INFO, "Check Uwy_val %d (alarm %d) \n", Uwy_val, cfg.uwy_alarm);
 80096fa:	6d23      	ldr	r3, [r4, #80]	; 0x50
 80096fc:	2b01      	cmp	r3, #1
 80096fe:	dd05      	ble.n	800970c <Check_power2+0x1c>
 8009700:	f8d4 20b4 	ldr.w	r2, [r4, #180]	; 0xb4
 8009704:	6829      	ldr	r1, [r5, #0]
 8009706:	4813      	ldr	r0, [pc, #76]	; (8009754 <Check_power2+0x64>)
 8009708:	f7ff f82c 	bl	8008764 <xprintf>
  if(Uwy_val >= cfg.uwy_alarm)
 800970c:	f8d4 20b4 	ldr.w	r2, [r4, #180]	; 0xb4
 8009710:	6829      	ldr	r1, [r5, #0]
 8009712:	4b0e      	ldr	r3, [pc, #56]	; (800974c <Check_power2+0x5c>)
 8009714:	428a      	cmp	r2, r1
 8009716:	dd01      	ble.n	800971c <Check_power2+0x2c>
  return ok;
}

int Check_power2(void)
{
  int ok = 1;
 8009718:	2001      	movs	r0, #1
 800971a:	bd38      	pop	{r3, r4, r5, pc}
  getVoltages();
  //Check Uvy
  dprintf(LL_INFO, "Check Uwy_val %d (alarm %d) \n", Uwy_val, cfg.uwy_alarm);
  if(Uwy_val >= cfg.uwy_alarm)
    {
      dprintf(LL_WARNING, "Uwy_val to high %d >= %d \n", Uwy_val, cfg.uwy_alarm);
 800971c:	6d1a      	ldr	r2, [r3, #80]	; 0x50
 800971e:	2a00      	cmp	r2, #0
 8009720:	dd04      	ble.n	800972c <Check_power2+0x3c>
 8009722:	f8d3 20b4 	ldr.w	r2, [r3, #180]	; 0xb4
 8009726:	480c      	ldr	r0, [pc, #48]	; (8009758 <Check_power2+0x68>)
 8009728:	f7ff f81c 	bl	8008764 <xprintf>
      power_SHD_ERR_P(UWY_H_ERROR);
      if(!(cfg.disable_alerts&0x08))
 800972c:	6962      	ldr	r2, [r4, #20]
 800972e:	f012 0208 	ands.w	r2, r2, #8
 8009732:	d1f1      	bne.n	8009718 <Check_power2+0x28>
        {
          sendStatus(Uwy_High_MsgCode, SNDROUND(Uwy_val));
 8009734:	682b      	ldr	r3, [r5, #0]
 8009736:	2b00      	cmp	r3, #0
 8009738:	bfa6      	itte	ge
 800973a:	f3c3 2107 	ubfxge	r1, r3, #8, #8
 800973e:	b2da      	uxtbge	r2, r3
 8009740:	4611      	movlt	r1, r2
 8009742:	20b8      	movs	r0, #184	; 0xb8
 8009744:	f7ff fe00 	bl	8009348 <sendStatus>
          ok = 0;
 8009748:	2000      	movs	r0, #0
          //SmokChangeState(Smok_OFF);
        }
    }
  return ok;
}
 800974a:	bd38      	pop	{r3, r4, r5, pc}
 800974c:	10001000 	.word	0x10001000
 8009750:	2001ae48 	.word	0x2001ae48
 8009754:	08014ab9 	.word	0x08014ab9
 8009758:	08014ad7 	.word	0x08014ad7

0800975c <uitTimeout>:
        }
    }
}

void uitTimeout(portNum_t portNum)
{
 800975c:	b508      	push	{r3, lr}
  if(smokState == Smok_ON)
 800975e:	4b11      	ldr	r3, [pc, #68]	; (80097a4 <uitTimeout+0x48>)
 8009760:	781b      	ldrb	r3, [r3, #0]
 8009762:	2b02      	cmp	r3, #2
 8009764:	d11c      	bne.n	80097a0 <uitTimeout+0x44>
    {
      if(portNum == PER1_PORT)
 8009766:	2801      	cmp	r0, #1
 8009768:	d10a      	bne.n	8009780 <uitTimeout+0x24>
        {
          sendStatus(Sharc_NC_MsgCode, 0,0);
 800976a:	2200      	movs	r2, #0
 800976c:	4611      	mov	r1, r2
 800976e:	20a1      	movs	r0, #161	; 0xa1
 8009770:	f7ff fdea 	bl	8009348 <sendStatus>
          //          LEDblink(0, LED_GREEN, 1, 200, 1, 1, 200, 0);
          dprintf(LL_WARNING, "Sharc did not respond on keepalive message\n");
 8009774:	4b0c      	ldr	r3, [pc, #48]	; (80097a8 <uitTimeout+0x4c>)
 8009776:	6d1b      	ldr	r3, [r3, #80]	; 0x50
 8009778:	2b00      	cmp	r3, #0
 800977a:	dd11      	ble.n	80097a0 <uitTimeout+0x44>
 800977c:	480b      	ldr	r0, [pc, #44]	; (80097ac <uitTimeout+0x50>)
 800977e:	e00b      	b.n	8009798 <uitTimeout+0x3c>
        }
      if(portNum == PER2_PORT)
 8009780:	2802      	cmp	r0, #2
 8009782:	d10d      	bne.n	80097a0 <uitTimeout+0x44>
        {
          sendStatus(PWM_NC_MsgCode, 0,0);
 8009784:	2200      	movs	r2, #0
 8009786:	4611      	mov	r1, r2
 8009788:	20a2      	movs	r0, #162	; 0xa2
 800978a:	f7ff fddd 	bl	8009348 <sendStatus>
          //          LEDblink(0, LED_ORANGE, 1, 200, 1, 1, 200, 0);
          dprintf(LL_WARNING, "PWM did not respond on keepalive message\n");
 800978e:	4b06      	ldr	r3, [pc, #24]	; (80097a8 <uitTimeout+0x4c>)
 8009790:	6d1b      	ldr	r3, [r3, #80]	; 0x50
 8009792:	2b00      	cmp	r3, #0
 8009794:	dd04      	ble.n	80097a0 <uitTimeout+0x44>
 8009796:	4806      	ldr	r0, [pc, #24]	; (80097b0 <uitTimeout+0x54>)
        }
    }
}
 8009798:	e8bd 4008 	ldmia.w	sp!, {r3, lr}
        }
      if(portNum == PER2_PORT)
        {
          sendStatus(PWM_NC_MsgCode, 0,0);
          //          LEDblink(0, LED_ORANGE, 1, 200, 1, 1, 200, 0);
          dprintf(LL_WARNING, "PWM did not respond on keepalive message\n");
 800979c:	f7fe bfe2 	b.w	8008764 <xprintf>
 80097a0:	bd08      	pop	{r3, pc}
 80097a2:	bf00      	nop
 80097a4:	2001ac40 	.word	0x2001ac40
 80097a8:	10001000 	.word	0x10001000
 80097ac:	08014af2 	.word	0x08014af2
 80097b0:	08014b1e 	.word	0x08014b1e

080097b4 <uitOk>:
    }
}

void uitOk(portNum_t portNum)
{
  if(portNum == PER1_PORT)
 80097b4:	2801      	cmp	r0, #1
 80097b6:	d103      	bne.n	80097c0 <uitOk+0xc>
    {
      sendStatus(Sharc_C_MsgCode, 0,0);
 80097b8:	2200      	movs	r2, #0
 80097ba:	4611      	mov	r1, r2
 80097bc:	20a3      	movs	r0, #163	; 0xa3
 80097be:	e004      	b.n	80097ca <uitOk+0x16>
    }

  if(portNum == PER2_PORT)
 80097c0:	2802      	cmp	r0, #2
 80097c2:	d104      	bne.n	80097ce <uitOk+0x1a>
    {
      sendStatus(PWM_C_MsgCode, 0,0);
 80097c4:	2200      	movs	r2, #0
 80097c6:	4611      	mov	r1, r2
 80097c8:	20a4      	movs	r0, #164	; 0xa4
 80097ca:	f7ff bdbd 	b.w	8009348 <sendStatus>
 80097ce:	4770      	bx	lr

080097d0 <poweroffSeq>:

  UIT_Monitor(ADCtime);
}

void poweroffSeq(void)
{
 80097d0:	b508      	push	{r3, lr}
  //reset PLL
  pll_set(0, 1);
 80097d2:	2101      	movs	r1, #1
 80097d4:	2000      	movs	r0, #0
 80097d6:	f006 f8e1 	bl	800f99c <pll_set>

  //disable keepalivest
  kaCCEnable(0);
 80097da:	2000      	movs	r0, #0
 80097dc:	f7ff fe12 	bl	8009404 <kaCCEnable>
  //turn off RST_AMP
  powerOFF1();
 80097e0:	f006 fa10 	bl	800fc04 <powerOFF1>
  //Send off info to PWM
  sendPWMoffMsg();
 80097e4:	f7ff fd8c 	bl	8009300 <sendPWMoffMsg>
  mdelay(100);
 80097e8:	2064      	movs	r0, #100	; 0x64
 80097ea:	f001 f851 	bl	800a890 <vTaskDelay>
  //disable power_on
  powerOFF2();
 80097ee:	f006 fa0d 	bl	800fc0c <powerOFF2>
  mdelay(500);
 80097f2:	f44f 70fa 	mov.w	r0, #500	; 0x1f4
 80097f6:	f001 f84b 	bl	800a890 <vTaskDelay>

  //Disable PWM_STAT
  powerOFF3();
 80097fa:	f006 fa0d 	bl	800fc18 <powerOFF3>
  Check_power1();

}
 80097fe:	e8bd 4008 	ldmia.w	sp!, {r3, lr}
  powerOFF2();
  mdelay(500);

  //Disable PWM_STAT
  powerOFF3();
  Check_power1();
 8009802:	f7ff bf3f 	b.w	8009684 <Check_power1>
	...

08009808 <stateChangeON2OFF>:
  dprintf(LL_INFO, "NC->OFF\n");
  return 0;
}

static int stateChangeON2OFF(smokState_e oldState, smokState_e newState)
{
 8009808:	b508      	push	{r3, lr}
  dprintf(LL_INFO, "ON->OFF\n");
 800980a:	4b05      	ldr	r3, [pc, #20]	; (8009820 <stateChangeON2OFF+0x18>)
 800980c:	6d1b      	ldr	r3, [r3, #80]	; 0x50
 800980e:	2b01      	cmp	r3, #1
 8009810:	dd02      	ble.n	8009818 <stateChangeON2OFF+0x10>
 8009812:	4804      	ldr	r0, [pc, #16]	; (8009824 <stateChangeON2OFF+0x1c>)
 8009814:	f7fe ffa6 	bl	8008764 <xprintf>
  poweroffSeq();
 8009818:	f7ff ffda 	bl	80097d0 <poweroffSeq>
  return 0;
}
 800981c:	2000      	movs	r0, #0
 800981e:	bd08      	pop	{r3, pc}
 8009820:	10001000 	.word	0x10001000
 8009824:	08014b48 	.word	0x08014b48

08009828 <stateChangeON2NC>:
  dprintf(LL_INFO, "OFF->NC\n");
  return 0;
}

static int stateChangeON2NC(smokState_e oldState, smokState_e newState)
{
 8009828:	b508      	push	{r3, lr}
  dprintf(LL_INFO, "ON->NC\n");
 800982a:	4b05      	ldr	r3, [pc, #20]	; (8009840 <stateChangeON2NC+0x18>)
 800982c:	6d1b      	ldr	r3, [r3, #80]	; 0x50
 800982e:	2b01      	cmp	r3, #1
 8009830:	dd02      	ble.n	8009838 <stateChangeON2NC+0x10>
 8009832:	4804      	ldr	r0, [pc, #16]	; (8009844 <stateChangeON2NC+0x1c>)
 8009834:	f7fe ff96 	bl	8008764 <xprintf>
  poweroffSeq();
 8009838:	f7ff ffca 	bl	80097d0 <poweroffSeq>
  return 0;
}
 800983c:	2000      	movs	r0, #0
 800983e:	bd08      	pop	{r3, pc}
 8009840:	10001000 	.word	0x10001000
 8009844:	08014b51 	.word	0x08014b51

08009848 <SmokChangeState>:
    [Smok_ON]  = stateChangeAlreadyThere,
  },
};

int SmokChangeState(smokState_e newState, const char *reason)
{
 8009848:	b5f8      	push	{r3, r4, r5, r6, r7, lr}
  int ret = 0;

  //Call a proper action for the state change
  ret = changeStateMatrix[smokState][newState](smokState, newState);
 800984a:	4c0d      	ldr	r4, [pc, #52]	; (8009880 <SmokChangeState+0x38>)
 800984c:	4a0d      	ldr	r2, [pc, #52]	; (8009884 <SmokChangeState+0x3c>)
    [Smok_ON]  = stateChangeAlreadyThere,
  },
};

int SmokChangeState(smokState_e newState, const char *reason)
{
 800984e:	4605      	mov	r5, r0
  int ret = 0;

  //Call a proper action for the state change
  ret = changeStateMatrix[smokState][newState](smokState, newState);
 8009850:	7820      	ldrb	r0, [r4, #0]
 8009852:	eb00 0340 	add.w	r3, r0, r0, lsl #1
 8009856:	442b      	add	r3, r5
    [Smok_ON]  = stateChangeAlreadyThere,
  },
};

int SmokChangeState(smokState_e newState, const char *reason)
{
 8009858:	460f      	mov	r7, r1
  int ret = 0;

  //Call a proper action for the state change
  ret = changeStateMatrix[smokState][newState](smokState, newState);
 800985a:	f852 3023 	ldr.w	r3, [r2, r3, lsl #2]
 800985e:	4629      	mov	r1, r5
 8009860:	4798      	blx	r3

  //Set new state
  if(ret >= 0)
 8009862:	1e06      	subs	r6, r0, #0
 8009864:	db0a      	blt.n	800987c <SmokChangeState+0x34>
    {
      smokState = newState;
      UIT_MsgRound = 0;
 8009866:	2300      	movs	r3, #0
 8009868:	6063      	str	r3, [r4, #4]
      dprintf(LL_INFO, "power state change reason: %s\n", reason);
 800986a:	4b07      	ldr	r3, [pc, #28]	; (8009888 <SmokChangeState+0x40>)
  ret = changeStateMatrix[smokState][newState](smokState, newState);

  //Set new state
  if(ret >= 0)
    {
      smokState = newState;
 800986c:	7025      	strb	r5, [r4, #0]
      UIT_MsgRound = 0;
      dprintf(LL_INFO, "power state change reason: %s\n", reason);
 800986e:	6d1b      	ldr	r3, [r3, #80]	; 0x50
 8009870:	2b01      	cmp	r3, #1
 8009872:	dd03      	ble.n	800987c <SmokChangeState+0x34>
 8009874:	4639      	mov	r1, r7
 8009876:	4805      	ldr	r0, [pc, #20]	; (800988c <SmokChangeState+0x44>)
 8009878:	f7fe ff74 	bl	8008764 <xprintf>
    }

  return ret;
}
 800987c:	4630      	mov	r0, r6
 800987e:	bdf8      	pop	{r3, r4, r5, r6, r7, pc}
 8009880:	2001ac40 	.word	0x2001ac40
 8009884:	080149ec 	.word	0x080149ec
 8009888:	10001000 	.word	0x10001000
 800988c:	08014b59 	.word	0x08014b59

08009890 <SmokLEDsState>:


void SmokLEDsState(int on, int conn, smokErrType_t err, int hd)
{
 8009890:	b410      	push	{r4}
 8009892:	4614      	mov	r4, r2
  int ledsMaskOn = 0;
  int ledsMaskOff = 0;
#define SET_DIODE(arg_diode) {ledsMaskOff &= ~(arg_diode);ledsMaskOn  |= (arg_diode);}
#define CLR_DIODE(arg_diode) {ledsMaskOn  &= ~(arg_diode);ledsMaskOff |= (arg_diode);}

  if(conn == 0)
 8009894:	b129      	cbz	r1, 80098a2 <SmokLEDsState+0x12>
    {
      CLR_DIODE(LED_WHITE);
    }

  if(conn == 1)
 8009896:	2901      	cmp	r1, #1
    {
      SET_DIODE(LED_WHITE);
 8009898:	f04f 0200 	mov.w	r2, #0
  if(conn == 0)
    {
      CLR_DIODE(LED_WHITE);
    }

  if(conn == 1)
 800989c:	d103      	bne.n	80098a6 <SmokLEDsState+0x16>
    {
      SET_DIODE(LED_WHITE);
 800989e:	2103      	movs	r1, #3
 80098a0:	e002      	b.n	80098a8 <SmokLEDsState+0x18>
#define SET_DIODE(arg_diode) {ledsMaskOff &= ~(arg_diode);ledsMaskOn  |= (arg_diode);}
#define CLR_DIODE(arg_diode) {ledsMaskOn  &= ~(arg_diode);ledsMaskOff |= (arg_diode);}

  if(conn == 0)
    {
      CLR_DIODE(LED_WHITE);
 80098a2:	2203      	movs	r2, #3
 80098a4:	e000      	b.n	80098a8 <SmokLEDsState+0x18>
 80098a6:	4611      	mov	r1, r2
    {
      SET_DIODE(LED_WHITE);
    }

  //Turn on
  if(on == 1)
 80098a8:	2801      	cmp	r0, #1
 80098aa:	d10a      	bne.n	80098c2 <SmokLEDsState+0x32>
    {
      CLR_DIODE(LED_RED | LED_YELLOW);
      if(hd == 1)
 80098ac:	2b01      	cmp	r3, #1
    }

  //Turn on
  if(on == 1)
    {
      CLR_DIODE(LED_RED | LED_YELLOW);
 80098ae:	f042 0014 	orr.w	r0, r2, #20
      if(hd == 1)
 80098b2:	d102      	bne.n	80098ba <SmokLEDsState+0x2a>
        SET_DIODE(LED_BLUE);
 80098b4:	f041 0108 	orr.w	r1, r1, #8
 80098b8:	e01e      	b.n	80098f8 <SmokLEDsState+0x68>
      if(hd == 0)
 80098ba:	b9eb      	cbnz	r3, 80098f8 <SmokLEDsState+0x68>
        CLR_DIODE(LED_BLUE);
 80098bc:	f042 001c 	orr.w	r0, r2, #28
 80098c0:	e01a      	b.n	80098f8 <SmokLEDsState+0x68>
    }

  //Turn off
  if(on == 0)
 80098c2:	b9a8      	cbnz	r0, 80098f0 <SmokLEDsState+0x60>
    {
      SET_DIODE(LED_YELLOW);
      switch(err)
 80098c4:	2c03      	cmp	r4, #3
 80098c6:	d806      	bhi.n	80098d6 <SmokLEDsState+0x46>
 80098c8:	e8df f004 	tbb	[pc, r4]
 80098cc:	100b0208 	.word	0x100b0208
        case SET_NONE:
          CLR_DIODE(LED_BLUE);
          break;
        case SET_CONN:
          SET_DIODE(LED_RED);
          CLR_DIODE(LED_WHITE | LED_BLUE);
 80098d0:	220b      	movs	r2, #11
 80098d2:	2114      	movs	r1, #20
 80098d4:	e00c      	b.n	80098f0 <SmokLEDsState+0x60>
    }

  //Turn off
  if(on == 0)
    {
      SET_DIODE(LED_YELLOW);
 80098d6:	f041 0104 	orr.w	r1, r1, #4
 80098da:	e009      	b.n	80098f0 <SmokLEDsState+0x60>
      switch(err)
        {
        case SET_NONE:
          CLR_DIODE(LED_BLUE);
 80098dc:	f041 0104 	orr.w	r1, r1, #4
 80098e0:	e001      	b.n	80098e6 <SmokLEDsState+0x56>
          SET_DIODE(LED_RED);
          CLR_DIODE(LED_WHITE | LED_BLUE);
          break;
        case SET_TEMP:
          SET_DIODE(LED_RED);
          CLR_DIODE(LED_BLUE);
 80098e2:	f041 0114 	orr.w	r1, r1, #20
 80098e6:	f042 0208 	orr.w	r2, r2, #8
          break;
 80098ea:	e001      	b.n	80098f0 <SmokLEDsState+0x60>
        case SET_OTHER:
          SET_DIODE(LED_RED | LED_BLUE | LED_WHITE);
 80098ec:	2200      	movs	r2, #0
 80098ee:	211f      	movs	r1, #31
          break;
        }
    }

  LEDset(0, ledsMaskOn, ledsMaskOff);
 80098f0:	2000      	movs	r0, #0
}
 80098f2:	bc10      	pop	{r4}
          SET_DIODE(LED_RED | LED_BLUE | LED_WHITE);
          break;
        }
    }

  LEDset(0, ledsMaskOn, ledsMaskOff);
 80098f4:	f003 bab6 	b.w	800ce64 <LEDset>
        case SET_TEMP:
          SET_DIODE(LED_RED);
          CLR_DIODE(LED_BLUE);
          break;
        case SET_OTHER:
          SET_DIODE(LED_RED | LED_BLUE | LED_WHITE);
 80098f8:	4602      	mov	r2, r0
 80098fa:	e7f9      	b.n	80098f0 <SmokLEDsState+0x60>

080098fc <Check_power4>:
    }
  return ok;
}

int Check_power4(void)
{
 80098fc:	b570      	push	{r4, r5, r6, lr}
  int ok = 1;
  getVoltages();

  dprintf(LL_INFO, "Check Uwy=10%WUwe Uwy = %dmV Uwe = %dmV\n", Uwy_val, Uwe_val);
 80098fe:	4c1f      	ldr	r4, [pc, #124]	; (800997c <Check_power4+0x80>)
 8009900:	4e1f      	ldr	r6, [pc, #124]	; (8009980 <Check_power4+0x84>)
 8009902:	4d20      	ldr	r5, [pc, #128]	; (8009984 <Check_power4+0x88>)
}

int Check_power4(void)
{
  int ok = 1;
  getVoltages();
 8009904:	f7ff fe6a 	bl	80095dc <getVoltages>

  dprintf(LL_INFO, "Check Uwy=10%WUwe Uwy = %dmV Uwe = %dmV\n", Uwy_val, Uwe_val);
 8009908:	6d23      	ldr	r3, [r4, #80]	; 0x50
 800990a:	2b01      	cmp	r3, #1
 800990c:	dd04      	ble.n	8009918 <Check_power4+0x1c>
 800990e:	6832      	ldr	r2, [r6, #0]
 8009910:	6829      	ldr	r1, [r5, #0]
 8009912:	481d      	ldr	r0, [pc, #116]	; (8009988 <Check_power4+0x8c>)
 8009914:	f7fe ff26 	bl	8008764 <xprintf>

  //Check Uve/Uwy
  if(Uwy_val < ((Uwe_val*7)/100) || Uwy_val > ((Uwe_val*13)/100))
 8009918:	6832      	ldr	r2, [r6, #0]
 800991a:	6829      	ldr	r1, [r5, #0]
 800991c:	ebc2 00c2 	rsb	r0, r2, r2, lsl #3
 8009920:	2664      	movs	r6, #100	; 0x64
 8009922:	fb90 f0f6 	sdiv	r0, r0, r6
 8009926:	4288      	cmp	r0, r1
 8009928:	dc07      	bgt.n	800993a <Check_power4+0x3e>
 800992a:	230d      	movs	r3, #13
 800992c:	4353      	muls	r3, r2
 800992e:	fb93 f3f6 	sdiv	r3, r3, r6
 8009932:	4299      	cmp	r1, r3
 8009934:	dc01      	bgt.n	800993a <Check_power4+0x3e>
  return ok;
}

int Check_power4(void)
{
  int ok = 1;
 8009936:	2001      	movs	r0, #1
 8009938:	bd70      	pop	{r4, r5, r6, pc}
  dprintf(LL_INFO, "Check Uwy=10%WUwe Uwy = %dmV Uwe = %dmV\n", Uwy_val, Uwe_val);

  //Check Uve/Uwy
  if(Uwy_val < ((Uwe_val*7)/100) || Uwy_val > ((Uwe_val*13)/100))
    {
      dprintf(LL_WARNING, "Uwy_val(%dmV) outside of allowed range compared to Uwe(%dmV)  0.07*Uwe<Uwy<0.13*Uwe \n", Uwy_val, Uwe_val);
 800993a:	6d23      	ldr	r3, [r4, #80]	; 0x50
 800993c:	2b00      	cmp	r3, #0
 800993e:	dd02      	ble.n	8009946 <Check_power4+0x4a>
 8009940:	4812      	ldr	r0, [pc, #72]	; (800998c <Check_power4+0x90>)
 8009942:	f7fe ff0f 	bl	8008764 <xprintf>
      if(!(cfg.disable_alerts&0x01))
 8009946:	6961      	ldr	r1, [r4, #20]
 8009948:	f011 0101 	ands.w	r1, r1, #1
 800994c:	d1f3      	bne.n	8009936 <Check_power4+0x3a>
        {
          sendStatus(0xB5, SNDROUND(Uwy_val));
 800994e:	682a      	ldr	r2, [r5, #0]
 8009950:	2a00      	cmp	r2, #0
 8009952:	bfaa      	itet	ge
 8009954:	f3c2 2107 	ubfxge	r1, r2, #8, #8
 8009958:	460a      	movlt	r2, r1
 800995a:	b2d2      	uxtbge	r2, r2
 800995c:	20b5      	movs	r0, #181	; 0xb5
 800995e:	f7ff fcf3 	bl	8009348 <sendStatus>
          ok = 0;
          SmokChangeState(Smok_OFF, "Uwy vs Uwe failed");
 8009962:	490b      	ldr	r1, [pc, #44]	; (8009990 <Check_power4+0x94>)
 8009964:	2001      	movs	r0, #1
 8009966:	f7ff ff6f 	bl	8009848 <SmokChangeState>
          SmokLEDsState(0, -1, SET_OTHER, -1);
 800996a:	f04f 33ff 	mov.w	r3, #4294967295
 800996e:	2203      	movs	r2, #3
 8009970:	4619      	mov	r1, r3
 8009972:	2000      	movs	r0, #0
 8009974:	f7ff ff8c 	bl	8009890 <SmokLEDsState>
    {
      dprintf(LL_WARNING, "Uwy_val(%dmV) outside of allowed range compared to Uwe(%dmV)  0.07*Uwe<Uwy<0.13*Uwe \n", Uwy_val, Uwe_val);
      if(!(cfg.disable_alerts&0x01))
        {
          sendStatus(0xB5, SNDROUND(Uwy_val));
          ok = 0;
 8009978:	2000      	movs	r0, #0
          SmokChangeState(Smok_OFF, "Uwy vs Uwe failed");
          SmokLEDsState(0, -1, SET_OTHER, -1);
        }
    }
  return ok;
}
 800997a:	bd70      	pop	{r4, r5, r6, pc}
 800997c:	10001000 	.word	0x10001000
 8009980:	2001ae68 	.word	0x2001ae68
 8009984:	2001ae48 	.word	0x2001ae48
 8009988:	08014ba2 	.word	0x08014ba2
 800998c:	08014bcb 	.word	0x08014bcb
 8009990:	08014c21 	.word	0x08014c21

08009994 <communicatorADCMeasure>:

static int ADCtime = 0;
void communicatorADCMeasure(int samplesNum, int sampleSensADC,
                            int V1accu, int V2accu,
                            int I1max, int V2I1max, int I1accu, int I2accu)
{
 8009994:	e92d 43f0 	stmdb	sp!, {r4, r5, r6, r7, r8, r9, lr}
  //Function is called every ADC_WINDOW [ms]
  ADCtime += ADC_WINDOW;
 8009998:	4d37      	ldr	r5, [pc, #220]	; (8009a78 <communicatorADCMeasure+0xe4>)
static int nextTempMeasure = 0;
static void UIT_Monitor(int adcTime)
{

  int diff = nextTempMeasure - adcTime;
  if(diff < 0 || diff > 100000)
 800999a:	4a38      	ldr	r2, [pc, #224]	; (8009a7c <communicatorADCMeasure+0xe8>)
void communicatorADCMeasure(int samplesNum, int sampleSensADC,
                            int V1accu, int V2accu,
                            int I1max, int V2I1max, int I1accu, int I2accu)
{
  //Function is called every ADC_WINDOW [ms]
  ADCtime += ADC_WINDOW;
 800999c:	68ae      	ldr	r6, [r5, #8]
static int nextTempMeasure = 0;
static void UIT_Monitor(int adcTime)
{

  int diff = nextTempMeasure - adcTime;
  if(diff < 0 || diff > 100000)
 800999e:	68eb      	ldr	r3, [r5, #12]
 80099a0:	4c37      	ldr	r4, [pc, #220]	; (8009a80 <communicatorADCMeasure+0xec>)
void communicatorADCMeasure(int samplesNum, int sampleSensADC,
                            int V1accu, int V2accu,
                            int I1max, int V2I1max, int I1accu, int I2accu)
{
  //Function is called every ADC_WINDOW [ms]
  ADCtime += ADC_WINDOW;
 80099a2:	360a      	adds	r6, #10
static int nextTempMeasure = 0;
static void UIT_Monitor(int adcTime)
{

  int diff = nextTempMeasure - adcTime;
  if(diff < 0 || diff > 100000)
 80099a4:	1b9b      	subs	r3, r3, r6
 80099a6:	4293      	cmp	r3, r2

static int ADCtime = 0;
void communicatorADCMeasure(int samplesNum, int sampleSensADC,
                            int V1accu, int V2accu,
                            int I1max, int V2I1max, int I1accu, int I2accu)
{
 80099a8:	b085      	sub	sp, #20
  //Function is called every ADC_WINDOW [ms]
  ADCtime += ADC_WINDOW;
 80099aa:	60ae      	str	r6, [r5, #8]
static int nextTempMeasure = 0;
static void UIT_Monitor(int adcTime)
{

  int diff = nextTempMeasure - adcTime;
  if(diff < 0 || diff > 100000)
 80099ac:	d936      	bls.n	8009a1c <communicatorADCMeasure+0x88>
    {
      nextTempMeasure = adcTime + cfg.temp_time;
 80099ae:	f8d4 30a8 	ldr.w	r3, [r4, #168]	; 0xa8
 80099b2:	4433      	add	r3, r6
 80099b4:	60eb      	str	r3, [r5, #12]
      uint8_t buffer[2] = {0};
 80099b6:	2300      	movs	r3, #0
 80099b8:	f8ad 300c 	strh.w	r3, [sp, #12]
      if(cfg.term1Addr >= 0 && i2cTransfer(I2C1, cfg.term1Addr, buffer, 1, buffer, 2)>=2)
 80099bc:	6de3      	ldr	r3, [r4, #92]	; 0x5c
 80099be:	2b00      	cmp	r3, #0
 80099c0:	db11      	blt.n	80099e6 <communicatorADCMeasure+0x52>
 80099c2:	6de1      	ldr	r1, [r4, #92]	; 0x5c
 80099c4:	482f      	ldr	r0, [pc, #188]	; (8009a84 <communicatorADCMeasure+0xf0>)
 80099c6:	aa03      	add	r2, sp, #12
 80099c8:	2302      	movs	r3, #2
 80099ca:	e88d 000c 	stmia.w	sp, {r2, r3}
 80099ce:	b2c9      	uxtb	r1, r1
 80099d0:	2301      	movs	r3, #1
 80099d2:	f005 fbfd 	bl	800f1d0 <i2cTransfer>
 80099d6:	2801      	cmp	r0, #1
 80099d8:	dd05      	ble.n	80099e6 <communicatorADCMeasure+0x52>
        temp1 = ((int)(buffer[0])<<8) | buffer[1];
 80099da:	f8bd 300c 	ldrh.w	r3, [sp, #12]
 80099de:	4a2a      	ldr	r2, [pc, #168]	; (8009a88 <communicatorADCMeasure+0xf4>)
 80099e0:	ba5b      	rev16	r3, r3
 80099e2:	b29b      	uxth	r3, r3
 80099e4:	6013      	str	r3, [r2, #0]
      buffer[0] = 0;
 80099e6:	2300      	movs	r3, #0
 80099e8:	f88d 300c 	strb.w	r3, [sp, #12]
      buffer[1] = 0;
 80099ec:	f88d 300d 	strb.w	r3, [sp, #13]
      if(cfg.term2Addr >= 0 && i2cTransfer(I2C1, cfg.term2Addr, buffer, 1, buffer, 2)>=2)
 80099f0:	6e23      	ldr	r3, [r4, #96]	; 0x60
 80099f2:	2b00      	cmp	r3, #0
 80099f4:	db12      	blt.n	8009a1c <communicatorADCMeasure+0x88>
 80099f6:	4b22      	ldr	r3, [pc, #136]	; (8009a80 <communicatorADCMeasure+0xec>)
 80099f8:	4822      	ldr	r0, [pc, #136]	; (8009a84 <communicatorADCMeasure+0xf0>)
 80099fa:	6e19      	ldr	r1, [r3, #96]	; 0x60
 80099fc:	aa03      	add	r2, sp, #12
 80099fe:	2302      	movs	r3, #2
 8009a00:	e88d 000c 	stmia.w	sp, {r2, r3}
 8009a04:	b2c9      	uxtb	r1, r1
 8009a06:	2301      	movs	r3, #1
 8009a08:	f005 fbe2 	bl	800f1d0 <i2cTransfer>
 8009a0c:	2801      	cmp	r0, #1
 8009a0e:	dd05      	ble.n	8009a1c <communicatorADCMeasure+0x88>
        temp2 = ((int)(buffer[0])<<8) | buffer[1];
 8009a10:	f8bd 300c 	ldrh.w	r3, [sp, #12]
 8009a14:	4a1d      	ldr	r2, [pc, #116]	; (8009a8c <communicatorADCMeasure+0xf8>)
 8009a16:	ba5b      	rev16	r3, r3
 8009a18:	b29b      	uxth	r3, r3
 8009a1a:	6013      	str	r3, [r2, #0]
}

static uint32_t nextPossibleSend = 0;
static void Check_UIT_Alarms(void)
{
  if(nextPossibleSend > xTaskGetTickCount())
 8009a1c:	f000 fe42 	bl	800a6a4 <xTaskGetTickCount>
 8009a20:	692b      	ldr	r3, [r5, #16]
 8009a22:	4298      	cmp	r0, r3
 8009a24:	f0c0 81c5 	bcc.w	8009db2 <communicatorADCMeasure+0x41e>
    return;

  if(smokState == Smok_ON)
 8009a28:	4b13      	ldr	r3, [pc, #76]	; (8009a78 <communicatorADCMeasure+0xe4>)
 8009a2a:	781b      	ldrb	r3, [r3, #0]
 8009a2c:	2b02      	cmp	r3, #2
 8009a2e:	f040 81c0 	bne.w	8009db2 <communicatorADCMeasure+0x41e>
    {
      int sent = 0;;
      int pwm = pwmStatus();
 8009a32:	f007 f8c9 	bl	8010bc8 <pwmStatus>
      if(!(pwm&(1<<0)))
 8009a36:	f010 0f01 	tst.w	r0, #1
    return;

  if(smokState == Smok_ON)
    {
      int sent = 0;;
      int pwm = pwmStatus();
 8009a3a:	4680      	mov	r8, r0
      if(!(pwm&(1<<0)))
 8009a3c:	d11a      	bne.n	8009a74 <communicatorADCMeasure+0xe0>
        {
          dprintf(LL_WARNING, "PWM_STAT error \n");
 8009a3e:	6d23      	ldr	r3, [r4, #80]	; 0x50
 8009a40:	2b00      	cmp	r3, #0
 8009a42:	dd02      	ble.n	8009a4a <communicatorADCMeasure+0xb6>
 8009a44:	4812      	ldr	r0, [pc, #72]	; (8009a90 <communicatorADCMeasure+0xfc>)
 8009a46:	f7fe fe8d 	bl	8008764 <xprintf>
          if(!(cfg.disable_alerts&0x10))
 8009a4a:	6967      	ldr	r7, [r4, #20]
 8009a4c:	f017 0710 	ands.w	r7, r7, #16
 8009a50:	d122      	bne.n	8009a98 <communicatorADCMeasure+0x104>
            {
              sendStatus(0xB9, 0, 0);
 8009a52:	463a      	mov	r2, r7
 8009a54:	4639      	mov	r1, r7
 8009a56:	20b9      	movs	r0, #185	; 0xb9
 8009a58:	f7ff fc76 	bl	8009348 <sendStatus>
              SmokChangeState(Smok_OFF, "PWM_STAT error - alert");
 8009a5c:	490d      	ldr	r1, [pc, #52]	; (8009a94 <communicatorADCMeasure+0x100>)
 8009a5e:	2001      	movs	r0, #1
 8009a60:	f7ff fef2 	bl	8009848 <SmokChangeState>
              SmokLEDsState(0, -1, SET_OTHER, -1);
 8009a64:	f04f 33ff 	mov.w	r3, #4294967295
 8009a68:	2203      	movs	r2, #3
 8009a6a:	4619      	mov	r1, r3
 8009a6c:	4638      	mov	r0, r7
 8009a6e:	f7ff ff0f 	bl	8009890 <SmokLEDsState>
 8009a72:	e011      	b.n	8009a98 <communicatorADCMeasure+0x104>
  if(nextPossibleSend > xTaskGetTickCount())
    return;

  if(smokState == Smok_ON)
    {
      int sent = 0;;
 8009a74:	2300      	movs	r3, #0
 8009a76:	e010      	b.n	8009a9a <communicatorADCMeasure+0x106>
 8009a78:	2001ac40 	.word	0x2001ac40
 8009a7c:	000186a0 	.word	0x000186a0
 8009a80:	10001000 	.word	0x10001000
 8009a84:	40005400 	.word	0x40005400
 8009a88:	2001add0 	.word	0x2001add0
 8009a8c:	2001adcc 	.word	0x2001adcc
 8009a90:	08014b78 	.word	0x08014b78
 8009a94:	08014c33 	.word	0x08014c33
            {
              sendStatus(0xB9, 0, 0);
              SmokChangeState(Smok_OFF, "PWM_STAT error - alert");
              SmokLEDsState(0, -1, SET_OTHER, -1);
            }
          sent = 1;
 8009a98:	2301      	movs	r3, #1
        }
      if(!(pwm&(1<<1)))
 8009a9a:	f018 0f02 	tst.w	r8, #2
 8009a9e:	d11a      	bne.n	8009ad6 <communicatorADCMeasure+0x142>
        {
          dprintf(LL_WARNING, "PWM PB3 error \n");
 8009aa0:	6d23      	ldr	r3, [r4, #80]	; 0x50
 8009aa2:	2b00      	cmp	r3, #0
 8009aa4:	dd02      	ble.n	8009aac <communicatorADCMeasure+0x118>
 8009aa6:	48ab      	ldr	r0, [pc, #684]	; (8009d54 <communicatorADCMeasure+0x3c0>)
 8009aa8:	f7fe fe5c 	bl	8008764 <xprintf>
          if(!(cfg.disable_alerts&0x20))
 8009aac:	6967      	ldr	r7, [r4, #20]
 8009aae:	f017 0720 	ands.w	r7, r7, #32
 8009ab2:	d10f      	bne.n	8009ad4 <communicatorADCMeasure+0x140>
            {
              sendStatus(0xBA, 0xA, 0);
 8009ab4:	463a      	mov	r2, r7
 8009ab6:	210a      	movs	r1, #10
 8009ab8:	20ba      	movs	r0, #186	; 0xba
 8009aba:	f7ff fc45 	bl	8009348 <sendStatus>
              SmokChangeState(Smok_OFF, "PWM PB3 error");
 8009abe:	49a6      	ldr	r1, [pc, #664]	; (8009d58 <communicatorADCMeasure+0x3c4>)
 8009ac0:	2001      	movs	r0, #1
 8009ac2:	f7ff fec1 	bl	8009848 <SmokChangeState>
              SmokLEDsState(0, -1, SET_OTHER, -1);
 8009ac6:	f04f 33ff 	mov.w	r3, #4294967295
 8009aca:	2203      	movs	r2, #3
 8009acc:	4619      	mov	r1, r3
 8009ace:	4638      	mov	r0, r7
 8009ad0:	f7ff fede 	bl	8009890 <SmokLEDsState>
            }

          sent = 1;
 8009ad4:	2301      	movs	r3, #1
        }
      if(!(pwm&(1<<2)))
 8009ad6:	f018 0f04 	tst.w	r8, #4
 8009ada:	d11a      	bne.n	8009b12 <communicatorADCMeasure+0x17e>
        {
          dprintf(LL_WARNING, "PWM PB4 error \n");
 8009adc:	6d23      	ldr	r3, [r4, #80]	; 0x50
 8009ade:	2b00      	cmp	r3, #0
 8009ae0:	dd02      	ble.n	8009ae8 <communicatorADCMeasure+0x154>
 8009ae2:	489e      	ldr	r0, [pc, #632]	; (8009d5c <communicatorADCMeasure+0x3c8>)
 8009ae4:	f7fe fe3e 	bl	8008764 <xprintf>
          if(!(cfg.disable_alerts&0x40))
 8009ae8:	6967      	ldr	r7, [r4, #20]
 8009aea:	f017 0740 	ands.w	r7, r7, #64	; 0x40
 8009aee:	d10f      	bne.n	8009b10 <communicatorADCMeasure+0x17c>
            {
              sendStatus(0xBA, 0xB, 0);
 8009af0:	463a      	mov	r2, r7
 8009af2:	210b      	movs	r1, #11
 8009af4:	20ba      	movs	r0, #186	; 0xba
 8009af6:	f7ff fc27 	bl	8009348 <sendStatus>
              SmokChangeState(Smok_OFF, "PWM PB4 error");
 8009afa:	4999      	ldr	r1, [pc, #612]	; (8009d60 <communicatorADCMeasure+0x3cc>)
 8009afc:	2001      	movs	r0, #1
 8009afe:	f7ff fea3 	bl	8009848 <SmokChangeState>
              SmokLEDsState(0, -1, SET_OTHER, -1);
 8009b02:	f04f 33ff 	mov.w	r3, #4294967295
 8009b06:	2203      	movs	r2, #3
 8009b08:	4619      	mov	r1, r3
 8009b0a:	4638      	mov	r0, r7
 8009b0c:	f7ff fec0 	bl	8009890 <SmokLEDsState>
            }
          sent = 1;
 8009b10:	2301      	movs	r3, #1
        }
      if(!(pwm&(1<<3)))
 8009b12:	f018 0f08 	tst.w	r8, #8
 8009b16:	d11a      	bne.n	8009b4e <communicatorADCMeasure+0x1ba>
        {
          dprintf(LL_WARNING, "PWM PC14 error \n");
 8009b18:	6d23      	ldr	r3, [r4, #80]	; 0x50
 8009b1a:	2b00      	cmp	r3, #0
 8009b1c:	dd02      	ble.n	8009b24 <communicatorADCMeasure+0x190>
 8009b1e:	4891      	ldr	r0, [pc, #580]	; (8009d64 <communicatorADCMeasure+0x3d0>)
 8009b20:	f7fe fe20 	bl	8008764 <xprintf>
          if(!(cfg.disable_alerts&0x80))
 8009b24:	6967      	ldr	r7, [r4, #20]
 8009b26:	f017 0780 	ands.w	r7, r7, #128	; 0x80
 8009b2a:	d10f      	bne.n	8009b4c <communicatorADCMeasure+0x1b8>
            {
              sendStatus(0xBB, 0xA, 0);
 8009b2c:	463a      	mov	r2, r7
 8009b2e:	210a      	movs	r1, #10
 8009b30:	20bb      	movs	r0, #187	; 0xbb
 8009b32:	f7ff fc09 	bl	8009348 <sendStatus>
              SmokChangeState(Smok_OFF, "PWM PC14 error");
 8009b36:	498c      	ldr	r1, [pc, #560]	; (8009d68 <communicatorADCMeasure+0x3d4>)
 8009b38:	2001      	movs	r0, #1
 8009b3a:	f7ff fe85 	bl	8009848 <SmokChangeState>
              SmokLEDsState(0, -1, SET_OTHER, -1);
 8009b3e:	f04f 33ff 	mov.w	r3, #4294967295
 8009b42:	2203      	movs	r2, #3
 8009b44:	4619      	mov	r1, r3
 8009b46:	4638      	mov	r0, r7
 8009b48:	f7ff fea2 	bl	8009890 <SmokLEDsState>
            }
          sent = 1;
 8009b4c:	2301      	movs	r3, #1
        }
      if(!(pwm&(1<<4)))
 8009b4e:	f018 0f10 	tst.w	r8, #16
 8009b52:	d11a      	bne.n	8009b8a <communicatorADCMeasure+0x1f6>
        {
          dprintf(LL_WARNING, "PWM PC15 error \n");
 8009b54:	6d23      	ldr	r3, [r4, #80]	; 0x50
 8009b56:	2b00      	cmp	r3, #0
 8009b58:	dd02      	ble.n	8009b60 <communicatorADCMeasure+0x1cc>
 8009b5a:	4884      	ldr	r0, [pc, #528]	; (8009d6c <communicatorADCMeasure+0x3d8>)
 8009b5c:	f7fe fe02 	bl	8008764 <xprintf>
          if(!(cfg.disable_alerts&0x100))
 8009b60:	6967      	ldr	r7, [r4, #20]
 8009b62:	f417 7780 	ands.w	r7, r7, #256	; 0x100
 8009b66:	d10f      	bne.n	8009b88 <communicatorADCMeasure+0x1f4>
            {
              sendStatus(0xBB, 0xB, 0);
 8009b68:	463a      	mov	r2, r7
 8009b6a:	210b      	movs	r1, #11
 8009b6c:	20bb      	movs	r0, #187	; 0xbb
 8009b6e:	f7ff fbeb 	bl	8009348 <sendStatus>
              SmokChangeState(Smok_OFF, "PWM PC15 error");
 8009b72:	497f      	ldr	r1, [pc, #508]	; (8009d70 <communicatorADCMeasure+0x3dc>)
 8009b74:	2001      	movs	r0, #1
 8009b76:	f7ff fe67 	bl	8009848 <SmokChangeState>
              SmokLEDsState(0, -1, SET_OTHER, -1);
 8009b7a:	f04f 33ff 	mov.w	r3, #4294967295
 8009b7e:	2203      	movs	r2, #3
 8009b80:	4619      	mov	r1, r3
 8009b82:	4638      	mov	r0, r7
 8009b84:	f7ff fe84 	bl	8009890 <SmokLEDsState>
            }
          sent = 1;
 8009b88:	2301      	movs	r3, #1
        }
      if(!(pwm&(1<<5)))
 8009b8a:	f018 0f20 	tst.w	r8, #32
 8009b8e:	d11a      	bne.n	8009bc6 <communicatorADCMeasure+0x232>
        {
          dprintf(LL_WARNING, "PWM PE13 error \n");
 8009b90:	6d23      	ldr	r3, [r4, #80]	; 0x50
 8009b92:	2b00      	cmp	r3, #0
 8009b94:	dd02      	ble.n	8009b9c <communicatorADCMeasure+0x208>
 8009b96:	4877      	ldr	r0, [pc, #476]	; (8009d74 <communicatorADCMeasure+0x3e0>)
 8009b98:	f7fe fde4 	bl	8008764 <xprintf>
          if(!(cfg.disable_alerts&0x2000))
 8009b9c:	6967      	ldr	r7, [r4, #20]
 8009b9e:	f417 5700 	ands.w	r7, r7, #8192	; 0x2000
 8009ba2:	d10f      	bne.n	8009bc4 <communicatorADCMeasure+0x230>
            {
              sendStatus(0xBB, 0xC, 0);
 8009ba4:	463a      	mov	r2, r7
 8009ba6:	210c      	movs	r1, #12
 8009ba8:	20bb      	movs	r0, #187	; 0xbb
 8009baa:	f7ff fbcd 	bl	8009348 <sendStatus>
              SmokChangeState(Smok_OFF, "PWM PE13 error");
 8009bae:	4972      	ldr	r1, [pc, #456]	; (8009d78 <communicatorADCMeasure+0x3e4>)
 8009bb0:	2001      	movs	r0, #1
 8009bb2:	f7ff fe49 	bl	8009848 <SmokChangeState>
              SmokLEDsState(0, -1, SET_OTHER, -1);
 8009bb6:	f04f 33ff 	mov.w	r3, #4294967295
 8009bba:	2203      	movs	r2, #3
 8009bbc:	4619      	mov	r1, r3
 8009bbe:	4638      	mov	r0, r7
 8009bc0:	f7ff fe66 	bl	8009890 <SmokLEDsState>
            }
          sent = 1;
 8009bc4:	2301      	movs	r3, #1
      /*     if(!cfg.disable_alerts) SmokChangeState(Smok_OFF); */
      /*     sent = 1; */
      /*   } */

      //Check IL
      if(meaniL >= cfg.imax_alarm)
 8009bc6:	486d      	ldr	r0, [pc, #436]	; (8009d7c <communicatorADCMeasure+0x3e8>)
 8009bc8:	f8d4 709c 	ldr.w	r7, [r4, #156]	; 0x9c
 8009bcc:	6801      	ldr	r1, [r0, #0]
 8009bce:	4a6c      	ldr	r2, [pc, #432]	; (8009d80 <communicatorADCMeasure+0x3ec>)
 8009bd0:	428f      	cmp	r7, r1
 8009bd2:	4607      	mov	r7, r0
 8009bd4:	dc2b      	bgt.n	8009c2e <communicatorADCMeasure+0x29a>
        {
          dprintf(LL_WARNING, "meaniL to high %d >= %d \n", meaniL, cfg.imax_alarm);
 8009bd6:	6d13      	ldr	r3, [r2, #80]	; 0x50
 8009bd8:	2b00      	cmp	r3, #0
 8009bda:	dd04      	ble.n	8009be6 <communicatorADCMeasure+0x252>
 8009bdc:	f8d2 209c 	ldr.w	r2, [r2, #156]	; 0x9c
 8009be0:	4868      	ldr	r0, [pc, #416]	; (8009d84 <communicatorADCMeasure+0x3f0>)
 8009be2:	f7fe fdbf 	bl	8008764 <xprintf>
          power_SHD_ERR_P(IL_ERROR);
          if(!(cfg.disable_alerts&0x200))
 8009be6:	6960      	ldr	r0, [r4, #20]
 8009be8:	f410 7000 	ands.w	r0, r0, #512	; 0x200
 8009bec:	d11e      	bne.n	8009c2c <communicatorADCMeasure+0x298>
            {
              sendStatusLong(IL_High_MsgCode, SNDROUND(meaniL), SNDROUND(sMaxvL));
 8009bee:	4b66      	ldr	r3, [pc, #408]	; (8009d88 <communicatorADCMeasure+0x3f4>)
 8009bf0:	683a      	ldr	r2, [r7, #0]
 8009bf2:	681f      	ldr	r7, [r3, #0]
 8009bf4:	2a00      	cmp	r2, #0
 8009bf6:	bfab      	itete	ge
 8009bf8:	f3c2 2107 	ubfxge	r1, r2, #8, #8
 8009bfc:	4602      	movlt	r2, r0
 8009bfe:	b2d2      	uxtbge	r2, r2
 8009c00:	4601      	movlt	r1, r0
 8009c02:	2f00      	cmp	r7, #0
 8009c04:	bfa6      	itte	ge
 8009c06:	b2f8      	uxtbge	r0, r7
 8009c08:	f3c7 2307 	ubfxge	r3, r7, #8, #8
 8009c0c:	2300      	movlt	r3, #0
 8009c0e:	9000      	str	r0, [sp, #0]
 8009c10:	20b5      	movs	r0, #181	; 0xb5
 8009c12:	f7ff fbc3 	bl	800939c <sendStatusLong>
              SmokChangeState(Smok_OFF, "meaniL to high");
 8009c16:	495d      	ldr	r1, [pc, #372]	; (8009d8c <communicatorADCMeasure+0x3f8>)
 8009c18:	2001      	movs	r0, #1
 8009c1a:	f7ff fe15 	bl	8009848 <SmokChangeState>
              SmokLEDsState(0, -1, SET_OTHER, -1);
 8009c1e:	f04f 33ff 	mov.w	r3, #4294967295
 8009c22:	2203      	movs	r2, #3
 8009c24:	4619      	mov	r1, r3
 8009c26:	2000      	movs	r0, #0
 8009c28:	f7ff fe32 	bl	8009890 <SmokLEDsState>
            }
          sent = 1;
 8009c2c:	2301      	movs	r3, #1
        }

      //Check Temperature AIR
      if(TEMP2C(temp1) >= cfg.t_air_max)
 8009c2e:	4f58      	ldr	r7, [pc, #352]	; (8009d90 <communicatorADCMeasure+0x3fc>)
 8009c30:	f8d4 00a0 	ldr.w	r0, [r4, #160]	; 0xa0
 8009c34:	6839      	ldr	r1, [r7, #0]
 8009c36:	4a52      	ldr	r2, [pc, #328]	; (8009d80 <communicatorADCMeasure+0x3ec>)
 8009c38:	11c9      	asrs	r1, r1, #7
 8009c3a:	4281      	cmp	r1, r0
 8009c3c:	db40      	blt.n	8009cc0 <communicatorADCMeasure+0x32c>
        {
          dprintf(LL_WARNING, "tAir to high %d.%d >= %d.%d \n", TEMP2C(temp1)/2, 5*(TEMP2C(temp1)%2), cfg.t_air_max/2, 5*(cfg.t_air_max%2));
 8009c3e:	6d13      	ldr	r3, [r2, #80]	; 0x50
 8009c40:	2b00      	cmp	r3, #0
 8009c42:	dd26      	ble.n	8009c92 <communicatorADCMeasure+0x2fe>
 8009c44:	f8d2 30a0 	ldr.w	r3, [r2, #160]	; 0xa0
 8009c48:	f8d2 e0a0 	ldr.w	lr, [r2, #160]	; 0xa0
 8009c4c:	2202      	movs	r2, #2
 8009c4e:	fb93 f3f2 	sdiv	r3, r3, r2
 8009c52:	4a50      	ldr	r2, [pc, #320]	; (8009d94 <communicatorADCMeasure+0x400>)
 8009c54:	400a      	ands	r2, r1
 8009c56:	2a00      	cmp	r2, #0
 8009c58:	f04f 0002 	mov.w	r0, #2
 8009c5c:	fb91 f1f0 	sdiv	r1, r1, r0
 8009c60:	484c      	ldr	r0, [pc, #304]	; (8009d94 <communicatorADCMeasure+0x400>)
 8009c62:	bfb8      	it	lt
 8009c64:	f102 32ff 	addlt.w	r2, r2, #4294967295
 8009c68:	ea0e 0000 	and.w	r0, lr, r0
 8009c6c:	bfbc      	itt	lt
 8009c6e:	f062 0201 	ornlt	r2, r2, #1
 8009c72:	3201      	addlt	r2, #1
 8009c74:	2800      	cmp	r0, #0
 8009c76:	bfbe      	ittt	lt
 8009c78:	f100 30ff 	addlt.w	r0, r0, #4294967295
 8009c7c:	f060 0001 	ornlt	r0, r0, #1
 8009c80:	3001      	addlt	r0, #1
 8009c82:	eb00 0080 	add.w	r0, r0, r0, lsl #2
 8009c86:	9000      	str	r0, [sp, #0]
 8009c88:	eb02 0282 	add.w	r2, r2, r2, lsl #2
 8009c8c:	4842      	ldr	r0, [pc, #264]	; (8009d98 <communicatorADCMeasure+0x404>)
 8009c8e:	f7fe fd69 	bl	8008764 <xprintf>
          power_SHD_ERR_P(TEMP_AIR_ERROR);
          if(!(cfg.disable_alerts&0x400))
 8009c92:	f8d4 8014 	ldr.w	r8, [r4, #20]
 8009c96:	f418 6880 	ands.w	r8, r8, #1024	; 0x400
 8009c9a:	d110      	bne.n	8009cbe <communicatorADCMeasure+0x32a>
            {
              sendStatus(AIR_ERR_MsgCode, TEMP2C(temp1), 0);
 8009c9c:	6839      	ldr	r1, [r7, #0]
 8009c9e:	4642      	mov	r2, r8
 8009ca0:	11c9      	asrs	r1, r1, #7
 8009ca2:	20b2      	movs	r0, #178	; 0xb2
 8009ca4:	f7ff fb50 	bl	8009348 <sendStatus>
              SmokChangeState(Smok_OFF, "tAir to high");
 8009ca8:	493c      	ldr	r1, [pc, #240]	; (8009d9c <communicatorADCMeasure+0x408>)
 8009caa:	2001      	movs	r0, #1
 8009cac:	f7ff fdcc 	bl	8009848 <SmokChangeState>
              SmokLEDsState(0, -1, SET_TEMP, -1);
 8009cb0:	f04f 33ff 	mov.w	r3, #4294967295
 8009cb4:	2202      	movs	r2, #2
 8009cb6:	4619      	mov	r1, r3
 8009cb8:	4640      	mov	r0, r8
 8009cba:	f7ff fde9 	bl	8009890 <SmokLEDsState>
            }
          sent = 1;
 8009cbe:	2301      	movs	r3, #1
        }

      //Check temperature FET
      if(TEMP2C(temp2) >= cfg.t_fet_max)
 8009cc0:	4f37      	ldr	r7, [pc, #220]	; (8009da0 <communicatorADCMeasure+0x40c>)
 8009cc2:	f8d4 00a4 	ldr.w	r0, [r4, #164]	; 0xa4
 8009cc6:	6839      	ldr	r1, [r7, #0]
 8009cc8:	4a2d      	ldr	r2, [pc, #180]	; (8009d80 <communicatorADCMeasure+0x3ec>)
 8009cca:	11c9      	asrs	r1, r1, #7
 8009ccc:	4281      	cmp	r1, r0
 8009cce:	db6d      	blt.n	8009dac <communicatorADCMeasure+0x418>
        {
          dprintf(LL_WARNING, "tFET to high %d.%d >= %d.%d \n", TEMP2C(temp2)/2, 5*(TEMP2C(temp2)%2), cfg.t_fet_max/2, 5*(cfg.t_fet_max%2));
 8009cd0:	6d13      	ldr	r3, [r2, #80]	; 0x50
 8009cd2:	2b00      	cmp	r3, #0
 8009cd4:	dd26      	ble.n	8009d24 <communicatorADCMeasure+0x390>
 8009cd6:	f8d2 30a4 	ldr.w	r3, [r2, #164]	; 0xa4
 8009cda:	f8d2 e0a4 	ldr.w	lr, [r2, #164]	; 0xa4
 8009cde:	2202      	movs	r2, #2
 8009ce0:	fb93 f3f2 	sdiv	r3, r3, r2
 8009ce4:	4a2b      	ldr	r2, [pc, #172]	; (8009d94 <communicatorADCMeasure+0x400>)
 8009ce6:	400a      	ands	r2, r1
 8009ce8:	2a00      	cmp	r2, #0
 8009cea:	f04f 0002 	mov.w	r0, #2
 8009cee:	fb91 f1f0 	sdiv	r1, r1, r0
 8009cf2:	4828      	ldr	r0, [pc, #160]	; (8009d94 <communicatorADCMeasure+0x400>)
 8009cf4:	bfb8      	it	lt
 8009cf6:	f102 32ff 	addlt.w	r2, r2, #4294967295
 8009cfa:	ea0e 0000 	and.w	r0, lr, r0
 8009cfe:	bfbc      	itt	lt
 8009d00:	f062 0201 	ornlt	r2, r2, #1
 8009d04:	3201      	addlt	r2, #1
 8009d06:	2800      	cmp	r0, #0
 8009d08:	bfbe      	ittt	lt
 8009d0a:	f100 30ff 	addlt.w	r0, r0, #4294967295
 8009d0e:	f060 0001 	ornlt	r0, r0, #1
 8009d12:	3001      	addlt	r0, #1
 8009d14:	eb00 0080 	add.w	r0, r0, r0, lsl #2
 8009d18:	9000      	str	r0, [sp, #0]
 8009d1a:	eb02 0282 	add.w	r2, r2, r2, lsl #2
 8009d1e:	4821      	ldr	r0, [pc, #132]	; (8009da4 <communicatorADCMeasure+0x410>)
 8009d20:	f7fe fd20 	bl	8008764 <xprintf>
          power_SHD_ERR_P(TEMP_FET_ERROR);
          if(!(cfg.disable_alerts&0x800))
 8009d24:	f8d4 8014 	ldr.w	r8, [r4, #20]
 8009d28:	f418 6800 	ands.w	r8, r8, #2048	; 0x800
 8009d2c:	f040 8176 	bne.w	800a01c <communicatorADCMeasure+0x688>
            {
              sendStatus(FET_ERR_MsgCode, TEMP2C(temp2),0);
 8009d30:	6839      	ldr	r1, [r7, #0]
 8009d32:	4642      	mov	r2, r8
 8009d34:	11c9      	asrs	r1, r1, #7
 8009d36:	20b1      	movs	r0, #177	; 0xb1
 8009d38:	f7ff fb06 	bl	8009348 <sendStatus>
              SmokChangeState(Smok_OFF, "tFET to high");
 8009d3c:	491a      	ldr	r1, [pc, #104]	; (8009da8 <communicatorADCMeasure+0x414>)
 8009d3e:	2001      	movs	r0, #1
 8009d40:	f7ff fd82 	bl	8009848 <SmokChangeState>
              SmokLEDsState(0, -1, SET_TEMP, -1);
 8009d44:	f04f 33ff 	mov.w	r3, #4294967295
 8009d48:	2202      	movs	r2, #2
 8009d4a:	4619      	mov	r1, r3
 8009d4c:	4640      	mov	r0, r8
 8009d4e:	f7ff fd9f 	bl	8009890 <SmokLEDsState>
 8009d52:	e163      	b.n	800a01c <communicatorADCMeasure+0x688>
 8009d54:	08014c4a 	.word	0x08014c4a
 8009d58:	08014c5a 	.word	0x08014c5a
 8009d5c:	08014c68 	.word	0x08014c68
 8009d60:	08014c78 	.word	0x08014c78
 8009d64:	08014c86 	.word	0x08014c86
 8009d68:	08014c97 	.word	0x08014c97
 8009d6c:	08014ca6 	.word	0x08014ca6
 8009d70:	08014cb7 	.word	0x08014cb7
 8009d74:	08014cc6 	.word	0x08014cc6
 8009d78:	08014cd7 	.word	0x08014cd7
 8009d7c:	2001ae58 	.word	0x2001ae58
 8009d80:	10001000 	.word	0x10001000
 8009d84:	08014ce6 	.word	0x08014ce6
 8009d88:	2001ae54 	.word	0x2001ae54
 8009d8c:	08014d00 	.word	0x08014d00
 8009d90:	2001add0 	.word	0x2001add0
 8009d94:	80000001 	.word	0x80000001
 8009d98:	08014d0f 	.word	0x08014d0f
 8009d9c:	08014d2d 	.word	0x08014d2d
 8009da0:	2001adcc 	.word	0x2001adcc
 8009da4:	08014d3a 	.word	0x08014d3a
 8009da8:	08014d58 	.word	0x08014d58
            }
          sent = 1;
        }
      if(sent)
 8009dac:	2b00      	cmp	r3, #0
 8009dae:	f040 8135 	bne.w	800a01c <communicatorADCMeasure+0x688>
    }

  Check_UIT_Alarms();

  {
    if(Uwy_k > cfg.uwyRange && kSensADC == 1) sensADCnew = 0;
 8009db2:	4b9f      	ldr	r3, [pc, #636]	; (800a030 <communicatorADCMeasure+0x69c>)
 8009db4:	f8d4 20ac 	ldr.w	r2, [r4, #172]	; 0xac
 8009db8:	681b      	ldr	r3, [r3, #0]
 8009dba:	429a      	cmp	r2, r3
 8009dbc:	da06      	bge.n	8009dcc <communicatorADCMeasure+0x438>
 8009dbe:	4a9d      	ldr	r2, [pc, #628]	; (800a034 <communicatorADCMeasure+0x6a0>)
 8009dc0:	6812      	ldr	r2, [r2, #0]
 8009dc2:	2a01      	cmp	r2, #1
 8009dc4:	bf02      	ittt	eq
 8009dc6:	4a9c      	ldreq	r2, [pc, #624]	; (800a038 <communicatorADCMeasure+0x6a4>)
 8009dc8:	2100      	moveq	r1, #0
 8009dca:	6011      	streq	r1, [r2, #0]
    if(Uwy_k <= cfg.uwyRange && kSensADC == 0) sensADCnew = 1;
 8009dcc:	f8d4 20ac 	ldr.w	r2, [r4, #172]	; 0xac
 8009dd0:	4293      	cmp	r3, r2
 8009dd2:	dc05      	bgt.n	8009de0 <communicatorADCMeasure+0x44c>
 8009dd4:	4b97      	ldr	r3, [pc, #604]	; (800a034 <communicatorADCMeasure+0x6a0>)
 8009dd6:	681b      	ldr	r3, [r3, #0]
 8009dd8:	b913      	cbnz	r3, 8009de0 <communicatorADCMeasure+0x44c>
 8009dda:	4b97      	ldr	r3, [pc, #604]	; (800a038 <communicatorADCMeasure+0x6a4>)
 8009ddc:	2201      	movs	r2, #1
 8009dde:	601a      	str	r2, [r3, #0]
    CLRADC(Uwy_k);
 8009de0:	f000 f9a8 	bl	800a134 <vPortEnterCritical>
 8009de4:	4b95      	ldr	r3, [pc, #596]	; (800a03c <communicatorADCMeasure+0x6a8>)
 8009de6:	2000      	movs	r0, #0
 8009de8:	2100      	movs	r1, #0
 8009dea:	e9c3 0100 	strd	r0, r1, [r3]
 8009dee:	4b94      	ldr	r3, [pc, #592]	; (800a040 <communicatorADCMeasure+0x6ac>)
 8009df0:	2200      	movs	r2, #0
 8009df2:	601a      	str	r2, [r3, #0]
 8009df4:	f000 f9b0 	bl	800a158 <vPortExitCritical>
  }

  diff = nextTimestamp - adcTime;
#define IDX ((smokState == Smok_ON)?1:0)
  if(diff < 0 || diff > 10000)
 8009df8:	696b      	ldr	r3, [r5, #20]
    if(Uwy_k > cfg.uwyRange && kSensADC == 1) sensADCnew = 0;
    if(Uwy_k <= cfg.uwyRange && kSensADC == 0) sensADCnew = 1;
    CLRADC(Uwy_k);
  }

  diff = nextTimestamp - adcTime;
 8009dfa:	4892      	ldr	r0, [pc, #584]	; (800a044 <communicatorADCMeasure+0x6b0>)
#define IDX ((smokState == Smok_ON)?1:0)
  if(diff < 0 || diff > 10000)
 8009dfc:	1b9b      	subs	r3, r3, r6
 8009dfe:	f242 7210 	movw	r2, #10000	; 0x2710
 8009e02:	4293      	cmp	r3, r2
 8009e04:	f240 8110 	bls.w	800a028 <communicatorADCMeasure+0x694>
    {
      nextTimestamp = adcTime + cfg.msgRoundTime[IDX];
 8009e08:	7803      	ldrb	r3, [r0, #0]
 8009e0a:	1e9f      	subs	r7, r3, #2
 8009e0c:	427b      	negs	r3, r7
 8009e0e:	417b      	adcs	r3, r7
 8009e10:	f103 021a 	add.w	r2, r3, #26
 8009e14:	eb04 0282 	add.w	r2, r4, r2, lsl #2
 8009e18:	6852      	ldr	r2, [r2, #4]
 8009e1a:	4416      	add	r6, r2

      //Next round
      UIT_MsgRound = (UIT_MsgRound + 1)%(cfg.msgRoundMax[IDX]+1);
 8009e1c:	f103 0218 	add.w	r2, r3, #24
 8009e20:	eb04 0282 	add.w	r2, r4, r2, lsl #2

  diff = nextTimestamp - adcTime;
#define IDX ((smokState == Smok_ON)?1:0)
  if(diff < 0 || diff > 10000)
    {
      nextTimestamp = adcTime + cfg.msgRoundTime[IDX];
 8009e24:	6146      	str	r6, [r0, #20]

      //Next round
      UIT_MsgRound = (UIT_MsgRound + 1)%(cfg.msgRoundMax[IDX]+1);
 8009e26:	6852      	ldr	r2, [r2, #4]
 8009e28:	6846      	ldr	r6, [r0, #4]
 8009e2a:	3201      	adds	r2, #1
 8009e2c:	3601      	adds	r6, #1

      //Send actual current, voltage and temperature output values
      // -------  Uwe -----------
      SENDSTS(cfg.msgUwe[IDX],
 8009e2e:	331c      	adds	r3, #28
  if(diff < 0 || diff > 10000)
    {
      nextTimestamp = adcTime + cfg.msgRoundTime[IDX];

      //Next round
      UIT_MsgRound = (UIT_MsgRound + 1)%(cfg.msgRoundMax[IDX]+1);
 8009e30:	fb96 f1f2 	sdiv	r1, r6, r2

      //Send actual current, voltage and temperature output values
      // -------  Uwe -----------
      SENDSTS(cfg.msgUwe[IDX],
 8009e34:	eb04 0383 	add.w	r3, r4, r3, lsl #2
  if(diff < 0 || diff > 10000)
    {
      nextTimestamp = adcTime + cfg.msgRoundTime[IDX];

      //Next round
      UIT_MsgRound = (UIT_MsgRound + 1)%(cfg.msgRoundMax[IDX]+1);
 8009e38:	fb02 6211 	mls	r2, r2, r1, r6
 8009e3c:	6042      	str	r2, [r0, #4]

      //Send actual current, voltage and temperature output values
      // -------  Uwe -----------
      SENDSTS(cfg.msgUwe[IDX],
 8009e3e:	685e      	ldr	r6, [r3, #4]
 8009e40:	685b      	ldr	r3, [r3, #4]
 8009e42:	fa43 f202 	asr.w	r2, r3, r2
 8009e46:	07d3      	lsls	r3, r2, #31
 8009e48:	bf5a      	itte	pl
 8009e4a:	fab6 f686 	clzpl	r6, r6
 8009e4e:	0976      	lsrpl	r6, r6, #5
 8009e50:	2603      	movmi	r6, #3
 8009e52:	07b1      	lsls	r1, r6, #30
 8009e54:	d50b      	bpl.n	8009e6e <communicatorADCMeasure+0x4da>
 8009e56:	4b7c      	ldr	r3, [pc, #496]	; (800a048 <communicatorADCMeasure+0x6b4>)
 8009e58:	681a      	ldr	r2, [r3, #0]
 8009e5a:	2a00      	cmp	r2, #0
 8009e5c:	bfb5      	itete	lt
 8009e5e:	2100      	movlt	r1, #0
 8009e60:	f3c2 2107 	ubfxge	r1, r2, #8, #8
 8009e64:	460a      	movlt	r2, r1
 8009e66:	b2d2      	uxtbge	r2, r2
 8009e68:	2021      	movs	r0, #33	; 0x21
 8009e6a:	f7ff fa6d 	bl	8009348 <sendStatus>
 8009e6e:	07f2      	lsls	r2, r6, #31
 8009e70:	d50b      	bpl.n	8009e8a <communicatorADCMeasure+0x4f6>
 8009e72:	f000 f95f 	bl	800a134 <vPortEnterCritical>
 8009e76:	4b75      	ldr	r3, [pc, #468]	; (800a04c <communicatorADCMeasure+0x6b8>)
 8009e78:	2000      	movs	r0, #0
 8009e7a:	2100      	movs	r1, #0
 8009e7c:	e9c3 0100 	strd	r0, r1, [r3]
 8009e80:	4b73      	ldr	r3, [pc, #460]	; (800a050 <communicatorADCMeasure+0x6bc>)
 8009e82:	2200      	movs	r2, #0
 8009e84:	601a      	str	r2, [r3, #0]
 8009e86:	f000 f967 	bl	800a158 <vPortExitCritical>
              sendStatus(Uwe_MsgCode, SNDROUND(Uwe_val)),
              CLRADC(Uwe_val));

      // -------  Uwy -----------
      SENDSTS(cfg.msgUwy[IDX],
 8009e8a:	782b      	ldrb	r3, [r5, #0]
 8009e8c:	686a      	ldr	r2, [r5, #4]
 8009e8e:	2b02      	cmp	r3, #2
 8009e90:	bf0c      	ite	eq
 8009e92:	237c      	moveq	r3, #124	; 0x7c
 8009e94:	2378      	movne	r3, #120	; 0x78
 8009e96:	4423      	add	r3, r4
 8009e98:	685e      	ldr	r6, [r3, #4]
 8009e9a:	685b      	ldr	r3, [r3, #4]
 8009e9c:	4113      	asrs	r3, r2
 8009e9e:	07db      	lsls	r3, r3, #31
 8009ea0:	bf5a      	itte	pl
 8009ea2:	fab6 f686 	clzpl	r6, r6
 8009ea6:	0976      	lsrpl	r6, r6, #5
 8009ea8:	2603      	movmi	r6, #3
 8009eaa:	07b7      	lsls	r7, r6, #30
 8009eac:	d50b      	bpl.n	8009ec6 <communicatorADCMeasure+0x532>
 8009eae:	4b69      	ldr	r3, [pc, #420]	; (800a054 <communicatorADCMeasure+0x6c0>)
 8009eb0:	681a      	ldr	r2, [r3, #0]
 8009eb2:	2a00      	cmp	r2, #0
 8009eb4:	bfb5      	itete	lt
 8009eb6:	2100      	movlt	r1, #0
 8009eb8:	f3c2 2107 	ubfxge	r1, r2, #8, #8
 8009ebc:	460a      	movlt	r2, r1
 8009ebe:	b2d2      	uxtbge	r2, r2
 8009ec0:	2022      	movs	r0, #34	; 0x22
 8009ec2:	f7ff fa41 	bl	8009348 <sendStatus>
 8009ec6:	07f0      	lsls	r0, r6, #31
 8009ec8:	d50b      	bpl.n	8009ee2 <communicatorADCMeasure+0x54e>
 8009eca:	f000 f933 	bl	800a134 <vPortEnterCritical>
 8009ece:	4b62      	ldr	r3, [pc, #392]	; (800a058 <communicatorADCMeasure+0x6c4>)
 8009ed0:	2000      	movs	r0, #0
 8009ed2:	2100      	movs	r1, #0
 8009ed4:	e9c3 0100 	strd	r0, r1, [r3]
 8009ed8:	4b60      	ldr	r3, [pc, #384]	; (800a05c <communicatorADCMeasure+0x6c8>)
 8009eda:	2200      	movs	r2, #0
 8009edc:	601a      	str	r2, [r3, #0]
 8009ede:	f000 f93b 	bl	800a158 <vPortExitCritical>
              sendStatus(Uwy_MsgCode, SNDROUND(Uwy_val)),
              CLRADC(Uwy_val);
             );

      // -------  Iavg -----------
      SENDSTS(cfg.msgIavg[IDX],
 8009ee2:	782b      	ldrb	r3, [r5, #0]
 8009ee4:	686a      	ldr	r2, [r5, #4]
 8009ee6:	2b02      	cmp	r3, #2
 8009ee8:	bf0c      	ite	eq
 8009eea:	2384      	moveq	r3, #132	; 0x84
 8009eec:	2380      	movne	r3, #128	; 0x80
 8009eee:	4423      	add	r3, r4
 8009ef0:	685e      	ldr	r6, [r3, #4]
 8009ef2:	685b      	ldr	r3, [r3, #4]
 8009ef4:	4113      	asrs	r3, r2
 8009ef6:	07d9      	lsls	r1, r3, #31
 8009ef8:	bf5a      	itte	pl
 8009efa:	fab6 f686 	clzpl	r6, r6
 8009efe:	0976      	lsrpl	r6, r6, #5
 8009f00:	2603      	movmi	r6, #3
 8009f02:	07b2      	lsls	r2, r6, #30
 8009f04:	d515      	bpl.n	8009f32 <communicatorADCMeasure+0x59e>
 8009f06:	4b56      	ldr	r3, [pc, #344]	; (800a060 <communicatorADCMeasure+0x6cc>)
 8009f08:	681a      	ldr	r2, [r3, #0]
 8009f0a:	4b56      	ldr	r3, [pc, #344]	; (800a064 <communicatorADCMeasure+0x6d0>)
 8009f0c:	2a00      	cmp	r2, #0
 8009f0e:	6818      	ldr	r0, [r3, #0]
 8009f10:	bfb5      	itete	lt
 8009f12:	2100      	movlt	r1, #0
 8009f14:	f3c2 2107 	ubfxge	r1, r2, #8, #8
 8009f18:	460a      	movlt	r2, r1
 8009f1a:	b2d2      	uxtbge	r2, r2
 8009f1c:	2800      	cmp	r0, #0
 8009f1e:	bfb5      	itete	lt
 8009f20:	2300      	movlt	r3, #0
 8009f22:	f3c0 2307 	ubfxge	r3, r0, #8, #8
 8009f26:	4618      	movlt	r0, r3
 8009f28:	b2c0      	uxtbge	r0, r0
 8009f2a:	9000      	str	r0, [sp, #0]
 8009f2c:	2023      	movs	r0, #35	; 0x23
 8009f2e:	f7ff fa35 	bl	800939c <sendStatusLong>
 8009f32:	07f3      	lsls	r3, r6, #31
 8009f34:	d528      	bpl.n	8009f88 <communicatorADCMeasure+0x5f4>
 8009f36:	f000 f8fd 	bl	800a134 <vPortEnterCritical>
 8009f3a:	4b4b      	ldr	r3, [pc, #300]	; (800a068 <communicatorADCMeasure+0x6d4>)
 8009f3c:	f04f 0800 	mov.w	r8, #0
 8009f40:	f04f 0900 	mov.w	r9, #0
 8009f44:	e9c3 8900 	strd	r8, r9, [r3]
 8009f48:	4b48      	ldr	r3, [pc, #288]	; (800a06c <communicatorADCMeasure+0x6d8>)
 8009f4a:	2600      	movs	r6, #0
 8009f4c:	601e      	str	r6, [r3, #0]
 8009f4e:	f000 f903 	bl	800a158 <vPortExitCritical>
 8009f52:	f000 f8ef 	bl	800a134 <vPortEnterCritical>
 8009f56:	4b46      	ldr	r3, [pc, #280]	; (800a070 <communicatorADCMeasure+0x6dc>)
 8009f58:	e9c3 8900 	strd	r8, r9, [r3]
 8009f5c:	4b45      	ldr	r3, [pc, #276]	; (800a074 <communicatorADCMeasure+0x6e0>)
 8009f5e:	601e      	str	r6, [r3, #0]
 8009f60:	f000 f8fa 	bl	800a158 <vPortExitCritical>
 8009f64:	f000 f8e6 	bl	800a134 <vPortEnterCritical>
 8009f68:	4b43      	ldr	r3, [pc, #268]	; (800a078 <communicatorADCMeasure+0x6e4>)
 8009f6a:	e9c3 8900 	strd	r8, r9, [r3]
 8009f6e:	4b43      	ldr	r3, [pc, #268]	; (800a07c <communicatorADCMeasure+0x6e8>)
 8009f70:	601e      	str	r6, [r3, #0]
 8009f72:	f000 f8f1 	bl	800a158 <vPortExitCritical>
 8009f76:	f000 f8dd 	bl	800a134 <vPortEnterCritical>
 8009f7a:	4b41      	ldr	r3, [pc, #260]	; (800a080 <communicatorADCMeasure+0x6ec>)
 8009f7c:	e9c3 8900 	strd	r8, r9, [r3]
 8009f80:	4b40      	ldr	r3, [pc, #256]	; (800a084 <communicatorADCMeasure+0x6f0>)
 8009f82:	601e      	str	r6, [r3, #0]
 8009f84:	f000 f8e8 	bl	800a158 <vPortExitCritical>
        CLRADC(meaniL);
        CLRADC(meaniH);
      });

      // -------  Imax -----------
      SENDSTS(cfg.msgImax[IDX],
 8009f88:	782b      	ldrb	r3, [r5, #0]
 8009f8a:	686a      	ldr	r2, [r5, #4]
 8009f8c:	2b02      	cmp	r3, #2
 8009f8e:	bf0c      	ite	eq
 8009f90:	238c      	moveq	r3, #140	; 0x8c
 8009f92:	2388      	movne	r3, #136	; 0x88
 8009f94:	4423      	add	r3, r4
 8009f96:	685e      	ldr	r6, [r3, #4]
 8009f98:	685b      	ldr	r3, [r3, #4]
 8009f9a:	4113      	asrs	r3, r2
 8009f9c:	07df      	lsls	r7, r3, #31
 8009f9e:	bf5a      	itte	pl
 8009fa0:	fab6 f686 	clzpl	r6, r6
 8009fa4:	0976      	lsrpl	r6, r6, #5
 8009fa6:	2603      	movmi	r6, #3
 8009fa8:	07b0      	lsls	r0, r6, #30
 8009faa:	d515      	bpl.n	8009fd8 <communicatorADCMeasure+0x644>
 8009fac:	4b36      	ldr	r3, [pc, #216]	; (800a088 <communicatorADCMeasure+0x6f4>)
 8009fae:	681a      	ldr	r2, [r3, #0]
 8009fb0:	4b36      	ldr	r3, [pc, #216]	; (800a08c <communicatorADCMeasure+0x6f8>)
 8009fb2:	2a00      	cmp	r2, #0
 8009fb4:	6818      	ldr	r0, [r3, #0]
 8009fb6:	bfb5      	itete	lt
 8009fb8:	2100      	movlt	r1, #0
 8009fba:	f3c2 2107 	ubfxge	r1, r2, #8, #8
 8009fbe:	460a      	movlt	r2, r1
 8009fc0:	b2d2      	uxtbge	r2, r2
 8009fc2:	2800      	cmp	r0, #0
 8009fc4:	bfb5      	itete	lt
 8009fc6:	2300      	movlt	r3, #0
 8009fc8:	f3c0 2307 	ubfxge	r3, r0, #8, #8
 8009fcc:	4618      	movlt	r0, r3
 8009fce:	b2c0      	uxtbge	r0, r0
 8009fd0:	9000      	str	r0, [sp, #0]
 8009fd2:	2024      	movs	r0, #36	; 0x24
 8009fd4:	f7ff f9e2 	bl	800939c <sendStatusLong>
 8009fd8:	07f1      	lsls	r1, r6, #31
 8009fda:	bf48      	it	mi
 8009fdc:	4b2a      	ldrmi	r3, [pc, #168]	; (800a088 <communicatorADCMeasure+0x6f4>)
              sendStatusLong(Imax_MsgCode, SNDROUND(sMaxiL), SNDROUND(sMaxvL)); ,
              sMaxiL = 0;
             );

      // -------  Temperature AIR & FET -----------
      SENDSTS(cfg.msgTemp[IDX],
 8009fde:	6869      	ldr	r1, [r5, #4]
        CLRADC(meaniL);
        CLRADC(meaniH);
      });

      // -------  Imax -----------
      SENDSTS(cfg.msgImax[IDX],
 8009fe0:	bf44      	itt	mi
 8009fe2:	2200      	movmi	r2, #0
 8009fe4:	601a      	strmi	r2, [r3, #0]
              sendStatusLong(Imax_MsgCode, SNDROUND(sMaxiL), SNDROUND(sMaxvL)); ,
              sMaxiL = 0;
             );

      // -------  Temperature AIR & FET -----------
      SENDSTS(cfg.msgTemp[IDX],
 8009fe6:	782b      	ldrb	r3, [r5, #0]
 8009fe8:	2b02      	cmp	r3, #2
 8009fea:	bf0c      	ite	eq
 8009fec:	2394      	moveq	r3, #148	; 0x94
 8009fee:	2390      	movne	r3, #144	; 0x90
 8009ff0:	441c      	add	r4, r3
 8009ff2:	6863      	ldr	r3, [r4, #4]
 8009ff4:	6862      	ldr	r2, [r4, #4]
 8009ff6:	410a      	asrs	r2, r1
 8009ff8:	07d2      	lsls	r2, r2, #31
 8009ffa:	bf5a      	itte	pl
 8009ffc:	fab3 f383 	clzpl	r3, r3
 800a000:	095b      	lsrpl	r3, r3, #5
 800a002:	2303      	movmi	r3, #3
 800a004:	079b      	lsls	r3, r3, #30
 800a006:	d50f      	bpl.n	800a028 <communicatorADCMeasure+0x694>
 800a008:	4b21      	ldr	r3, [pc, #132]	; (800a090 <communicatorADCMeasure+0x6fc>)
 800a00a:	681a      	ldr	r2, [r3, #0]
 800a00c:	4b21      	ldr	r3, [pc, #132]	; (800a094 <communicatorADCMeasure+0x700>)
 800a00e:	6819      	ldr	r1, [r3, #0]
 800a010:	11d2      	asrs	r2, r2, #7
 800a012:	11c9      	asrs	r1, r1, #7
 800a014:	2030      	movs	r0, #48	; 0x30
 800a016:	f7ff f997 	bl	8009348 <sendStatus>
{
